 CourseworkBase2020

 Timestamp is 6813b7e3 (Thu May  1 19:05:23 2025)

 Preferred load address is 00400000

 Start         Length     Name                   Class
 0001:00000000 00007420H .text$di                CODE
 0001:00007420 0007cfe0H .text$mn                CODE
 0001:00084400 000044b0H .text$x                 CODE
 0001:000888b0 00001014H .text$yd                CODE
 0002:00000000 00000104H .CRT$XCA                DATA
 0002:00000104 00000104H .CRT$XCAA               DATA
 0002:00000208 00000104H .CRT$XCL                DATA
 0002:0000030c 00000104H .CRT$XCZ                DATA
 0002:00000410 00000104H .CRT$XIA                DATA
 0002:00000514 00000104H .CRT$XIAA               DATA
 0002:00000618 00000104H .CRT$XIAC               DATA
 0002:0000071c 00000104H .CRT$XIZ                DATA
 0002:00000820 00000104H .CRT$XPA                DATA
 0002:00000924 00000104H .CRT$XPZ                DATA
 0002:00000a28 00000104H .CRT$XTA                DATA
 0002:00000b2c 00000114H .CRT$XTZ                DATA
 0002:00000c40 0000f980H .rdata                  DATA
 0002:000105c0 00000180H .rdata$CastGuardVftablesA DATA
 0002:00010740 0000014cH .rdata$CastGuardVftablesC DATA
 0002:0001088c 00001618H .rdata$r                DATA
 0002:00011ea4 000004c0H .rdata$sxdata           DATA
 0002:00012364 0000017cH .rdata$zzzdbg           DATA
 0002:000124e0 00000104H .rtc$IAA                DATA
 0002:000125e4 00000104H .rtc$IZZ                DATA
 0002:000126e8 00000104H .rtc$TAA                DATA
 0002:000127ec 00000104H .rtc$TZZ                DATA
 0002:000128f0 00002e45H .xdata$x                DATA
 0002:00015735 00000000H .edata                  DATA
 0003:00000000 000001ccH .data                   DATA
 0003:000001cc 000001e4H .data$r                 DATA
 0003:000003b0 000009b8H .data$rs                DATA
 0003:00000d68 00000464H .bss                    DATA
 0004:00000000 00000568H .idata$5                DATA
 0004:00000568 0000008cH .idata$2                DATA
 0004:000005f4 00000014H .idata$3                DATA
 0004:00000608 00000568H .idata$4                DATA
 0004:00000b70 000021b7H .idata$6                DATA
 0005:00000000 0000010eH .00cfg                  DATA
 0006:00000000 00000170H .rsrc$01                DATA
 0006:00000170 000002ccH .rsrc$02                DATA

  Address         Publics by Value              Rva+Base       Lib:Object

 0000:00000000       ___AbsoluteZero            00000000     <absolute>
 0000:00000000       ___arm64x_extra_rfe_table  00000000     <absolute>
 0000:00000000       ___arm64x_extra_rfe_table_size 00000000     <absolute>
 0000:00000000       ___arm64x_native_entrypoint 00000000     <absolute>
 0000:00000000       ___arm64x_redirection_metadata 00000000     <absolute>
 0000:00000000       ___arm64x_redirection_metadata_count 00000000     <absolute>
 0000:00000000       ___dynamic_value_reloc_table 00000000     <absolute>
 0000:00000000       ___enclave_config          00000000     <absolute>
 0000:00000000       ___guard_check_icall_a64n_fptr 00000000     <absolute>
 0000:00000000       ___guard_eh_cont_count     00000000     <absolute>
 0000:00000000       ___guard_eh_cont_table     00000000     <absolute>
 0000:00000000       ___guard_fids_count        00000000     <absolute>
 0000:00000000       ___guard_fids_table        00000000     <absolute>
 0000:00000000       ___guard_iat_count         00000000     <absolute>
 0000:00000000       ___guard_iat_table         00000000     <absolute>
 0000:00000000       ___guard_longjmp_count     00000000     <absolute>
 0000:00000000       ___guard_longjmp_table     00000000     <absolute>
 0000:00000000       ___hybrid_auxiliary_delayload_iat 00000000     <absolute>
 0000:00000000       ___hybrid_auxiliary_delayload_iat_copy 00000000     <absolute>
 0000:00000000       ___hybrid_auxiliary_iat    00000000     <absolute>
 0000:00000000       ___hybrid_auxiliary_iat_copy 00000000     <absolute>
 0000:00000000       ___hybrid_code_map         00000000     <absolute>
 0000:00000000       ___hybrid_code_map_count   00000000     <absolute>
 0000:00000000       ___hybrid_image_info_bitfield 00000000     <absolute>
 0000:00000000       ___volatile_metadata       00000000     <absolute>
 0000:00000000       ___x64_code_ranges_to_entry_points 00000000     <absolute>
 0000:00000000       ___x64_code_ranges_to_entry_points_count 00000000     <absolute>
 0000:000000ce       ___safe_se_handler_count   000000ce     <absolute>
 0000:00000100       ___guard_flags             00000100     <absolute>
 0000:00000000       ___ImageBase               00400000     <linker-defined>
 0001:00007420       ?virtSetupBackgroundBuffer@DraggingDemo@@UAEXXZ 00408420 f   DraggingDemo.obj
 0001:00007560       ?virtInitialiseObjects@DraggingDemo@@UAEHXZ 00408560 f   DraggingDemo.obj
 0001:000077c0       ?virtKeyDown@DraggingDemo@@UAEXH@Z 004087c0 f   DraggingDemo.obj
 0001:000077e8       ??_E?$basic_stringstream@DU?$char_traits@D@std@@V?$allocator@D@2@@std@@$4PPPPPPPM@A@AEPAXI@Z 004087e8 f i gameState.obj
 0001:000077f0       ??$_Emplace_back@PAVPsyeb10Enemy@@@?$_Uninitialized_backout_al@V?$allocator@PAVPsyeb10Enemy@@@std@@@std@@QAEX$$QAPAVPsyeb10Enemy@@@Z 004087f0 f i gameState.obj
 0001:00007840       ??$_Emplace_back_with_unused_capacity@PAVPsyeb10Enemy@@@?$vector@PAVPsyeb10Enemy@@V?$allocator@PAVPsyeb10Enemy@@@std@@@std@@AAEAAPAVPsyeb10Enemy@@$$QAPAV2@@Z 00408840 f i gameState.obj
 0001:000078b0       ??$_Fgetc@D@std@@YA_NAADPAU_iobuf@@@Z 004088b0 f i gameState.obj
 0001:000078e0       ??$?0$$V@?$_Compressed_pair@V?$allocator@D@std@@V?$_String_val@U?$_Simple_types@D@std@@@2@$00@std@@QAE@U_Zero_then_variadic_args_t@1@@Z 004088e0 f i DraggingDemo.obj
 0001:00007910       ??$?0$$V@?$_Compressed_pair@V?$allocator@U?$_Tree_node@U?$pair@$$CBV?$basic_string@DU?$char_traits@D@std@@V?$allocator@D@2@@std@@V?$shared_ptr@VRawImageData@@@2@@std@@PAX@std@@@std@@V?$_Tree_val@U?$_Tree_simple_types@U?$pair@$$CBV?$basic_string@DU?$char_traits@D@std@@V?$allocator@D@2@@std@@V?$shared_ptr@VRawImageData@@@2@@std@@@std@@@2@$00@std@@QAE@U_Zero_then_variadic_args_t@1@@Z 00408910 f i DraggingDemo.obj
 0001:00007940       ??$?0$$V@?$_Compressed_pair@V?$allocator@U?$_Tree_node@U?$pair@$$CBV?$basic_string@DU?$char_traits@D@std@@V?$allocator@D@2@@std@@V?$weak_ptr@VRawImageData@@@2@@std@@PAX@std@@@std@@V?$_Tree_val@U?$_Tree_simple_types@U?$pair@$$CBV?$basic_string@DU?$char_traits@D@std@@V?$allocator@D@2@@std@@V?$weak_ptr@VRawImageData@@@2@@std@@@std@@@2@$00@std@@QAE@U_Zero_then_variadic_args_t@1@@Z 00408940 f i DraggingDemo.obj
 0001:00007970       ??$?0AAPAU?$_Tree_node@U?$pair@$$CBV?$basic_string@DU?$char_traits@D@std@@V?$allocator@D@2@@std@@V?$shared_ptr@VRawImageData@@@2@@std@@PAX@std@@_N$0A@@?$pair@PAU?$_Tree_node@U?$pair@$$CBV?$basic_string@DU?$char_traits@D@std@@V?$allocator@D@2@@std@@V?$shared_ptr@VRawImageData@@@2@@std@@PAX@std@@_N@std@@QAE@AAPAU?$_Tree_node@U?$pair@$$CBV?$basic_string@DU?$char_traits@D@std@@V?$allocator@D@2@@std@@V?$shared_ptr@VRawImageData@@@2@@std@@PAX@1@$$QA_N@Z 00408970 f i DraggingDemo.obj
 0001:000079b0       ?to_char_type@?$_Narrow_char_traits@DH@std@@SADH@Z 004089b0 f i gameState.obj
 0001:000079c0       ??$?0AAPAU?$_Tree_node@U?$pair@$$CBV?$basic_string@DU?$char_traits@D@std@@V?$allocator@D@2@@std@@V?$weak_ptr@VRawImageData@@@2@@std@@PAX@std@@_N$0A@@?$pair@PAU?$_Tree_node@U?$pair@$$CBV?$basic_string@DU?$char_traits@D@std@@V?$allocator@D@2@@std@@V?$weak_ptr@VRawImageData@@@2@@std@@PAX@std@@_N@std@@QAE@AAPAU?$_Tree_node@U?$pair@$$CBV?$basic_string@DU?$char_traits@D@std@@V?$allocator@D@2@@std@@V?$weak_ptr@VRawImageData@@@2@@std@@PAX@1@$$QA_N@Z 004089c0 f i DraggingDemo.obj
 0001:00007a00       ?to_int_type@?$_Narrow_char_traits@DH@std@@SAHD@Z 00408a00 f i gameState.obj
 0001:00007a10       ??$?0AAV?$basic_string@DU?$char_traits@D@std@@V?$allocator@D@2@@std@@AAV?$shared_ptr@VRawImageData@@@1@$0A@@?$pair@V?$basic_string@DU?$char_traits@D@std@@V?$allocator@D@2@@std@@V?$shared_ptr@VRawImageData@@@2@@std@@QAE@AAV?$basic_string@DU?$char_traits@D@std@@V?$allocator@D@2@@1@AAV?$shared_ptr@VRawImageData@@@1@@Z 00408a10 f i DraggingDemo.obj
 0001:00007a60       ??$?0AAV?$basic_string@DU?$char_traits@D@std@@V?$allocator@D@2@@std@@AAV?$weak_ptr@VRawImageData@@@1@$0A@@?$pair@V?$basic_string@DU?$char_traits@D@std@@V?$allocator@D@2@@std@@V?$weak_ptr@VRawImageData@@@2@@std@@QAE@AAV?$basic_string@DU?$char_traits@D@std@@V?$allocator@D@2@@1@AAV?$weak_ptr@VRawImageData@@@1@@Z 00408a60 f i DraggingDemo.obj
 0001:00007ab0       ??$?0ABU?$less@V?$basic_string@DU?$char_traits@D@std@@V?$allocator@D@2@@std@@@std@@U_Zero_then_variadic_args_t@1@@?$_Compressed_pair@U?$less@V?$basic_string@DU?$char_traits@D@std@@V?$allocator@D@2@@std@@@std@@V?$_Compressed_pair@V?$allocator@U?$_Tree_node@U?$pair@$$CBV?$basic_string@DU?$char_traits@D@std@@V?$allocator@D@2@@std@@V?$shared_ptr@VRawImageData@@@2@@std@@PAX@std@@@std@@V?$_Tree_val@U?$_Tree_simple_types@U?$pair@$$CBV?$basic_string@DU?$char_traits@D@std@@V?$allocator@D@2@@std@@V?$shared_ptr@VRawImageData@@@2@@std@@@std@@@2@$00@2@$00@std@@QAE@U_One_then_variadic_args_t@1@ABU?$less@V?$basic_string@DU?$char_traits@D@std@@V?$allocator@D@2@@std@@@1@$$QAU_Zero_then_variadic_args_t@1@@Z 00408ab0 f i DraggingDemo.obj
 0001:00007b00       ??$?0ABU?$less@V?$basic_string@DU?$char_traits@D@std@@V?$allocator@D@2@@std@@@std@@U_Zero_then_variadic_args_t@1@@?$_Compressed_pair@U?$less@V?$basic_string@DU?$char_traits@D@std@@V?$allocator@D@2@@std@@@std@@V?$_Compressed_pair@V?$allocator@U?$_Tree_node@U?$pair@$$CBV?$basic_string@DU?$char_traits@D@std@@V?$allocator@D@2@@std@@V?$weak_ptr@VRawImageData@@@2@@std@@PAX@std@@@std@@V?$_Tree_val@U?$_Tree_simple_types@U?$pair@$$CBV?$basic_string@DU?$char_traits@D@std@@V?$allocator@D@2@@std@@V?$weak_ptr@VRawImageData@@@2@@std@@@std@@@2@$00@2@$00@std@@QAE@U_One_then_variadic_args_t@1@ABU?$less@V?$basic_string@DU?$char_traits@D@std@@V?$allocator@D@2@@std@@@1@$$QAU_Zero_then_variadic_args_t@1@@Z 00408b00 f i DraggingDemo.obj
 0001:00007b50       ??$?0D@?$allocator@U_Container_proxy@std@@@std@@QAE@ABV?$allocator@D@1@@Z 00408b50 f i DraggingDemo.obj
 0001:00007b70       ??$?0PAU?$_Tree_node@U?$pair@$$CBV?$basic_string@DU?$char_traits@D@std@@V?$allocator@D@2@@std@@V?$shared_ptr@VRawImageData@@@2@@std@@PAX@std@@_N$0A@@?$pair@PAU?$_Tree_node@U?$pair@$$CBV?$basic_string@DU?$char_traits@D@std@@V?$allocator@D@2@@std@@V?$shared_ptr@VRawImageData@@@2@@std@@PAX@std@@_N@std@@QAE@$$QAPAU?$_Tree_node@U?$pair@$$CBV?$basic_string@DU?$char_traits@D@std@@V?$allocator@D@2@@std@@V?$shared_ptr@VRawImageData@@@2@@std@@PAX@1@$$QA_N@Z 00408b70 f i DraggingDemo.obj
 0001:00007bc0       ??$?0PAU?$_Tree_node@U?$pair@$$CBV?$basic_string@DU?$char_traits@D@std@@V?$allocator@D@2@@std@@V?$weak_ptr@VRawImageData@@@2@@std@@PAX@std@@_N$0A@@?$pair@PAU?$_Tree_node@U?$pair@$$CBV?$basic_string@DU?$char_traits@D@std@@V?$allocator@D@2@@std@@V?$weak_ptr@VRawImageData@@@2@@std@@PAX@std@@_N@std@@QAE@$$QAPAU?$_Tree_node@U?$pair@$$CBV?$basic_string@DU?$char_traits@D@std@@V?$allocator@D@2@@std@@V?$weak_ptr@VRawImageData@@@2@@std@@PAX@1@$$QA_N@Z 00408bc0 f i DraggingDemo.obj
 0001:00007c10       ??$?0U?$_Tree_node@U?$pair@$$CBV?$basic_string@DU?$char_traits@D@std@@V?$allocator@D@2@@std@@V?$shared_ptr@VRawImageData@@@2@@std@@PAX@std@@@?$allocator@U_Container_proxy@std@@@std@@QAE@ABV?$allocator@U?$_Tree_node@U?$pair@$$CBV?$basic_string@DU?$char_traits@D@std@@V?$allocator@D@2@@std@@V?$shared_ptr@VRawImageData@@@2@@std@@PAX@std@@@1@@Z 00408c10 f i DraggingDemo.obj
 0001:00007c30       ??$?0U?$_Tree_node@U?$pair@$$CBV?$basic_string@DU?$char_traits@D@std@@V?$allocator@D@2@@std@@V?$weak_ptr@VRawImageData@@@2@@std@@PAX@std@@@?$allocator@U_Container_proxy@std@@@std@@QAE@ABV?$allocator@U?$_Tree_node@U?$pair@$$CBV?$basic_string@DU?$char_traits@D@std@@V?$allocator@D@2@@std@@V?$weak_ptr@VRawImageData@@@2@@std@@PAX@std@@@1@@Z 00408c30 f i DraggingDemo.obj
 0001:00007c50       ??$?0U?$pair@V?$basic_string@DU?$char_traits@D@std@@V?$allocator@D@2@@std@@V?$shared_ptr@VRawImageData@@@2@@std@@@?$_Tree_temp_node@V?$allocator@U?$_Tree_node@U?$pair@$$CBV?$basic_string@DU?$char_traits@D@std@@V?$allocator@D@2@@std@@V?$shared_ptr@VRawImageData@@@2@@std@@PAX@std@@@std@@@std@@QAE@AAV?$allocator@U?$_Tree_node@U?$pair@$$CBV?$basic_string@DU?$char_traits@D@std@@V?$allocator@D@2@@std@@V?$shared_ptr@VRawImageData@@@2@@std@@PAX@std@@@1@PAU?$_Tree_node@U?$pair@$$CBV?$basic_string@DU?$char_traits@D@std@@V?$allocator@D@2@@std@@V?$shared_ptr@VRawImageData@@@2@@std@@PAX@1@$$QAU?$pair@V?$basic_string@DU?$char_traits@D@std@@V?$allocator@D@2@@std@@V?$shared_ptr@VRawImageData@@@2@@1@@Z 00408c50 f i DraggingDemo.obj
 0001:00007d30       ??$construct@PAVDisplayableObject@@ABQAV1@@?$_Default_allocator_traits@V?$allocator@PAVDisplayableObject@@@std@@@std@@SAXAAV?$allocator@PAVDisplayableObject@@@1@QAPAVDisplayableObject@@ABQAV3@@Z 00408d30 f i gameState.obj
 0001:00007d60       ??$?0U?$pair@V?$basic_string@DU?$char_traits@D@std@@V?$allocator@D@2@@std@@V?$weak_ptr@VRawImageData@@@2@@std@@@?$_Tree_temp_node@V?$allocator@U?$_Tree_node@U?$pair@$$CBV?$basic_string@DU?$char_traits@D@std@@V?$allocator@D@2@@std@@V?$weak_ptr@VRawImageData@@@2@@std@@PAX@std@@@std@@@std@@QAE@AAV?$allocator@U?$_Tree_node@U?$pair@$$CBV?$basic_string@DU?$char_traits@D@std@@V?$allocator@D@2@@std@@V?$weak_ptr@VRawImageData@@@2@@std@@PAX@std@@@1@PAU?$_Tree_node@U?$pair@$$CBV?$basic_string@DU?$char_traits@D@std@@V?$allocator@D@2@@std@@V?$weak_ptr@VRawImageData@@@2@@std@@PAX@1@$$QAU?$pair@V?$basic_string@DU?$char_traits@D@std@@V?$allocator@D@2@@std@@V?$weak_ptr@VRawImageData@@@2@@1@@Z 00408d60 f i DraggingDemo.obj
 0001:00007e40       ?erase@?$basic_string@DU?$char_traits@D@std@@V?$allocator@D@2@@std@@QAEAAV12@II@Z 00408e40 f i gameState.obj
 0001:00007e70       ??$?0V?$_Tree_iterator@V?$_Tree_val@U?$_Tree_simple_types@U?$pair@$$CBV?$basic_string@DU?$char_traits@D@std@@V?$allocator@D@2@@std@@V?$shared_ptr@VRawImageData@@@2@@std@@@std@@@std@@@std@@AB_N$0A@@?$pair@V?$_Tree_iterator@V?$_Tree_val@U?$_Tree_simple_types@U?$pair@$$CBV?$basic_string@DU?$char_traits@D@std@@V?$allocator@D@2@@std@@V?$shared_ptr@VRawImageData@@@2@@std@@@std@@@std@@@std@@_N@std@@QAE@$$QAV?$_Tree_iterator@V?$_Tree_val@U?$_Tree_simple_types@U?$pair@$$CBV?$basic_string@DU?$char_traits@D@std@@V?$allocator@D@2@@std@@V?$shared_ptr@VRawImageData@@@2@@std@@@std@@@std@@@1@AB_N@Z 00408e70 f i DraggingDemo.obj
 0001:00007ec0       ??$?0V?$_Tree_iterator@V?$_Tree_val@U?$_Tree_simple_types@U?$pair@$$CBV?$basic_string@DU?$char_traits@D@std@@V?$allocator@D@2@@std@@V?$weak_ptr@VRawImageData@@@2@@std@@@std@@@std@@@std@@AB_N$0A@@?$pair@V?$_Tree_iterator@V?$_Tree_val@U?$_Tree_simple_types@U?$pair@$$CBV?$basic_string@DU?$char_traits@D@std@@V?$allocator@D@2@@std@@V?$weak_ptr@VRawImageData@@@2@@std@@@std@@@std@@@std@@_N@std@@QAE@$$QAV?$_Tree_iterator@V?$_Tree_val@U?$_Tree_simple_types@U?$pair@$$CBV?$basic_string@DU?$char_traits@D@std@@V?$allocator@D@2@@std@@V?$weak_ptr@VRawImageData@@@2@@std@@@std@@@std@@@1@AB_N@Z 00408ec0 f i DraggingDemo.obj
 0001:00007f10       ??$?0V?$allocator@D@std@@$$V@?$_Compressed_pair@V?$allocator@D@std@@V?$_String_val@U?$_Simple_types@D@std@@@2@$00@std@@QAE@U_One_then_variadic_args_t@1@$$QAV?$allocator@D@1@@Z 00408f10 f i DraggingDemo.obj
 0001:00007f40       ??$?0V?$basic_string@DU?$char_traits@D@std@@V?$allocator@D@2@@std@@V?$shared_ptr@VRawImageData@@@1@$0A@@?$pair@$$CBV?$basic_string@DU?$char_traits@D@std@@V?$allocator@D@2@@std@@V?$shared_ptr@VRawImageData@@@2@@std@@QAE@$$QAU?$pair@V?$basic_string@DU?$char_traits@D@std@@V?$allocator@D@2@@std@@V?$shared_ptr@VRawImageData@@@2@@1@@Z 00408f40 f i DraggingDemo.obj
 0001:00007fa0       ??$?0V?$basic_string@DU?$char_traits@D@std@@V?$allocator@D@2@@std@@V?$weak_ptr@VRawImageData@@@1@$0A@@?$pair@$$CBV?$basic_string@DU?$char_traits@D@std@@V?$allocator@D@2@@std@@V?$weak_ptr@VRawImageData@@@2@@std@@QAE@$$QAU?$pair@V?$basic_string@DU?$char_traits@D@std@@V?$allocator@D@2@@std@@V?$weak_ptr@VRawImageData@@@2@@1@@Z 00408fa0 f i DraggingDemo.obj
 0001:00008000       ??$?0VRawImageData@@$0A@@?$shared_ptr@VRawImageData@@@std@@QAE@PAVRawImageData@@@Z 00409000 f i DraggingDemo.obj
 0001:000080c0       ?eq@?$_Narrow_char_traits@DH@std@@SA_NDD@Z 004090c0 f i gameState.obj
 0001:000080f0       ??$?0VRawImageData@@$0A@@?$weak_ptr@VRawImageData@@@std@@QAE@ABV?$shared_ptr@VRawImageData@@@1@@Z 004090f0 f i DraggingDemo.obj
 0001:00008120       ??$?6DU?$char_traits@D@std@@V?$allocator@D@1@@std@@YAAAV?$basic_ostream@DU?$char_traits@D@std@@@0@AAV10@ABV?$basic_string@DU?$char_traits@D@std@@V?$allocator@D@2@@0@@Z 00409120 f i DraggingDemo.obj
 0001:00008150       ??$?6U?$char_traits@D@std@@@std@@YAAAV?$basic_ostream@DU?$char_traits@D@std@@@0@AAV10@PBD@Z 00409150 f i DraggingDemo.obj
 0001:00008440       ??$construct@PAVPsyeb10Enemy@@ABQAV1@@?$_Default_allocator_traits@V?$allocator@PAVPsyeb10Enemy@@@std@@@std@@SAXAAV?$allocator@PAVPsyeb10Enemy@@@1@QAPAVPsyeb10Enemy@@ABQAV3@@Z 00409440 f i gameState.obj
 0001:00008470       ??0?$fpos@U_Mbstatet@@@std@@QAE@_J@Z 00409470 f i gameState.obj
 0001:000084b0       ?getDrawWidth@DisplayableObject@@QBEHXZ 004094b0 f i gameState.obj
 0001:000084d0       ?push_back@?$vector@VSimpleImage@@V?$allocator@VSimpleImage@@@std@@@std@@QAEXABVSimpleImage@@@Z 004094d0 f i MainCharacter.obj
 0001:000084f0       ??$?9VRawImageData@@@std@@YA_NABV?$shared_ptr@VRawImageData@@@0@$$T@Z 004094f0 f i DraggingDemo.obj
 0001:00008530       ??$?CVRawImageData@@$0A@@?$shared_ptr@VRawImageData@@@std@@QBEPAVRawImageData@@XZ 00409530 f i DraggingDemo.obj
 0001:00008550       ??$?MDU?$char_traits@D@std@@V?$allocator@D@1@@std@@YA_NABV?$basic_string@DU?$char_traits@D@std@@V?$allocator@D@2@@0@0@Z 00409550 f i DraggingDemo.obj
 0001:00008590       ??$_Alloc_proxy@V?$allocator@U_Container_proxy@std@@@std@@@_Container_base12@std@@QAEX$$QAV?$allocator@U_Container_proxy@std@@@1@@Z 00409590 f i DraggingDemo.obj
 0001:000085f0       ??$_Allocate@$07U_Default_allocate_traits@std@@@std@@YAPAXI@Z 004095f0 f i DraggingDemo.obj
 0001:00008630       ??$_Allocate_at_least_helper@V?$allocator@D@std@@@std@@YAPADAAV?$allocator@D@0@AAI@Z 00409630 f i DraggingDemo.obj
 0001:00008650       ??$_Allocate_at_least_helper@V?$allocator@PAVDisplayableObject@@@std@@@std@@YAPAPAVDisplayableObject@@AAV?$allocator@PAVDisplayableObject@@@0@AAI@Z 00409650 f i DraggingDemo.obj
 0001:00008670       ??$_Allocate_for_capacity@$0A@@?$basic_string@DU?$char_traits@D@std@@V?$allocator@D@2@@std@@CAPADAAV?$allocator@D@1@AAI@Z 00409670 f i DraggingDemo.obj
 0001:000086c0       ??$_Allocate_manually_vector_aligned@U_Default_allocate_traits@std@@@std@@YAPAXI@Z 004096c0 f i DraggingDemo.obj
 0001:00008780       ??Y?$basic_string@DU?$char_traits@D@std@@V?$allocator@D@2@@std@@QAEAAV01@D@Z 00409780 f i gameState.obj
 0001:000087b0       ??$_Buyheadnode@V?$allocator@U?$_Tree_node@U?$pair@$$CBV?$basic_string@DU?$char_traits@D@std@@V?$allocator@D@2@@std@@V?$shared_ptr@VRawImageData@@@2@@std@@PAX@std@@@std@@@?$_Tree_node@U?$pair@$$CBV?$basic_string@DU?$char_traits@D@std@@V?$allocator@D@2@@std@@V?$shared_ptr@VRawImageData@@@2@@std@@PAX@std@@SAPAU01@AAV?$allocator@U?$_Tree_node@U?$pair@$$CBV?$basic_string@DU?$char_traits@D@std@@V?$allocator@D@2@@std@@V?$shared_ptr@VRawImageData@@@2@@std@@PAX@std@@@1@@Z 004097b0 f i DraggingDemo.obj
 0001:00008830       ??$_Buyheadnode@V?$allocator@U?$_Tree_node@U?$pair@$$CBV?$basic_string@DU?$char_traits@D@std@@V?$allocator@D@2@@std@@V?$weak_ptr@VRawImageData@@@2@@std@@PAX@std@@@std@@@?$_Tree_node@U?$pair@$$CBV?$basic_string@DU?$char_traits@D@std@@V?$allocator@D@2@@std@@V?$weak_ptr@VRawImageData@@@2@@std@@PAX@std@@SAPAU01@AAV?$allocator@U?$_Tree_node@U?$pair@$$CBV?$basic_string@DU?$char_traits@D@std@@V?$allocator@D@2@@std@@V?$weak_ptr@VRawImageData@@@2@@std@@PAX@std@@@1@@Z 00409830 f i DraggingDemo.obj
 0001:000088b0       ??$_Construct@$00PBD@?$basic_string@DU?$char_traits@D@std@@V?$allocator@D@2@@std@@AAEXQBDI@Z 004098b0 f i DraggingDemo.obj
 0001:00008a50       ??$_Search_vectorized@$$CBD$$CBD@std@@YAPBDQBD00I@Z 00409a50 f i gameState.obj
 0001:00008a70       ?end@?$vector@PAVDisplayableObject@@V?$allocator@PAVDisplayableObject@@@std@@@std@@QBE?AV?$_Vector_const_iterator@V?$_Vector_val@U?$_Simple_types@PAVDisplayableObject@@@std@@@std@@@2@XZ 00409a70 f i gameState.obj
 0001:00008ab0       ??$_Construct@$01PBD@?$basic_string@DU?$char_traits@D@std@@V?$allocator@D@2@@std@@AAEXQBDI@Z 00409ab0 f i DraggingDemo.obj
 0001:00008c10       ??_EmenuTileManager@@UAEPAXI@Z 00409c10 f i gameState.obj
 0001:00008c10       ??_GmenuTileManager@@UAEPAXI@Z 00409c10 f i gameState.obj
 0001:00008c40       ?getYCentre@DisplayableObject@@QBEHXZ 00409c40 f i gameState.obj
 0001:00008c70       ??$_Construct_from_weak@VRawImageData@@@?$_Ptr_base@VRawImageData@@@std@@IAE_NABV?$weak_ptr@VRawImageData@@@1@@Z 00409c70 f i DraggingDemo.obj
 0001:00008cd0       ??$_Construct_in_place@PADAAPAD@std@@YAXAAPAD0@Z 00409cd0 f i DraggingDemo.obj
 0001:00008d20       ??$_Construct_in_place@PADABQAD@std@@YAXAAPADABQAD@Z 00409d20 f i DraggingDemo.obj
 0001:00008d70       ??$_Construct_in_place@PAU?$_Tree_node@U?$pair@$$CBV?$basic_string@DU?$char_traits@D@std@@V?$allocator@D@2@@std@@V?$shared_ptr@VRawImageData@@@2@@std@@PAX@std@@AAPAU12@@std@@YAXAAPAU?$_Tree_node@U?$pair@$$CBV?$basic_string@DU?$char_traits@D@std@@V?$allocator@D@2@@std@@V?$shared_ptr@VRawImageData@@@2@@std@@PAX@0@0@Z 00409d70 f i DraggingDemo.obj
 0001:00008dc0       ??$_Construct_in_place@PAU?$_Tree_node@U?$pair@$$CBV?$basic_string@DU?$char_traits@D@std@@V?$allocator@D@2@@std@@V?$shared_ptr@VRawImageData@@@2@@std@@PAX@std@@ABQAU12@@std@@YAXAAPAU?$_Tree_node@U?$pair@$$CBV?$basic_string@DU?$char_traits@D@std@@V?$allocator@D@2@@std@@V?$shared_ptr@VRawImageData@@@2@@std@@PAX@0@ABQAU10@@Z 00409dc0 f i DraggingDemo.obj
 0001:00008e10       ??$_Construct_in_place@PAU?$_Tree_node@U?$pair@$$CBV?$basic_string@DU?$char_traits@D@std@@V?$allocator@D@2@@std@@V?$weak_ptr@VRawImageData@@@2@@std@@PAX@std@@AAPAU12@@std@@YAXAAPAU?$_Tree_node@U?$pair@$$CBV?$basic_string@DU?$char_traits@D@std@@V?$allocator@D@2@@std@@V?$weak_ptr@VRawImageData@@@2@@std@@PAX@0@0@Z 00409e10 f i DraggingDemo.obj
 0001:00008e60       ??$_Construct_in_place@PAU?$_Tree_node@U?$pair@$$CBV?$basic_string@DU?$char_traits@D@std@@V?$allocator@D@2@@std@@V?$weak_ptr@VRawImageData@@@2@@std@@PAX@std@@ABQAU12@@std@@YAXAAPAU?$_Tree_node@U?$pair@$$CBV?$basic_string@DU?$char_traits@D@std@@V?$allocator@D@2@@std@@V?$weak_ptr@VRawImageData@@@2@@std@@PAX@0@ABQAU10@@Z 00409e60 f i DraggingDemo.obj
 0001:00008eb0       ??$_Construct_in_place@U_Container_proxy@std@@PAU_Container_base12@2@@std@@YAXAAU_Container_proxy@0@$$QAPAU_Container_base12@0@@Z 00409eb0 f i DraggingDemo.obj
 0001:00008f00       ??$_Convert_size@II@std@@YAII@Z 00409f00 f i DraggingDemo.obj
 0001:00008f10       ??$_Copy_construct_from@VRawImageData@@@?$_Ptr_base@VRawImageData@@@std@@IAEXABV?$shared_ptr@VRawImageData@@@1@@Z 00409f10 f i DraggingDemo.obj
 0001:00008f50       ??$_Copy_memmove@PAPAVDisplayableObject@@PAPAV1@@std@@YAPAPAVDisplayableObject@@PAPAV1@00@Z 00409f50 f i DraggingDemo.obj
 0001:00008fe0       ??$_Copy_memmove_tail@PAPAVDisplayableObject@@@std@@YAPAPAVDisplayableObject@@QBDQAPAV1@II@Z 00409fe0 f i DraggingDemo.obj
 0001:00009030       ??$_Deallocate@$07@std@@YAXPAXI@Z 0040a030 f i DraggingDemo.obj
 0001:000090b0       ??$_Deallocate_plain@V?$allocator@U_Container_proxy@std@@@std@@@std@@YAXAAV?$allocator@U_Container_proxy@std@@@0@QAU_Container_proxy@0@@Z 0040a0b0 f i DraggingDemo.obj
 0001:000090d0       ??$_Debug_lt_pred@ABU?$less@V?$basic_string@DU?$char_traits@D@std@@V?$allocator@D@2@@std@@@std@@ABV?$basic_string@DU?$char_traits@D@std@@V?$allocator@D@2@@2@ABV32@@std@@YA_NABU?$less@V?$basic_string@DU?$char_traits@D@std@@V?$allocator@D@2@@std@@@0@ABV?$basic_string@DU?$char_traits@D@std@@V?$allocator@D@2@@0@1@Z 0040a0d0 f i DraggingDemo.obj
 0001:00009160       ??$construct@PAVPsyeb10Enemy@@PAV1@@?$_Default_allocator_traits@V?$allocator@PAVPsyeb10Enemy@@@std@@@std@@SAXAAV?$allocator@PAVPsyeb10Enemy@@@1@QAPAVPsyeb10Enemy@@$$QAPAV3@@Z 0040a160 f i gameState.obj
 0001:00009190       ??$_Delete_plain_internal@V?$allocator@U_Container_proxy@std@@@std@@@std@@YAXAAV?$allocator@U_Container_proxy@std@@@0@QAU_Container_proxy@0@@Z 0040a190 f i DraggingDemo.obj
 0001:000091b0       ??$_Destroy_in_place@PAD@std@@YAXAAPAD@Z 0040a1b0 f i DraggingDemo.obj
 0001:000091c0       ??$_Destroy_in_place@PAU?$_Tree_node@U?$pair@$$CBV?$basic_string@DU?$char_traits@D@std@@V?$allocator@D@2@@std@@V?$shared_ptr@VRawImageData@@@2@@std@@PAX@std@@@std@@YAXAAPAU?$_Tree_node@U?$pair@$$CBV?$basic_string@DU?$char_traits@D@std@@V?$allocator@D@2@@std@@V?$shared_ptr@VRawImageData@@@2@@std@@PAX@0@@Z 0040a1c0 f i DraggingDemo.obj
 0001:000091d0       ??$_Destroy_in_place@PAU?$_Tree_node@U?$pair@$$CBV?$basic_string@DU?$char_traits@D@std@@V?$allocator@D@2@@std@@V?$weak_ptr@VRawImageData@@@2@@std@@PAX@std@@@std@@YAXAAPAU?$_Tree_node@U?$pair@$$CBV?$basic_string@DU?$char_traits@D@std@@V?$allocator@D@2@@std@@V?$weak_ptr@VRawImageData@@@2@@std@@PAX@0@@Z 0040a1d0 f i DraggingDemo.obj
 0001:000091e0       ??$_Destroy_range@V?$allocator@PAVDisplayableObject@@@std@@@std@@YAXPAPAVDisplayableObject@@QAPAV1@AAV?$allocator@PAVDisplayableObject@@@0@@Z 0040a1e0 f i DraggingDemo.obj
 0001:000091f0       ??$_Emplace@U?$pair@V?$basic_string@DU?$char_traits@D@std@@V?$allocator@D@2@@std@@V?$shared_ptr@VRawImageData@@@2@@std@@@?$_Tree@V?$_Tmap_traits@V?$basic_string@DU?$char_traits@D@std@@V?$allocator@D@2@@std@@V?$shared_ptr@VRawImageData@@@2@U?$less@V?$basic_string@DU?$char_traits@D@std@@V?$allocator@D@2@@std@@@2@V?$allocator@U?$pair@$$CBV?$basic_string@DU?$char_traits@D@std@@V?$allocator@D@2@@std@@V?$shared_ptr@VRawImageData@@@2@@std@@@2@$0A@@std@@@std@@IAE?AU?$pair@PAU?$_Tree_node@U?$pair@$$CBV?$basic_string@DU?$char_traits@D@std@@V?$allocator@D@2@@std@@V?$shared_ptr@VRawImageData@@@2@@std@@PAX@std@@_N@1@$$QAU?$pair@V?$basic_string@DU?$char_traits@D@std@@V?$allocator@D@2@@std@@V?$shared_ptr@VRawImageData@@@2@@1@@Z 0040a1f0 f i DraggingDemo.obj
 0001:000092e0       ??1pauseState@@UAE@XZ      0040a2e0 f i gameState.obj
 0001:00009320       ??$_Emplace@U?$pair@V?$basic_string@DU?$char_traits@D@std@@V?$allocator@D@2@@std@@V?$weak_ptr@VRawImageData@@@2@@std@@@?$_Tree@V?$_Tmap_traits@V?$basic_string@DU?$char_traits@D@std@@V?$allocator@D@2@@std@@V?$weak_ptr@VRawImageData@@@2@U?$less@V?$basic_string@DU?$char_traits@D@std@@V?$allocator@D@2@@std@@@2@V?$allocator@U?$pair@$$CBV?$basic_string@DU?$char_traits@D@std@@V?$allocator@D@2@@std@@V?$weak_ptr@VRawImageData@@@2@@std@@@2@$0A@@std@@@std@@IAE?AU?$pair@PAU?$_Tree_node@U?$pair@$$CBV?$basic_string@DU?$char_traits@D@std@@V?$allocator@D@2@@std@@V?$weak_ptr@VRawImageData@@@2@@std@@PAX@std@@_N@1@$$QAU?$pair@V?$basic_string@DU?$char_traits@D@std@@V?$allocator@D@2@@std@@V?$weak_ptr@VRawImageData@@@2@@1@@Z 0040a320 f i DraggingDemo.obj
 0001:00009410       ??B?$fpos@U_Mbstatet@@@std@@QBE_JXZ 0040a410 f i gameState.obj
 0001:00009450       ??$_Emplace_back@$$V@?$_Uninitialized_backout_al@V?$allocator@PAVDisplayableObject@@@std@@@std@@QAEXXZ 0040a450 f i DraggingDemo.obj
 0001:000094a0       ??$_Emplace_back@PAVDisplayableObject@@@?$_Uninitialized_backout_al@V?$allocator@PAVDisplayableObject@@@std@@@std@@QAEX$$QAPAVDisplayableObject@@@Z 0040a4a0 f i DraggingDemo.obj
 0001:00009500       ??$_Erase_head@V?$allocator@U?$_Tree_node@U?$pair@$$CBV?$basic_string@DU?$char_traits@D@std@@V?$allocator@D@2@@std@@V?$weak_ptr@VRawImageData@@@2@@std@@PAX@std@@@std@@@?$_Tree_val@U?$_Tree_simple_types@U?$pair@$$CBV?$basic_string@DU?$char_traits@D@std@@V?$allocator@D@2@@std@@V?$weak_ptr@VRawImageData@@@2@@std@@@std@@@std@@QAEXAAV?$allocator@U?$_Tree_node@U?$pair@$$CBV?$basic_string@DU?$char_traits@D@std@@V?$allocator@D@2@@std@@V?$weak_ptr@VRawImageData@@@2@@std@@PAX@std@@@1@@Z 0040a500 f i DraggingDemo.obj
 0001:00009550       ??$_Erase_tree@V?$allocator@U?$_Tree_node@U?$pair@$$CBV?$basic_string@DU?$char_traits@D@std@@V?$allocator@D@2@@std@@V?$weak_ptr@VRawImageData@@@2@@std@@PAX@std@@@std@@@?$_Tree_val@U?$_Tree_simple_types@U?$pair@$$CBV?$basic_string@DU?$char_traits@D@std@@V?$allocator@D@2@@std@@V?$weak_ptr@VRawImageData@@@2@@std@@@std@@@std@@QAEXAAV?$allocator@U?$_Tree_node@U?$pair@$$CBV?$basic_string@DU?$char_traits@D@std@@V?$allocator@D@2@@std@@V?$weak_ptr@VRawImageData@@@2@@std@@PAX@std@@@1@PAU?$_Tree_node@U?$pair@$$CBV?$basic_string@DU?$char_traits@D@std@@V?$allocator@D@2@@std@@V?$weak_ptr@VRawImageData@@@2@@std@@PAX@1@@Z 0040a550 f i DraggingDemo.obj
 0001:000095b0       ??$_Find@V?$basic_string@DU?$char_traits@D@std@@V?$allocator@D@2@@std@@@?$_Tree@V?$_Tmap_traits@V?$basic_string@DU?$char_traits@D@std@@V?$allocator@D@2@@std@@V?$weak_ptr@VRawImageData@@@2@U?$less@V?$basic_string@DU?$char_traits@D@std@@V?$allocator@D@2@@std@@@2@V?$allocator@U?$pair@$$CBV?$basic_string@DU?$char_traits@D@std@@V?$allocator@D@2@@std@@V?$weak_ptr@VRawImageData@@@2@@std@@@2@$0A@@std@@@std@@ABEPAU?$_Tree_node@U?$pair@$$CBV?$basic_string@DU?$char_traits@D@std@@V?$allocator@D@2@@std@@V?$weak_ptr@VRawImageData@@@2@@std@@PAX@1@ABV?$basic_string@DU?$char_traits@D@std@@V?$allocator@D@2@@1@@Z 0040a5b0 f i DraggingDemo.obj
 0001:00009610       ??$_Find_lower_bound@V?$basic_string@DU?$char_traits@D@std@@V?$allocator@D@2@@std@@@?$_Tree@V?$_Tmap_traits@V?$basic_string@DU?$char_traits@D@std@@V?$allocator@D@2@@std@@V?$shared_ptr@VRawImageData@@@2@U?$less@V?$basic_string@DU?$char_traits@D@std@@V?$allocator@D@2@@std@@@2@V?$allocator@U?$pair@$$CBV?$basic_string@DU?$char_traits@D@std@@V?$allocator@D@2@@std@@V?$shared_ptr@VRawImageData@@@2@@std@@@2@$0A@@std@@@std@@IBE?AU?$_Tree_find_result@PAU?$_Tree_node@U?$pair@$$CBV?$basic_string@DU?$char_traits@D@std@@V?$allocator@D@2@@std@@V?$shared_ptr@VRawImageData@@@2@@std@@PAX@std@@@1@ABV?$basic_string@DU?$char_traits@D@std@@V?$allocator@D@2@@1@@Z 0040a610 f i DraggingDemo.obj
 0001:00009700       ??$_Find_lower_bound@V?$basic_string@DU?$char_traits@D@std@@V?$allocator@D@2@@std@@@?$_Tree@V?$_Tmap_traits@V?$basic_string@DU?$char_traits@D@std@@V?$allocator@D@2@@std@@V?$weak_ptr@VRawImageData@@@2@U?$less@V?$basic_string@DU?$char_traits@D@std@@V?$allocator@D@2@@std@@@2@V?$allocator@U?$pair@$$CBV?$basic_string@DU?$char_traits@D@std@@V?$allocator@D@2@@std@@V?$weak_ptr@VRawImageData@@@2@@std@@@2@$0A@@std@@@std@@IBE?AU?$_Tree_find_result@PAU?$_Tree_node@U?$pair@$$CBV?$basic_string@DU?$char_traits@D@std@@V?$allocator@D@2@@std@@V?$weak_ptr@VRawImageData@@@2@@std@@PAX@std@@@1@ABV?$basic_string@DU?$char_traits@D@std@@V?$allocator@D@2@@1@@Z 0040a700 f i DraggingDemo.obj
 0001:000097c0       ??$max@PAD@std@@YAABQADABQAD0@Z 0040a7c0 f i gameState.obj
 0001:000097f0       ??$_Freenode0@V?$allocator@U?$_Tree_node@U?$pair@$$CBV?$basic_string@DU?$char_traits@D@std@@V?$allocator@D@2@@std@@V?$weak_ptr@VRawImageData@@@2@@std@@PAX@std@@@std@@@?$_Tree_node@U?$pair@$$CBV?$basic_string@DU?$char_traits@D@std@@V?$allocator@D@2@@std@@V?$weak_ptr@VRawImageData@@@2@@std@@PAX@std@@SAXAAV?$allocator@U?$_Tree_node@U?$pair@$$CBV?$basic_string@DU?$char_traits@D@std@@V?$allocator@D@2@@std@@V?$weak_ptr@VRawImageData@@@2@@std@@PAX@std@@@1@PAU01@@Z 0040a7f0 f i DraggingDemo.obj
 0001:00009850       ??$_Freenode@V?$allocator@U?$_Tree_node@U?$pair@$$CBV?$basic_string@DU?$char_traits@D@std@@V?$allocator@D@2@@std@@V?$weak_ptr@VRawImageData@@@2@@std@@PAX@std@@@std@@@?$_Tree_node@U?$pair@$$CBV?$basic_string@DU?$char_traits@D@std@@V?$allocator@D@2@@std@@V?$weak_ptr@VRawImageData@@@2@@std@@PAX@std@@SAXAAV?$allocator@U?$_Tree_node@U?$pair@$$CBV?$basic_string@DU?$char_traits@D@std@@V?$allocator@D@2@@std@@V?$weak_ptr@VRawImageData@@@2@@std@@PAX@std@@@1@PAU01@@Z 0040a850 f i DraggingDemo.obj
 0001:000098d0       ??$_Get_size_of_n@$00@std@@YAII@Z 0040a8d0 f i DraggingDemo.obj
 0001:000098f0       ??$_Get_size_of_n@$03@std@@YAII@Z 0040a8f0 f i DraggingDemo.obj
 0001:00009930       ??$_Get_size_of_n@$07@std@@YAII@Z 0040a930 f i DraggingDemo.obj
 0001:00009970       ??$_Get_size_of_n@$0DE@@std@@YAII@Z 0040a970 f i DraggingDemo.obj
 0001:000099b0       ??$_Get_unwrapped@ABQAPAVDisplayableObject@@@std@@YA?A_TABQAPAVDisplayableObject@@@Z 0040a9b0 f i DraggingDemo.obj
 0001:000099c0       ??$_Insert_string@DU?$char_traits@D@std@@I@std@@YAAAV?$basic_ostream@DU?$char_traits@D@std@@@0@AAV10@QBDI@Z 0040a9c0 f i DraggingDemo.obj
 0001:00009c60       ??0?$_Vector_const_iterator@V?$_Vector_val@U?$_Simple_types@PAVDisplayableObject@@@std@@@std@@@std@@QAE@$$QAV01@@Z 0040ac60 f i gameState.obj
 0001:00009c90       ??0menuTileManager@@QAE@HHHH@Z 0040ac90 f i gameState.obj
 0001:00009d00       ??$_Kfn@$$CBV?$basic_string@DU?$char_traits@D@std@@V?$allocator@D@2@@std@@V?$shared_ptr@VRawImageData@@@2@@?$_Tmap_traits@V?$basic_string@DU?$char_traits@D@std@@V?$allocator@D@2@@std@@V?$shared_ptr@VRawImageData@@@2@U?$less@V?$basic_string@DU?$char_traits@D@std@@V?$allocator@D@2@@std@@@2@V?$allocator@U?$pair@$$CBV?$basic_string@DU?$char_traits@D@std@@V?$allocator@D@2@@std@@V?$shared_ptr@VRawImageData@@@2@@std@@@2@$0A@@std@@SAABV?$basic_string@DU?$char_traits@D@std@@V?$allocator@D@2@@1@ABU?$pair@$$CBV?$basic_string@DU?$char_traits@D@std@@V?$allocator@D@2@@std@@V?$shared_ptr@VRawImageData@@@2@@1@@Z 0040ad00 f i DraggingDemo.obj
 0001:00009d10       ??$_Kfn@$$CBV?$basic_string@DU?$char_traits@D@std@@V?$allocator@D@2@@std@@V?$weak_ptr@VRawImageData@@@2@@?$_Tmap_traits@V?$basic_string@DU?$char_traits@D@std@@V?$allocator@D@2@@std@@V?$weak_ptr@VRawImageData@@@2@U?$less@V?$basic_string@DU?$char_traits@D@std@@V?$allocator@D@2@@std@@@2@V?$allocator@U?$pair@$$CBV?$basic_string@DU?$char_traits@D@std@@V?$allocator@D@2@@std@@V?$weak_ptr@VRawImageData@@@2@@std@@@2@$0A@@std@@SAABV?$basic_string@DU?$char_traits@D@std@@V?$allocator@D@2@@1@ABU?$pair@$$CBV?$basic_string@DU?$char_traits@D@std@@V?$allocator@D@2@@std@@V?$weak_ptr@VRawImageData@@@2@@1@@Z 0040ad10 f i DraggingDemo.obj
 0001:00009d20       ??$_Lower_bound_duplicate@V?$basic_string@DU?$char_traits@D@std@@V?$allocator@D@2@@std@@@?$_Tree@V?$_Tmap_traits@V?$basic_string@DU?$char_traits@D@std@@V?$allocator@D@2@@std@@V?$shared_ptr@VRawImageData@@@2@U?$less@V?$basic_string@DU?$char_traits@D@std@@V?$allocator@D@2@@std@@@2@V?$allocator@U?$pair@$$CBV?$basic_string@DU?$char_traits@D@std@@V?$allocator@D@2@@std@@V?$shared_ptr@VRawImageData@@@2@@std@@@2@$0A@@std@@@std@@IBE_NQAU?$_Tree_node@U?$pair@$$CBV?$basic_string@DU?$char_traits@D@std@@V?$allocator@D@2@@std@@V?$shared_ptr@VRawImageData@@@2@@std@@PAX@1@ABV?$basic_string@DU?$char_traits@D@std@@V?$allocator@D@2@@1@@Z 0040ad20 f i DraggingDemo.obj
 0001:00009d90       ??$_Lower_bound_duplicate@V?$basic_string@DU?$char_traits@D@std@@V?$allocator@D@2@@std@@@?$_Tree@V?$_Tmap_traits@V?$basic_string@DU?$char_traits@D@std@@V?$allocator@D@2@@std@@V?$weak_ptr@VRawImageData@@@2@U?$less@V?$basic_string@DU?$char_traits@D@std@@V?$allocator@D@2@@std@@@2@V?$allocator@U?$pair@$$CBV?$basic_string@DU?$char_traits@D@std@@V?$allocator@D@2@@std@@V?$weak_ptr@VRawImageData@@@2@@std@@@2@$0A@@std@@@std@@IBE_NQAU?$_Tree_node@U?$pair@$$CBV?$basic_string@DU?$char_traits@D@std@@V?$allocator@D@2@@std@@V?$weak_ptr@VRawImageData@@@2@@std@@PAX@1@ABV?$basic_string@DU?$char_traits@D@std@@V?$allocator@D@2@@1@@Z 0040ad90 f i DraggingDemo.obj
 0001:00009e00       ??$_Max_limit@H@std@@YAHXZ 0040ae00 f i DraggingDemo.obj
 0001:00009e20       ??$_Move_construct_from@VRawImageData@@@?$_Ptr_base@VRawImageData@@@std@@IAEX$$QAV01@@Z 0040ae20 f i DraggingDemo.obj
 0001:00009e70       ??$_Resize@U_Value_init_tag@std@@@?$vector@PAVDisplayableObject@@V?$allocator@PAVDisplayableObject@@@std@@@std@@AAEXIABU_Value_init_tag@1@@Z 0040ae70 f i DraggingDemo.obj
 0001:00009fa0       ??$_Resize_reallocate@U_Value_init_tag@std@@@?$vector@PAVDisplayableObject@@V?$allocator@PAVDisplayableObject@@@std@@@std@@AAEXIABU_Value_init_tag@1@@Z 0040afa0 f i DraggingDemo.obj
 0001:0000a0e0       ?drawBackgroundRectangle@BaseEngine@@QAEXHHHHI@Z 0040b0e0 f i gameState.obj
 0001:0000a130       ??$_Set_ptr_rep_and_enable_shared@VRawImageData@@@?$shared_ptr@VRawImageData@@@std@@AAEXQAVRawImageData@@QAV_Ref_count_base@1@@Z 0040b130 f i DraggingDemo.obj
 0001:0000a160       ??$_To_address@PAPAVDisplayableObject@@@std@@YA?A_PABQAPAVDisplayableObject@@@Z 0040b160 f i DraggingDemo.obj
 0001:0000a170       ??$_Traits_compare@U?$char_traits@D@std@@@std@@YAHQBDI0I@Z 0040b170 f i DraggingDemo.obj
 0001:0000a1e0       ??$_Unfancy@D@std@@YAPADPAD@Z 0040b1e0 f i DraggingDemo.obj
 0001:0000a1f0       ??$_Unfancy@PAVDisplayableObject@@@std@@YAPAPAVDisplayableObject@@PAPAV1@@Z 0040b1f0 f i DraggingDemo.obj
 0001:0000a200       ??$_Unfancy@U_Container_proxy@std@@@std@@YAPAU_Container_proxy@0@PAU10@@Z 0040b200 f i DraggingDemo.obj
 0001:0000a210       ??$_Uninitialized_move@PAPAVDisplayableObject@@V?$allocator@PAVDisplayableObject@@@std@@@std@@YAPAPAVDisplayableObject@@QAPAV1@0PAPAV1@AAV?$allocator@PAVDisplayableObject@@@0@@Z 0040b210 f i DraggingDemo.obj
 0001:0000a2f0       ?find@?$basic_string@DU?$char_traits@D@std@@V?$allocator@D@2@@std@@QBEIQBDI@Z 0040b2f0 f i gameState.obj
 0001:0000a330       ??$_Uninitialized_value_construct_n@V?$allocator@PAVDisplayableObject@@@std@@@std@@YAPAPAVDisplayableObject@@PAPAV1@IAAV?$allocator@PAVDisplayableObject@@@0@@Z 0040b330 f i DraggingDemo.obj
 0001:0000a420       ??$_Weakly_construct_from@VRawImageData@@@?$_Ptr_base@VRawImageData@@@std@@IAEXABV01@@Z 0040b420 f i DraggingDemo.obj
 0001:0000a470       ??$_Zero_range@PAPAVDisplayableObject@@@std@@YAPAPAVDisplayableObject@@QAPAV1@0@Z 0040b470 f i DraggingDemo.obj
 0001:0000a4c0       ??$addressof@$$CBV?$_Tree_val@U?$_Tree_simple_types@U?$pair@$$CBV?$basic_string@DU?$char_traits@D@std@@V?$allocator@D@2@@std@@V?$shared_ptr@VRawImageData@@@2@@std@@@std@@@std@@@std@@YAPBV?$_Tree_val@U?$_Tree_simple_types@U?$pair@$$CBV?$basic_string@DU?$char_traits@D@std@@V?$allocator@D@2@@std@@V?$shared_ptr@VRawImageData@@@2@@std@@@std@@@0@ABV10@@Z 0040b4c0 f i DraggingDemo.obj
 0001:0000a4d0       ??$addressof@$$CBV?$_Tree_val@U?$_Tree_simple_types@U?$pair@$$CBV?$basic_string@DU?$char_traits@D@std@@V?$allocator@D@2@@std@@V?$weak_ptr@VRawImageData@@@2@@std@@@std@@@std@@@std@@YAPBV?$_Tree_val@U?$_Tree_simple_types@U?$pair@$$CBV?$basic_string@DU?$char_traits@D@std@@V?$allocator@D@2@@std@@V?$weak_ptr@VRawImageData@@@2@@std@@@std@@@0@ABV10@@Z 0040b4d0 f i DraggingDemo.obj
 0001:0000a4e0       ??$addressof@PAD@std@@YAPAPADAAPAD@Z 0040b4e0 f i DraggingDemo.obj
 0001:0000a4f0       ??$addressof@PAU?$_Tree_node@U?$pair@$$CBV?$basic_string@DU?$char_traits@D@std@@V?$allocator@D@2@@std@@V?$shared_ptr@VRawImageData@@@2@@std@@PAX@std@@@std@@YAPAPAU?$_Tree_node@U?$pair@$$CBV?$basic_string@DU?$char_traits@D@std@@V?$allocator@D@2@@std@@V?$shared_ptr@VRawImageData@@@2@@std@@PAX@0@AAPAU10@@Z 0040b4f0 f i DraggingDemo.obj
 0001:0000a500       ??$addressof@PAU?$_Tree_node@U?$pair@$$CBV?$basic_string@DU?$char_traits@D@std@@V?$allocator@D@2@@std@@V?$weak_ptr@VRawImageData@@@2@@std@@PAX@std@@@std@@YAPAPAU?$_Tree_node@U?$pair@$$CBV?$basic_string@DU?$char_traits@D@std@@V?$allocator@D@2@@std@@V?$weak_ptr@VRawImageData@@@2@@std@@PAX@0@AAPAU10@@Z 0040b500 f i DraggingDemo.obj
 0001:0000a510       ??$addressof@U?$pair@$$CBV?$basic_string@DU?$char_traits@D@std@@V?$allocator@D@2@@std@@V?$shared_ptr@VRawImageData@@@2@@std@@@std@@YAPAU?$pair@$$CBV?$basic_string@DU?$char_traits@D@std@@V?$allocator@D@2@@std@@V?$shared_ptr@VRawImageData@@@2@@0@AAU10@@Z 0040b510 f i DraggingDemo.obj
 0001:0000a520       ??$addressof@U?$pair@$$CBV?$basic_string@DU?$char_traits@D@std@@V?$allocator@D@2@@std@@V?$weak_ptr@VRawImageData@@@2@@std@@@std@@YAPAU?$pair@$$CBV?$basic_string@DU?$char_traits@D@std@@V?$allocator@D@2@@std@@V?$weak_ptr@VRawImageData@@@2@@0@AAU10@@Z 0040b520 f i DraggingDemo.obj
 0001:0000a530       ??$addressof@U_Container_base12@std@@@std@@YAPAU_Container_base12@0@AAU10@@Z 0040b530 f i DraggingDemo.obj
 0001:0000a540       ??$addressof@U_Container_proxy@std@@@std@@YAPAU_Container_proxy@0@AAU10@@Z 0040b540 f i DraggingDemo.obj
 0001:0000a550       ??$addressof@V?$_String_val@U?$_Simple_types@D@std@@@std@@@std@@YAPAV?$_String_val@U?$_Simple_types@D@std@@@0@AAV10@@Z 0040b550 f i DraggingDemo.obj
 0001:0000a560       ??$addressof@V?$_Tree_val@U?$_Tree_simple_types@U?$pair@$$CBV?$basic_string@DU?$char_traits@D@std@@V?$allocator@D@2@@std@@V?$shared_ptr@VRawImageData@@@2@@std@@@std@@@std@@@std@@YAPAV?$_Tree_val@U?$_Tree_simple_types@U?$pair@$$CBV?$basic_string@DU?$char_traits@D@std@@V?$allocator@D@2@@std@@V?$shared_ptr@VRawImageData@@@2@@std@@@std@@@0@AAV10@@Z 0040b560 f i DraggingDemo.obj
 0001:0000a570       ??$addressof@V?$_Tree_val@U?$_Tree_simple_types@U?$pair@$$CBV?$basic_string@DU?$char_traits@D@std@@V?$allocator@D@2@@std@@V?$weak_ptr@VRawImageData@@@2@@std@@@std@@@std@@@std@@YAPAV?$_Tree_val@U?$_Tree_simple_types@U?$pair@$$CBV?$basic_string@DU?$char_traits@D@std@@V?$allocator@D@2@@std@@V?$weak_ptr@VRawImageData@@@2@@std@@@std@@@0@AAV10@@Z 0040b570 f i DraggingDemo.obj
 0001:0000a580       ??$addressof@V?$basic_ostream@DU?$char_traits@D@std@@@std@@@std@@YAPAV?$basic_ostream@DU?$char_traits@D@std@@@0@AAV10@@Z 0040b580 f i DraggingDemo.obj
 0001:0000a590       ??$construct@PAVDisplayableObject@@$$V@?$_Default_allocator_traits@V?$allocator@PAVDisplayableObject@@@std@@@std@@SAXAAV?$allocator@PAVDisplayableObject@@@1@QAPAVDisplayableObject@@@Z 0040b590 f i DraggingDemo.obj
 0001:0000a5e0       ??$construct@PAVDisplayableObject@@PAV1@@?$_Default_allocator_traits@V?$allocator@PAVDisplayableObject@@@std@@@std@@SAXAAV?$allocator@PAVDisplayableObject@@@1@QAPAVDisplayableObject@@$$QAPAV3@@Z 0040b5e0 f i DraggingDemo.obj
 0001:0000a620       ??$construct@U?$pair@$$CBV?$basic_string@DU?$char_traits@D@std@@V?$allocator@D@2@@std@@V?$shared_ptr@VRawImageData@@@2@@std@@U?$pair@V?$basic_string@DU?$char_traits@D@std@@V?$allocator@D@2@@std@@V?$shared_ptr@VRawImageData@@@2@@2@@?$_Default_allocator_traits@V?$allocator@U?$_Tree_node@U?$pair@$$CBV?$basic_string@DU?$char_traits@D@std@@V?$allocator@D@2@@std@@V?$shared_ptr@VRawImageData@@@2@@std@@PAX@std@@@std@@@std@@SAXAAV?$allocator@U?$_Tree_node@U?$pair@$$CBV?$basic_string@DU?$char_traits@D@std@@V?$allocator@D@2@@std@@V?$shared_ptr@VRawImageData@@@2@@std@@PAX@std@@@1@QAU?$pair@$$CBV?$basic_string@DU?$char_traits@D@std@@V?$allocator@D@2@@std@@V?$shared_ptr@VRawImageData@@@2@@1@$$QAU?$pair@V?$basic_string@DU?$char_traits@D@std@@V?$allocator@D@2@@std@@V?$shared_ptr@VRawImageData@@@2@@1@@Z 0040b620 f i DraggingDemo.obj
 0001:0000a660       ??$construct@U?$pair@$$CBV?$basic_string@DU?$char_traits@D@std@@V?$allocator@D@2@@std@@V?$weak_ptr@VRawImageData@@@2@@std@@U?$pair@V?$basic_string@DU?$char_traits@D@std@@V?$allocator@D@2@@std@@V?$weak_ptr@VRawImageData@@@2@@2@@?$_Default_allocator_traits@V?$allocator@U?$_Tree_node@U?$pair@$$CBV?$basic_string@DU?$char_traits@D@std@@V?$allocator@D@2@@std@@V?$weak_ptr@VRawImageData@@@2@@std@@PAX@std@@@std@@@std@@SAXAAV?$allocator@U?$_Tree_node@U?$pair@$$CBV?$basic_string@DU?$char_traits@D@std@@V?$allocator@D@2@@std@@V?$weak_ptr@VRawImageData@@@2@@std@@PAX@std@@@1@QAU?$pair@$$CBV?$basic_string@DU?$char_traits@D@std@@V?$allocator@D@2@@std@@V?$weak_ptr@VRawImageData@@@2@@1@$$QAU?$pair@V?$basic_string@DU?$char_traits@D@std@@V?$allocator@D@2@@std@@V?$weak_ptr@VRawImageData@@@2@@1@@Z 0040b660 f i DraggingDemo.obj
 0001:0000a6a0       ??$destroy@U?$pair@$$CBV?$basic_string@DU?$char_traits@D@std@@V?$allocator@D@2@@std@@V?$shared_ptr@VRawImageData@@@2@@std@@@?$_Default_allocator_traits@V?$allocator@U?$_Tree_node@U?$pair@$$CBV?$basic_string@DU?$char_traits@D@std@@V?$allocator@D@2@@std@@V?$shared_ptr@VRawImageData@@@2@@std@@PAX@std@@@std@@@std@@SAXAAV?$allocator@U?$_Tree_node@U?$pair@$$CBV?$basic_string@DU?$char_traits@D@std@@V?$allocator@D@2@@std@@V?$shared_ptr@VRawImageData@@@2@@std@@PAX@std@@@1@QAU?$pair@$$CBV?$basic_string@DU?$char_traits@D@std@@V?$allocator@D@2@@std@@V?$shared_ptr@VRawImageData@@@2@@1@@Z 0040b6a0 f i DraggingDemo.obj
 0001:0000a6c0       ??$destroy@U?$pair@$$CBV?$basic_string@DU?$char_traits@D@std@@V?$allocator@D@2@@std@@V?$weak_ptr@VRawImageData@@@2@@std@@@?$_Default_allocator_traits@V?$allocator@U?$_Tree_node@U?$pair@$$CBV?$basic_string@DU?$char_traits@D@std@@V?$allocator@D@2@@std@@V?$weak_ptr@VRawImageData@@@2@@std@@PAX@std@@@std@@@std@@SAXAAV?$allocator@U?$_Tree_node@U?$pair@$$CBV?$basic_string@DU?$char_traits@D@std@@V?$allocator@D@2@@std@@V?$weak_ptr@VRawImageData@@@2@@std@@PAX@std@@@1@QAU?$pair@$$CBV?$basic_string@DU?$char_traits@D@std@@V?$allocator@D@2@@std@@V?$weak_ptr@VRawImageData@@@2@@1@@Z 0040b6c0 f i DraggingDemo.obj
 0001:0000a6e0       ??$emplace@U?$pair@V?$basic_string@DU?$char_traits@D@std@@V?$allocator@D@2@@std@@V?$shared_ptr@VRawImageData@@@2@@std@@@?$_Tree@V?$_Tmap_traits@V?$basic_string@DU?$char_traits@D@std@@V?$allocator@D@2@@std@@V?$shared_ptr@VRawImageData@@@2@U?$less@V?$basic_string@DU?$char_traits@D@std@@V?$allocator@D@2@@std@@@2@V?$allocator@U?$pair@$$CBV?$basic_string@DU?$char_traits@D@std@@V?$allocator@D@2@@std@@V?$shared_ptr@VRawImageData@@@2@@std@@@2@$0A@@std@@@std@@QAE?AU?$pair@V?$_Tree_iterator@V?$_Tree_val@U?$_Tree_simple_types@U?$pair@$$CBV?$basic_string@DU?$char_traits@D@std@@V?$allocator@D@2@@std@@V?$shared_ptr@VRawImageData@@@2@@std@@@std@@@std@@@std@@_N@1@$$QAU?$pair@V?$basic_string@DU?$char_traits@D@std@@V?$allocator@D@2@@std@@V?$shared_ptr@VRawImageData@@@2@@1@@Z 0040b6e0 f i DraggingDemo.obj
 0001:0000a750       ?getMapWidth@TileManager@@QBEHXZ 0040b750 f i gameState.obj
 0001:0000a770       ??$emplace@U?$pair@V?$basic_string@DU?$char_traits@D@std@@V?$allocator@D@2@@std@@V?$weak_ptr@VRawImageData@@@2@@std@@@?$_Tree@V?$_Tmap_traits@V?$basic_string@DU?$char_traits@D@std@@V?$allocator@D@2@@std@@V?$weak_ptr@VRawImageData@@@2@U?$less@V?$basic_string@DU?$char_traits@D@std@@V?$allocator@D@2@@std@@@2@V?$allocator@U?$pair@$$CBV?$basic_string@DU?$char_traits@D@std@@V?$allocator@D@2@@std@@V?$weak_ptr@VRawImageData@@@2@@std@@@2@$0A@@std@@@std@@QAE?AU?$pair@V?$_Tree_iterator@V?$_Tree_val@U?$_Tree_simple_types@U?$pair@$$CBV?$basic_string@DU?$char_traits@D@std@@V?$allocator@D@2@@std@@V?$weak_ptr@VRawImageData@@@2@@std@@@std@@@std@@@std@@_N@1@$$QAU?$pair@V?$basic_string@DU?$char_traits@D@std@@V?$allocator@D@2@@std@@V?$weak_ptr@VRawImageData@@@2@@1@@Z 0040b770 f i DraggingDemo.obj
 0001:0000a800       ??$endl@DU?$char_traits@D@std@@@std@@YAAAV?$basic_ostream@DU?$char_traits@D@std@@@0@AAV10@@Z 0040b800 f i DraggingDemo.obj
 0001:0000a840       ??$erase@V?$_Tree_iterator@V?$_Tree_val@U?$_Tree_simple_types@U?$pair@$$CBV?$basic_string@DU?$char_traits@D@std@@V?$allocator@D@2@@std@@V?$weak_ptr@VRawImageData@@@2@@std@@@std@@@std@@@std@@$0A@@?$_Tree@V?$_Tmap_traits@V?$basic_string@DU?$char_traits@D@std@@V?$allocator@D@2@@std@@V?$weak_ptr@VRawImageData@@@2@U?$less@V?$basic_string@DU?$char_traits@D@std@@V?$allocator@D@2@@std@@@2@V?$allocator@U?$pair@$$CBV?$basic_string@DU?$char_traits@D@std@@V?$allocator@D@2@@std@@V?$weak_ptr@VRawImageData@@@2@@std@@@2@$0A@@std@@@std@@QAE?AV?$_Tree_iterator@V?$_Tree_val@U?$_Tree_simple_types@U?$pair@$$CBV?$basic_string@DU?$char_traits@D@std@@V?$allocator@D@2@@std@@V?$weak_ptr@VRawImageData@@@2@@std@@@std@@@std@@@1@V21@@Z 0040b840 f i DraggingDemo.obj
 0001:0000a950       ?insert@?$basic_string@DU?$char_traits@D@std@@V?$allocator@D@2@@std@@QAEAAV12@IQBD@Z 0040b950 f i MainCharacter.obj
 0001:0000a990       ??$exchange@PAU?$_Tree_node@U?$pair@$$CBV?$basic_string@DU?$char_traits@D@std@@V?$allocator@D@2@@std@@V?$shared_ptr@VRawImageData@@@2@@std@@PAX@std@@$$T@std@@YAPAU?$_Tree_node@U?$pair@$$CBV?$basic_string@DU?$char_traits@D@std@@V?$allocator@D@2@@std@@V?$shared_ptr@VRawImageData@@@2@@std@@PAX@0@AAPAU10@$$QA$$T@Z 0040b990 f i DraggingDemo.obj
 0001:0000a9c0       ??$exchange@PAU?$_Tree_node@U?$pair@$$CBV?$basic_string@DU?$char_traits@D@std@@V?$allocator@D@2@@std@@V?$weak_ptr@VRawImageData@@@2@@std@@PAX@std@@$$T@std@@YAPAU?$_Tree_node@U?$pair@$$CBV?$basic_string@DU?$char_traits@D@std@@V?$allocator@D@2@@std@@V?$weak_ptr@VRawImageData@@@2@@std@@PAX@0@AAPAU10@$$QA$$T@Z 0040b9c0 f i DraggingDemo.obj
 0001:0000a9f0       ??$exchange@PAU?$_Tree_node@U?$pair@$$CBV?$basic_string@DU?$char_traits@D@std@@V?$allocator@D@2@@std@@V?$weak_ptr@VRawImageData@@@2@@std@@PAX@std@@AAPAU12@@std@@YAPAU?$_Tree_node@U?$pair@$$CBV?$basic_string@DU?$char_traits@D@std@@V?$allocator@D@2@@std@@V?$weak_ptr@VRawImageData@@@2@@std@@PAX@0@AAPAU10@0@Z 0040b9f0 f i DraggingDemo.obj
 0001:0000aa20       ??$exchange@PAU_Iterator_base12@std@@$$T@std@@YAPAU_Iterator_base12@0@AAPAU10@$$QA$$T@Z 0040ba20 f i DraggingDemo.obj
 0001:0000aa50       ??$forward@AAPAD@std@@YAAAPADAAPAD@Z 0040ba50 f i DraggingDemo.obj
 0001:0000aa60       ??$forward@AAPAU?$_Tree_node@U?$pair@$$CBV?$basic_string@DU?$char_traits@D@std@@V?$allocator@D@2@@std@@V?$shared_ptr@VRawImageData@@@2@@std@@PAX@std@@@std@@YAAAPAU?$_Tree_node@U?$pair@$$CBV?$basic_string@DU?$char_traits@D@std@@V?$allocator@D@2@@std@@V?$shared_ptr@VRawImageData@@@2@@std@@PAX@0@AAPAU10@@Z 0040ba60 f i DraggingDemo.obj
 0001:0000aa70       ??$forward@AAPAU?$_Tree_node@U?$pair@$$CBV?$basic_string@DU?$char_traits@D@std@@V?$allocator@D@2@@std@@V?$weak_ptr@VRawImageData@@@2@@std@@PAX@std@@@std@@YAAAPAU?$_Tree_node@U?$pair@$$CBV?$basic_string@DU?$char_traits@D@std@@V?$allocator@D@2@@std@@V?$weak_ptr@VRawImageData@@@2@@std@@PAX@0@AAPAU10@@Z 0040ba70 f i DraggingDemo.obj
 0001:0000aa80       ??$forward@AAV?$basic_string@DU?$char_traits@D@std@@V?$allocator@D@2@@std@@@std@@YAAAV?$basic_string@DU?$char_traits@D@std@@V?$allocator@D@2@@0@AAV10@@Z 0040ba80 f i DraggingDemo.obj
 0001:0000aa90       ??$forward@AAV?$shared_ptr@VRawImageData@@@std@@@std@@YAAAV?$shared_ptr@VRawImageData@@@0@AAV10@@Z 0040ba90 f i DraggingDemo.obj
 0001:0000aaa0       ??$forward@AAV?$weak_ptr@VRawImageData@@@std@@@std@@YAAAV?$weak_ptr@VRawImageData@@@0@AAV10@@Z 0040baa0 f i DraggingDemo.obj
 0001:0000aab0       ??$forward@ABQAD@std@@YAABQADABQAD@Z 0040bab0 f i DraggingDemo.obj
 0001:0000aac0       ??$forward@ABQAU?$_Tree_node@U?$pair@$$CBV?$basic_string@DU?$char_traits@D@std@@V?$allocator@D@2@@std@@V?$shared_ptr@VRawImageData@@@2@@std@@PAX@std@@@std@@YAABQAU?$_Tree_node@U?$pair@$$CBV?$basic_string@DU?$char_traits@D@std@@V?$allocator@D@2@@std@@V?$shared_ptr@VRawImageData@@@2@@std@@PAX@0@ABQAU10@@Z 0040bac0 f i DraggingDemo.obj
 0001:0000aad0       ??$forward@ABQAU?$_Tree_node@U?$pair@$$CBV?$basic_string@DU?$char_traits@D@std@@V?$allocator@D@2@@std@@V?$weak_ptr@VRawImageData@@@2@@std@@PAX@std@@@std@@YAABQAU?$_Tree_node@U?$pair@$$CBV?$basic_string@DU?$char_traits@D@std@@V?$allocator@D@2@@std@@V?$weak_ptr@VRawImageData@@@2@@std@@PAX@0@ABQAU10@@Z 0040bad0 f i DraggingDemo.obj
 0001:0000aae0       ??$forward@ABU?$less@V?$basic_string@DU?$char_traits@D@std@@V?$allocator@D@2@@std@@@std@@@std@@YAABU?$less@V?$basic_string@DU?$char_traits@D@std@@V?$allocator@D@2@@std@@@0@ABU10@@Z 0040bae0 f i DraggingDemo.obj
 0001:0000aaf0       ??$forward@AB_N@std@@YAAB_NAB_N@Z 0040baf0 f i DraggingDemo.obj
 0001:0000ab00       ??$forward@PAU?$_Tree_node@U?$pair@$$CBV?$basic_string@DU?$char_traits@D@std@@V?$allocator@D@2@@std@@V?$shared_ptr@VRawImageData@@@2@@std@@PAX@std@@@std@@YA$$QAPAU?$_Tree_node@U?$pair@$$CBV?$basic_string@DU?$char_traits@D@std@@V?$allocator@D@2@@std@@V?$shared_ptr@VRawImageData@@@2@@std@@PAX@0@AAPAU10@@Z 0040bb00 f i DraggingDemo.obj
 0001:0000ab10       ??$forward@PAU?$_Tree_node@U?$pair@$$CBV?$basic_string@DU?$char_traits@D@std@@V?$allocator@D@2@@std@@V?$weak_ptr@VRawImageData@@@2@@std@@PAX@std@@@std@@YA$$QAPAU?$_Tree_node@U?$pair@$$CBV?$basic_string@DU?$char_traits@D@std@@V?$allocator@D@2@@std@@V?$weak_ptr@VRawImageData@@@2@@std@@PAX@0@AAPAU10@@Z 0040bb10 f i DraggingDemo.obj
 0001:0000ab20       ??$forward@PAU_Container_base12@std@@@std@@YA$$QAPAU_Container_base12@0@AAPAU10@@Z 0040bb20 f i DraggingDemo.obj
 0001:0000ab30       ??$forward@PAVDisplayableObject@@@std@@YA$$QAPAVDisplayableObject@@AAPAV1@@Z 0040bb30 f i DraggingDemo.obj
 0001:0000ab40       ??$forward@U?$pair@V?$basic_string@DU?$char_traits@D@std@@V?$allocator@D@2@@std@@V?$shared_ptr@VRawImageData@@@2@@std@@@std@@YA$$QAU?$pair@V?$basic_string@DU?$char_traits@D@std@@V?$allocator@D@2@@std@@V?$shared_ptr@VRawImageData@@@2@@0@AAU10@@Z 0040bb40 f i DraggingDemo.obj
 0001:0000ab50       ??$forward@U?$pair@V?$basic_string@DU?$char_traits@D@std@@V?$allocator@D@2@@std@@V?$weak_ptr@VRawImageData@@@2@@std@@@std@@YA$$QAU?$pair@V?$basic_string@DU?$char_traits@D@std@@V?$allocator@D@2@@std@@V?$weak_ptr@VRawImageData@@@2@@0@AAU10@@Z 0040bb50 f i DraggingDemo.obj
 0001:0000ab60       ??$forward@U_Zero_then_variadic_args_t@std@@@std@@YA$$QAU_Zero_then_variadic_args_t@0@AAU10@@Z 0040bb60 f i DraggingDemo.obj
 0001:0000ab70       ??$forward@V?$_Tree_iterator@V?$_Tree_val@U?$_Tree_simple_types@U?$pair@$$CBV?$basic_string@DU?$char_traits@D@std@@V?$allocator@D@2@@std@@V?$shared_ptr@VRawImageData@@@2@@std@@@std@@@std@@@std@@@std@@YA$$QAV?$_Tree_iterator@V?$_Tree_val@U?$_Tree_simple_types@U?$pair@$$CBV?$basic_string@DU?$char_traits@D@std@@V?$allocator@D@2@@std@@V?$shared_ptr@VRawImageData@@@2@@std@@@std@@@std@@@0@AAV10@@Z 0040bb70 f i DraggingDemo.obj
 0001:0000ab80       ??$forward@V?$_Tree_iterator@V?$_Tree_val@U?$_Tree_simple_types@U?$pair@$$CBV?$basic_string@DU?$char_traits@D@std@@V?$allocator@D@2@@std@@V?$weak_ptr@VRawImageData@@@2@@std@@@std@@@std@@@std@@@std@@YA$$QAV?$_Tree_iterator@V?$_Tree_val@U?$_Tree_simple_types@U?$pair@$$CBV?$basic_string@DU?$char_traits@D@std@@V?$allocator@D@2@@std@@V?$weak_ptr@VRawImageData@@@2@@std@@@std@@@std@@@0@AAV10@@Z 0040bb80 f i DraggingDemo.obj
 0001:0000ab90       ??$forward@V?$allocator@D@std@@@std@@YA$$QAV?$allocator@D@0@AAV10@@Z 0040bb90 f i DraggingDemo.obj
 0001:0000aba0       ??$forward@V?$basic_string@DU?$char_traits@D@std@@V?$allocator@D@2@@std@@@std@@YA$$QAV?$basic_string@DU?$char_traits@D@std@@V?$allocator@D@2@@0@AAV10@@Z 0040bba0 f i DraggingDemo.obj
 0001:0000abb0       ??$forward@V?$shared_ptr@VRawImageData@@@std@@@std@@YA$$QAV?$shared_ptr@VRawImageData@@@0@AAV10@@Z 0040bbb0 f i DraggingDemo.obj
 0001:0000abc0       ??$forward@V?$weak_ptr@VRawImageData@@@std@@@std@@YA$$QAV?$weak_ptr@VRawImageData@@@0@AAV10@@Z 0040bbc0 f i DraggingDemo.obj
 0001:0000abd0       ??$forward@_N@std@@YA$$QA_NAA_N@Z 0040bbd0 f i DraggingDemo.obj
 0001:0000abe0       ??$insert@U?$pair@V?$basic_string@DU?$char_traits@D@std@@V?$allocator@D@2@@std@@V?$shared_ptr@VRawImageData@@@2@@std@@$0A@@?$map@V?$basic_string@DU?$char_traits@D@std@@V?$allocator@D@2@@std@@V?$shared_ptr@VRawImageData@@@2@U?$less@V?$basic_string@DU?$char_traits@D@std@@V?$allocator@D@2@@std@@@2@V?$allocator@U?$pair@$$CBV?$basic_string@DU?$char_traits@D@std@@V?$allocator@D@2@@std@@V?$shared_ptr@VRawImageData@@@2@@std@@@2@@std@@QAE?AU?$pair@V?$_Tree_iterator@V?$_Tree_val@U?$_Tree_simple_types@U?$pair@$$CBV?$basic_string@DU?$char_traits@D@std@@V?$allocator@D@2@@std@@V?$shared_ptr@VRawImageData@@@2@@std@@@std@@@std@@@std@@_N@1@$$QAU?$pair@V?$basic_string@DU?$char_traits@D@std@@V?$allocator@D@2@@std@@V?$shared_ptr@VRawImageData@@@2@@1@@Z 0040bbe0 f i DraggingDemo.obj
 0001:0000ac30       ??$insert@U?$pair@V?$basic_string@DU?$char_traits@D@std@@V?$allocator@D@2@@std@@V?$weak_ptr@VRawImageData@@@2@@std@@$0A@@?$map@V?$basic_string@DU?$char_traits@D@std@@V?$allocator@D@2@@std@@V?$weak_ptr@VRawImageData@@@2@U?$less@V?$basic_string@DU?$char_traits@D@std@@V?$allocator@D@2@@std@@@2@V?$allocator@U?$pair@$$CBV?$basic_string@DU?$char_traits@D@std@@V?$allocator@D@2@@std@@V?$weak_ptr@VRawImageData@@@2@@std@@@2@@std@@QAE?AU?$pair@V?$_Tree_iterator@V?$_Tree_val@U?$_Tree_simple_types@U?$pair@$$CBV?$basic_string@DU?$char_traits@D@std@@V?$allocator@D@2@@std@@V?$weak_ptr@VRawImageData@@@2@@std@@@std@@@std@@@std@@_N@1@$$QAU?$pair@V?$basic_string@DU?$char_traits@D@std@@V?$allocator@D@2@@std@@V?$weak_ptr@VRawImageData@@@2@@1@@Z 0040bc30 f i DraggingDemo.obj
 0001:0000ac80       ??$max@I@std@@YAABIABI0@Z  0040bc80 f i DraggingDemo.obj
 0001:0000acc0       ??$min@I@std@@YAABIABI0@Z  0040bcc0 f i DraggingDemo.obj
 0001:0000ad00       ??$move@AAD@std@@YA$$QADAAD@Z 0040bd00 f i DraggingDemo.obj
 0001:0000ad10       ??$move@AAPAPAVDisplayableObject@@@std@@YA$$QAPAPAVDisplayableObject@@AAPAPAV1@@Z 0040bd10 f i DraggingDemo.obj
 0001:0000ad20       ??$move@AAPAVDisplayableObject@@@std@@YA$$QAPAVDisplayableObject@@AAPAV1@@Z 0040bd20 f i DraggingDemo.obj
 0001:0000ad30       ??$move@AAV?$allocator@D@std@@@std@@YA$$QAV?$allocator@D@0@AAV10@@Z 0040bd30 f i DraggingDemo.obj
 0001:0000ad40       ??$move@AAV?$shared_ptr@VRawImageData@@@std@@@std@@YA$$QAV?$shared_ptr@VRawImageData@@@0@AAV10@@Z 0040bd40 f i DraggingDemo.obj
 0001:0000ad50       ??$move@AAV?$weak_ptr@VRawImageData@@@std@@@std@@YA$$QAV?$weak_ptr@VRawImageData@@@0@AAV10@@Z 0040bd50 f i DraggingDemo.obj
 0001:0000ad60       ??$swap@D$0A@@std@@YAXAAD0@Z 0040bd60 f i DraggingDemo.obj
 0001:0000adb0       ??0?$_Alloc_construct_ptr@V?$allocator@U?$_Tree_node@U?$pair@$$CBV?$basic_string@DU?$char_traits@D@std@@V?$allocator@D@2@@std@@V?$shared_ptr@VRawImageData@@@2@@std@@PAX@std@@@std@@@std@@QAE@AAV?$allocator@U?$_Tree_node@U?$pair@$$CBV?$basic_string@DU?$char_traits@D@std@@V?$allocator@D@2@@std@@V?$shared_ptr@VRawImageData@@@2@@std@@PAX@std@@@1@@Z 0040bdb0 f i DraggingDemo.obj
 0001:0000ade0       ??0?$_Alloc_construct_ptr@V?$allocator@U?$_Tree_node@U?$pair@$$CBV?$basic_string@DU?$char_traits@D@std@@V?$allocator@D@2@@std@@V?$weak_ptr@VRawImageData@@@2@@std@@PAX@std@@@std@@@std@@QAE@AAV?$allocator@U?$_Tree_node@U?$pair@$$CBV?$basic_string@DU?$char_traits@D@std@@V?$allocator@D@2@@std@@V?$weak_ptr@VRawImageData@@@2@@std@@PAX@std@@@1@@Z 0040bde0 f i DraggingDemo.obj
 0001:0000ae10       ??0?$_Container_proxy_ptr12@V?$allocator@U_Container_proxy@std@@@std@@@std@@QAE@AAV?$allocator@U_Container_proxy@std@@@1@AAU_Container_base12@1@@Z 0040be10 f i DraggingDemo.obj
 0001:0000ae90       ??0?$_Ptr_base@VRawImageData@@@std@@IAE@XZ 0040be90 f i DraggingDemo.obj
 0001:0000aec0       ??0?$_Ref_count@VRawImageData@@@std@@QAE@PAVRawImageData@@@Z 0040bec0 f i DraggingDemo.obj
 0001:0000af10       ??0?$_String_val@U?$_Simple_types@D@std@@@std@@QAE@XZ 0040bf10 f i DraggingDemo.obj
 0001:0000af60       ??0?$_Temporary_owner@VRawImageData@@@std@@QAE@QAVRawImageData@@@Z 0040bf60 f i DraggingDemo.obj
 0001:0000af80       ??0?$_Tree@V?$_Tmap_traits@V?$basic_string@DU?$char_traits@D@std@@V?$allocator@D@2@@std@@V?$shared_ptr@VRawImageData@@@2@U?$less@V?$basic_string@DU?$char_traits@D@std@@V?$allocator@D@2@@std@@@2@V?$allocator@U?$pair@$$CBV?$basic_string@DU?$char_traits@D@std@@V?$allocator@D@2@@std@@V?$shared_ptr@VRawImageData@@@2@@std@@@2@$0A@@std@@@std@@QAE@ABU?$less@V?$basic_string@DU?$char_traits@D@std@@V?$allocator@D@2@@std@@@1@@Z 0040bf80 f i DraggingDemo.obj
 0001:0000afc0       ??0?$_Tree@V?$_Tmap_traits@V?$basic_string@DU?$char_traits@D@std@@V?$allocator@D@2@@std@@V?$weak_ptr@VRawImageData@@@2@U?$less@V?$basic_string@DU?$char_traits@D@std@@V?$allocator@D@2@@std@@@2@V?$allocator@U?$pair@$$CBV?$basic_string@DU?$char_traits@D@std@@V?$allocator@D@2@@std@@V?$weak_ptr@VRawImageData@@@2@@std@@@2@$0A@@std@@@std@@QAE@ABU?$less@V?$basic_string@DU?$char_traits@D@std@@V?$allocator@D@2@@std@@@1@@Z 0040bfc0 f i DraggingDemo.obj
 0001:0000b000       ??0?$_Tree_const_iterator@V?$_Tree_val@U?$_Tree_simple_types@U?$pair@$$CBV?$basic_string@DU?$char_traits@D@std@@V?$allocator@D@2@@std@@V?$shared_ptr@VRawImageData@@@2@@std@@@std@@@std@@@std@@QAE@$$QAV01@@Z 0040c000 f i DraggingDemo.obj
 0001:0000b030       ??0?$_Tree_const_iterator@V?$_Tree_val@U?$_Tree_simple_types@U?$pair@$$CBV?$basic_string@DU?$char_traits@D@std@@V?$allocator@D@2@@std@@V?$shared_ptr@VRawImageData@@@2@@std@@@std@@@std@@@std@@QAE@PAU?$_Tree_node@U?$pair@$$CBV?$basic_string@DU?$char_traits@D@std@@V?$allocator@D@2@@std@@V?$shared_ptr@VRawImageData@@@2@@std@@PAX@1@PBV?$_Tree_val@U?$_Tree_simple_types@U?$pair@$$CBV?$basic_string@DU?$char_traits@D@std@@V?$allocator@D@2@@std@@V?$shared_ptr@VRawImageData@@@2@@std@@@std@@@1@@Z 0040c030 f i DraggingDemo.obj
 0001:0000b060       ??0?$_Tree_const_iterator@V?$_Tree_val@U?$_Tree_simple_types@U?$pair@$$CBV?$basic_string@DU?$char_traits@D@std@@V?$allocator@D@2@@std@@V?$weak_ptr@VRawImageData@@@2@@std@@@std@@@std@@@std@@QAE@$$QAV01@@Z 0040c060 f i DraggingDemo.obj
 0001:0000b090       ??0?$_Tree_const_iterator@V?$_Tree_val@U?$_Tree_simple_types@U?$pair@$$CBV?$basic_string@DU?$char_traits@D@std@@V?$allocator@D@2@@std@@V?$weak_ptr@VRawImageData@@@2@@std@@@std@@@std@@@std@@QAE@ABV01@@Z 0040c090 f i DraggingDemo.obj
 0001:0000b0c0       ??0?$_Tree_const_iterator@V?$_Tree_val@U?$_Tree_simple_types@U?$pair@$$CBV?$basic_string@DU?$char_traits@D@std@@V?$allocator@D@2@@std@@V?$weak_ptr@VRawImageData@@@2@@std@@@std@@@std@@@std@@QAE@PAU?$_Tree_node@U?$pair@$$CBV?$basic_string@DU?$char_traits@D@std@@V?$allocator@D@2@@std@@V?$weak_ptr@VRawImageData@@@2@@std@@PAX@1@PBV?$_Tree_val@U?$_Tree_simple_types@U?$pair@$$CBV?$basic_string@DU?$char_traits@D@std@@V?$allocator@D@2@@std@@V?$weak_ptr@VRawImageData@@@2@@std@@@std@@@1@@Z 0040c0c0 f i DraggingDemo.obj
 0001:0000b0f0       ??0?$_Tree_iterator@V?$_Tree_val@U?$_Tree_simple_types@U?$pair@$$CBV?$basic_string@DU?$char_traits@D@std@@V?$allocator@D@2@@std@@V?$shared_ptr@VRawImageData@@@2@@std@@@std@@@std@@@std@@QAE@$$QAV01@@Z 0040c0f0 f i DraggingDemo.obj
 0001:0000b120       ??0?$_Tree_iterator@V?$_Tree_val@U?$_Tree_simple_types@U?$pair@$$CBV?$basic_string@DU?$char_traits@D@std@@V?$allocator@D@2@@std@@V?$shared_ptr@VRawImageData@@@2@@std@@@std@@@std@@@std@@QAE@PAU?$_Tree_node@U?$pair@$$CBV?$basic_string@DU?$char_traits@D@std@@V?$allocator@D@2@@std@@V?$shared_ptr@VRawImageData@@@2@@std@@PAX@1@PBV?$_Tree_val@U?$_Tree_simple_types@U?$pair@$$CBV?$basic_string@DU?$char_traits@D@std@@V?$allocator@D@2@@std@@V?$shared_ptr@VRawImageData@@@2@@std@@@std@@@1@@Z 0040c120 f i DraggingDemo.obj
 0001:0000b150       ??0?$_Tree_iterator@V?$_Tree_val@U?$_Tree_simple_types@U?$pair@$$CBV?$basic_string@DU?$char_traits@D@std@@V?$allocator@D@2@@std@@V?$weak_ptr@VRawImageData@@@2@@std@@@std@@@std@@@std@@QAE@$$QAV01@@Z 0040c150 f i DraggingDemo.obj
 0001:0000b180       ??0?$_Tree_iterator@V?$_Tree_val@U?$_Tree_simple_types@U?$pair@$$CBV?$basic_string@DU?$char_traits@D@std@@V?$allocator@D@2@@std@@V?$weak_ptr@VRawImageData@@@2@@std@@@std@@@std@@@std@@QAE@ABV01@@Z 0040c180 f i DraggingDemo.obj
 0001:0000b1b0       ??0?$_Tree_iterator@V?$_Tree_val@U?$_Tree_simple_types@U?$pair@$$CBV?$basic_string@DU?$char_traits@D@std@@V?$allocator@D@2@@std@@V?$weak_ptr@VRawImageData@@@2@@std@@@std@@@std@@@std@@QAE@PAU?$_Tree_node@U?$pair@$$CBV?$basic_string@DU?$char_traits@D@std@@V?$allocator@D@2@@std@@V?$weak_ptr@VRawImageData@@@2@@std@@PAX@1@PBV?$_Tree_val@U?$_Tree_simple_types@U?$pair@$$CBV?$basic_string@DU?$char_traits@D@std@@V?$allocator@D@2@@std@@V?$weak_ptr@VRawImageData@@@2@@std@@@std@@@1@@Z 0040c1b0 f i DraggingDemo.obj
 0001:0000b1e0       ??0?$_Tree_temp_node_alloc@V?$allocator@U?$_Tree_node@U?$pair@$$CBV?$basic_string@DU?$char_traits@D@std@@V?$allocator@D@2@@std@@V?$shared_ptr@VRawImageData@@@2@@std@@PAX@std@@@std@@@std@@QAE@AAV?$allocator@U?$_Tree_node@U?$pair@$$CBV?$basic_string@DU?$char_traits@D@std@@V?$allocator@D@2@@std@@V?$shared_ptr@VRawImageData@@@2@@std@@PAX@std@@@1@@Z 0040c1e0 f i DraggingDemo.obj
 0001:0000b260       ??0?$_Tree_temp_node_alloc@V?$allocator@U?$_Tree_node@U?$pair@$$CBV?$basic_string@DU?$char_traits@D@std@@V?$allocator@D@2@@std@@V?$weak_ptr@VRawImageData@@@2@@std@@PAX@std@@@std@@@std@@QAE@AAV?$allocator@U?$_Tree_node@U?$pair@$$CBV?$basic_string@DU?$char_traits@D@std@@V?$allocator@D@2@@std@@V?$weak_ptr@VRawImageData@@@2@@std@@PAX@std@@@1@@Z 0040c260 f i DraggingDemo.obj
 0001:0000b2c0       ??$exchange@PAV?$tuple@P8gameSetupState@@AEXXZPAV1@@std@@$$T@std@@YAPAV?$tuple@P8gameSetupState@@AEXXZPAV1@@0@AAPAV10@$$QA$$T@Z 0040c2c0 f i gameSetupState.obj
 0001:0000b2e0       ??0?$_Tree_unchecked_const_iterator@V?$_Tree_val@U?$_Tree_simple_types@U?$pair@$$CBV?$basic_string@DU?$char_traits@D@std@@V?$allocator@D@2@@std@@V?$shared_ptr@VRawImageData@@@2@@std@@@std@@@std@@U_Iterator_base12@2@@std@@QAE@$$QAV01@@Z 0040c2e0 f i DraggingDemo.obj
 0001:0000b320       ??0?$_Tree_unchecked_const_iterator@V?$_Tree_val@U?$_Tree_simple_types@U?$pair@$$CBV?$basic_string@DU?$char_traits@D@std@@V?$allocator@D@2@@std@@V?$shared_ptr@VRawImageData@@@2@@std@@@std@@@std@@U_Iterator_base12@2@@std@@QAE@PAU?$_Tree_node@U?$pair@$$CBV?$basic_string@DU?$char_traits@D@std@@V?$allocator@D@2@@std@@V?$shared_ptr@VRawImageData@@@2@@std@@PAX@1@PBV?$_Tree_val@U?$_Tree_simple_types@U?$pair@$$CBV?$basic_string@DU?$char_traits@D@std@@V?$allocator@D@2@@std@@V?$shared_ptr@VRawImageData@@@2@@std@@@std@@@1@@Z 0040c320 f i DraggingDemo.obj
 0001:0000b360       ??0?$_Tree_unchecked_const_iterator@V?$_Tree_val@U?$_Tree_simple_types@U?$pair@$$CBV?$basic_string@DU?$char_traits@D@std@@V?$allocator@D@2@@std@@V?$weak_ptr@VRawImageData@@@2@@std@@@std@@@std@@U_Iterator_base0@2@@std@@QAE@PAU?$_Tree_node@U?$pair@$$CBV?$basic_string@DU?$char_traits@D@std@@V?$allocator@D@2@@std@@V?$weak_ptr@VRawImageData@@@2@@std@@PAX@1@PBV?$_Tree_val@U?$_Tree_simple_types@U?$pair@$$CBV?$basic_string@DU?$char_traits@D@std@@V?$allocator@D@2@@std@@V?$weak_ptr@VRawImageData@@@2@@std@@@std@@@1@@Z 0040c360 f i DraggingDemo.obj
 0001:0000b390       ??0?$_Tree_unchecked_const_iterator@V?$_Tree_val@U?$_Tree_simple_types@U?$pair@$$CBV?$basic_string@DU?$char_traits@D@std@@V?$allocator@D@2@@std@@V?$weak_ptr@VRawImageData@@@2@@std@@@std@@@std@@U_Iterator_base12@2@@std@@QAE@$$QAV01@@Z 0040c390 f i DraggingDemo.obj
 0001:0000b3d0       ??0?$_Tree_unchecked_const_iterator@V?$_Tree_val@U?$_Tree_simple_types@U?$pair@$$CBV?$basic_string@DU?$char_traits@D@std@@V?$allocator@D@2@@std@@V?$weak_ptr@VRawImageData@@@2@@std@@@std@@@std@@U_Iterator_base12@2@@std@@QAE@ABV01@@Z 0040c3d0 f i DraggingDemo.obj
 0001:0000b410       ??0?$_Tree_unchecked_const_iterator@V?$_Tree_val@U?$_Tree_simple_types@U?$pair@$$CBV?$basic_string@DU?$char_traits@D@std@@V?$allocator@D@2@@std@@V?$weak_ptr@VRawImageData@@@2@@std@@@std@@@std@@U_Iterator_base12@2@@std@@QAE@PAU?$_Tree_node@U?$pair@$$CBV?$basic_string@DU?$char_traits@D@std@@V?$allocator@D@2@@std@@V?$weak_ptr@VRawImageData@@@2@@std@@PAX@1@PBV?$_Tree_val@U?$_Tree_simple_types@U?$pair@$$CBV?$basic_string@DU?$char_traits@D@std@@V?$allocator@D@2@@std@@V?$weak_ptr@VRawImageData@@@2@@std@@@std@@@1@@Z 0040c410 f i DraggingDemo.obj
 0001:0000b450       ??0?$_Tree_unchecked_iterator@V?$_Tree_val@U?$_Tree_simple_types@U?$pair@$$CBV?$basic_string@DU?$char_traits@D@std@@V?$allocator@D@2@@std@@V?$weak_ptr@VRawImageData@@@2@@std@@@std@@@std@@@std@@QAE@PAU?$_Tree_node@U?$pair@$$CBV?$basic_string@DU?$char_traits@D@std@@V?$allocator@D@2@@std@@V?$weak_ptr@VRawImageData@@@2@@std@@PAX@1@PBV?$_Tree_val@U?$_Tree_simple_types@U?$pair@$$CBV?$basic_string@DU?$char_traits@D@std@@V?$allocator@D@2@@std@@V?$weak_ptr@VRawImageData@@@2@@std@@@std@@@1@@Z 0040c450 f i DraggingDemo.obj
 0001:0000b480       ??0?$_Tree_val@U?$_Tree_simple_types@U?$pair@$$CBV?$basic_string@DU?$char_traits@D@std@@V?$allocator@D@2@@std@@V?$shared_ptr@VRawImageData@@@2@@std@@@std@@@std@@QAE@XZ 0040c480 f i DraggingDemo.obj
 0001:0000b4c0       ??0?$_Tree_val@U?$_Tree_simple_types@U?$pair@$$CBV?$basic_string@DU?$char_traits@D@std@@V?$allocator@D@2@@std@@V?$weak_ptr@VRawImageData@@@2@@std@@@std@@@std@@QAE@XZ 0040c4c0 f i DraggingDemo.obj
 0001:0000b500       ??0?$_Uninitialized_backout_al@V?$allocator@PAVDisplayableObject@@@std@@@std@@QAE@PAPAVDisplayableObject@@AAV?$allocator@PAVDisplayableObject@@@1@@Z 0040c500 f i DraggingDemo.obj
 0001:0000b540       ??0?$allocator@D@std@@QAE@XZ 0040c540 f i DraggingDemo.obj
 0001:0000b560       ??0?$allocator@U?$_Tree_node@U?$pair@$$CBV?$basic_string@DU?$char_traits@D@std@@V?$allocator@D@2@@std@@V?$shared_ptr@VRawImageData@@@2@@std@@PAX@std@@@std@@QAE@XZ 0040c560 f i DraggingDemo.obj
 0001:0000b580       ??0?$allocator@U?$_Tree_node@U?$pair@$$CBV?$basic_string@DU?$char_traits@D@std@@V?$allocator@D@2@@std@@V?$weak_ptr@VRawImageData@@@2@@std@@PAX@std@@@std@@QAE@XZ 0040c580 f i DraggingDemo.obj
 0001:0000b5a0       ??0?$basic_string@DU?$char_traits@D@std@@V?$allocator@D@2@@std@@QAE@$$QAV01@@Z 0040c5a0 f i DraggingDemo.obj
 0001:0000b630       ??$invoke@P8gameSetupState@@AEXXZPAV1@$$V@std@@YAX$$QAP8gameSetupState@@AEXXZ$$QAPAV1@@Z 0040c630 f i gameSetupState.obj
 0001:0000b650       ??0?$basic_string@DU?$char_traits@D@std@@V?$allocator@D@2@@std@@QAE@ABV01@@Z 0040c650 f i DraggingDemo.obj
 0001:0000b6e0       ?getTileHeight@TileManager@@QBEHXZ 0040c6e0 f i gameSetupState.obj
 0001:0000b700       ??0?$basic_string@DU?$char_traits@D@std@@V?$allocator@D@2@@std@@QAE@QBD@Z 0040c700 f i DraggingDemo.obj
 0001:0000b780       ?getTileWidth@TileManager@@QBEHXZ 0040c780 f i gameSetupState.obj
 0001:0000b7a0       ??0?$map@V?$basic_string@DU?$char_traits@D@std@@V?$allocator@D@2@@std@@V?$shared_ptr@VRawImageData@@@2@U?$less@V?$basic_string@DU?$char_traits@D@std@@V?$allocator@D@2@@std@@@2@V?$allocator@U?$pair@$$CBV?$basic_string@DU?$char_traits@D@std@@V?$allocator@D@2@@std@@V?$shared_ptr@VRawImageData@@@2@@std@@@2@@std@@QAE@XZ 0040c7a0 f i DraggingDemo.obj
 0001:0000b7d0       ??0?$map@V?$basic_string@DU?$char_traits@D@std@@V?$allocator@D@2@@std@@V?$weak_ptr@VRawImageData@@@2@U?$less@V?$basic_string@DU?$char_traits@D@std@@V?$allocator@D@2@@std@@@2@V?$allocator@U?$pair@$$CBV?$basic_string@DU?$char_traits@D@std@@V?$allocator@D@2@@std@@V?$weak_ptr@VRawImageData@@@2@@std@@@2@@std@@QAE@XZ 0040c7d0 f i DraggingDemo.obj
 0001:0000b800       ??0?$shared_ptr@VRawImageData@@@std@@QAE@$$QAV01@@Z 0040c800 f i DraggingDemo.obj
 0001:0000b840       ??0?$shared_ptr@VRawImageData@@@std@@QAE@$$T@Z 0040c840 f i DraggingDemo.obj
 0001:0000b860       ??0?$shared_ptr@VRawImageData@@@std@@QAE@ABV01@@Z 0040c860 f i DraggingDemo.obj
 0001:0000b890       ??0?$shared_ptr@VRawImageData@@@std@@QAE@XZ 0040c890 f i DraggingDemo.obj
 0001:0000b8b0       ??0?$weak_ptr@VRawImageData@@@std@@QAE@$$QAV01@@Z 0040c8b0 f i DraggingDemo.obj
 0001:0000b8f0       ??0?$weak_ptr@VRawImageData@@@std@@QAE@ABV01@@Z 0040c8f0 f i DraggingDemo.obj
 0001:0000b920       ??0DragableBaseClassObject@@QAE@HHPAVBaseEngine@@HH_N@Z 0040c920 f i DraggingDemo.obj
 0001:0000b990       ?get_deleter@?$unique_ptr@V?$tuple@P8gameSetupState@@AEXXZPAV1@@std@@U?$default_delete@V?$tuple@P8gameSetupState@@AEXXZPAV1@@std@@@2@@std@@QAEAAU?$default_delete@V?$tuple@P8gameSetupState@@AEXXZPAV1@@std@@@2@XZ 0040c990 f i gameSetupState.obj
 0001:0000b9b0       ??0DragableBaseClassObject@@QAE@PAVBaseEngine@@HH_N@Z 0040c9b0 f i DraggingDemo.obj
 0001:0000ba30       ??0DragableImageObject@@QAE@HHPAVBaseEngine@@V?$basic_string@DU?$char_traits@D@std@@V?$allocator@D@2@@std@@_N2@Z 0040ca30 f i DraggingDemo.obj
 0001:0000bb80       ??1?$vector@PAVPsyeb10Enemy@@V?$allocator@PAVPsyeb10Enemy@@@std@@@std@@QAE@XZ 0040cb80 f i gameState.obj
 0001:0000bbd0       ??0DragableObject@@QAE@HHPAVBaseEngine@@HH_N1@Z 0040cbd0 f i DraggingDemo.obj
 0001:0000bc60       ?setTopLeftPositionOnScreen@TileManager@@QAEXHH@Z 0040cc60 f i gameSetupState.obj
 0001:0000bc80       ??0DragableObject@@QAE@PAVBaseEngine@@HH_N1@Z 0040cc80 f i DraggingDemo.obj
 0001:0000bd10       ?sin@@YAMM@Z               0040cd10 f i gameSetupState.obj
 0001:0000bd30       ??0ImageManager@@QAE@XZ    0040cd30 f i DraggingDemo.obj
 0001:0000bda0       ??0ImageObject@@QAE@HHPAVBaseEngine@@V?$basic_string@DU?$char_traits@D@std@@V?$allocator@D@2@@std@@_N2@Z 0040cda0 f i DraggingDemo.obj
 0001:0000bee0       ??$getline@DU?$char_traits@D@std@@V?$allocator@D@2@@std@@YAAAV?$basic_istream@DU?$char_traits@D@std@@@0@AAV10@AAV?$basic_string@DU?$char_traits@D@std@@V?$allocator@D@2@@0@@Z 0040cee0 f i gameState.obj
 0001:0000bf30       ??0RawImageData@@QAE@V?$basic_string@DU?$char_traits@D@std@@V?$allocator@D@2@@std@@@Z 0040cf30 f i DraggingDemo.obj
 0001:0000bfc0       ?unlockBackgroundForDrawing@BaseEngine@@QAEXXZ 0040cfc0 f i gameSetupState.obj
 0001:0000bfe0       ??0_Basic_container_proxy_ptr12@std@@IAE@XZ 0040cfe0 f i DraggingDemo.obj
 0001:0000c000       ??0_Bxty@?$_String_val@U?$_Simple_types@D@std@@@std@@QAE@XZ 0040d000 f i DraggingDemo.obj
 0001:0000c030       ??0_Container_base12@std@@QAE@XZ 0040d030 f i DraggingDemo.obj
 0001:0000c050       ??0_Container_proxy@std@@QAE@PAU_Container_base12@1@@Z 0040d050 f i DraggingDemo.obj
 0001:0000c080       ??0_Iterator_base12@std@@QAE@ABU01@@Z 0040d080 f i DraggingDemo.obj
 0001:0000c0c0       ??0_Iterator_base12@std@@QAE@XZ 0040d0c0 f i DraggingDemo.obj
 0001:0000c0f0       ??0_Ref_count_base@std@@IAE@XZ 0040d0f0 f i DraggingDemo.obj
 0001:0000c120       ??0_Sentry_base@?$basic_ostream@DU?$char_traits@D@std@@@std@@QAE@AAV12@@Z 0040d120 f i DraggingDemo.obj
 0001:0000c180       ??0bad_alloc@std@@AAE@QBD@Z 0040d180 f i DraggingDemo.obj
 0001:0000c1b0       ??0bad_alloc@std@@QAE@ABV01@@Z 0040d1b0 f i DraggingDemo.obj
 0001:0000c1e0       ??0bad_array_new_length@std@@QAE@ABV01@@Z 0040d1e0 f i DraggingDemo.obj
 0001:0000c210       ??0bad_array_new_length@std@@QAE@XZ 0040d210 f i DraggingDemo.obj
 0001:0000c240       ??0exception@std@@QAE@ABV01@@Z 0040d240 f i DraggingDemo.obj
 0001:0000c290       ??0exception@std@@QAE@QBDH@Z 0040d290 f i DraggingDemo.obj
 0001:0000c2d0       ??0sentry@?$basic_ostream@DU?$char_traits@D@std@@@std@@QAE@AAV12@@Z 0040d2d0 f i DraggingDemo.obj
 0001:0000c3a0       ?is_open@?$basic_ifstream@DU?$char_traits@D@std@@@std@@QBE_NXZ 0040d3a0 f i gameState.obj
 0001:0000c3d0       ??1?$_Alloc_construct_ptr@V?$allocator@U?$_Tree_node@U?$pair@$$CBV?$basic_string@DU?$char_traits@D@std@@V?$allocator@D@2@@std@@V?$shared_ptr@VRawImageData@@@2@@std@@PAX@std@@@std@@@std@@QAE@XZ 0040d3d0 f i DraggingDemo.obj
 0001:0000c410       ??1?$_Alloc_construct_ptr@V?$allocator@U?$_Tree_node@U?$pair@$$CBV?$basic_string@DU?$char_traits@D@std@@V?$allocator@D@2@@std@@V?$weak_ptr@VRawImageData@@@2@@std@@PAX@std@@@std@@@std@@QAE@XZ 0040d410 f i DraggingDemo.obj
 0001:0000c450       ??1?$_Compressed_pair@V?$allocator@D@std@@V?$_String_val@U?$_Simple_types@D@std@@@2@$00@std@@QAE@XZ 0040d450 f i DraggingDemo.obj
 0001:0000c470       ??1?$_Container_proxy_ptr12@V?$allocator@U_Container_proxy@std@@@std@@@std@@QAE@XZ 0040d470 f i DraggingDemo.obj
 0001:0000c4b0       ??1?$_Ref_count@VRawImageData@@@std@@UAE@XZ 0040d4b0 f i DraggingDemo.obj
 0001:0000c4d0       ??1?$_String_val@U?$_Simple_types@D@std@@@std@@QAE@XZ 0040d4d0 f i DraggingDemo.obj
 0001:0000c4f0       ??1?$_Temporary_owner@VRawImageData@@@std@@QAE@XZ 0040d4f0 f i DraggingDemo.obj
 0001:0000c530       ??1?$_Tree@V?$_Tmap_traits@V?$basic_string@DU?$char_traits@D@std@@V?$allocator@D@2@@std@@V?$weak_ptr@VRawImageData@@@2@U?$less@V?$basic_string@DU?$char_traits@D@std@@V?$allocator@D@2@@std@@@2@V?$allocator@U?$pair@$$CBV?$basic_string@DU?$char_traits@D@std@@V?$allocator@D@2@@std@@V?$weak_ptr@VRawImageData@@@2@@std@@@2@$0A@@std@@@std@@QAE@XZ 0040d530 f i DraggingDemo.obj
 0001:0000c5a0       ??1?$_Tree_const_iterator@V?$_Tree_val@U?$_Tree_simple_types@U?$pair@$$CBV?$basic_string@DU?$char_traits@D@std@@V?$allocator@D@2@@std@@V?$shared_ptr@VRawImageData@@@2@@std@@@std@@@std@@@std@@QAE@XZ 0040d5a0 f i DraggingDemo.obj
 0001:0000c5c0       ??1?$_Tree_const_iterator@V?$_Tree_val@U?$_Tree_simple_types@U?$pair@$$CBV?$basic_string@DU?$char_traits@D@std@@V?$allocator@D@2@@std@@V?$weak_ptr@VRawImageData@@@2@@std@@@std@@@std@@@std@@QAE@XZ 0040d5c0 f i DraggingDemo.obj
 0001:0000c5e0       ??1?$_Tree_iterator@V?$_Tree_val@U?$_Tree_simple_types@U?$pair@$$CBV?$basic_string@DU?$char_traits@D@std@@V?$allocator@D@2@@std@@V?$shared_ptr@VRawImageData@@@2@@std@@@std@@@std@@@std@@QAE@XZ 0040d5e0 f i DraggingDemo.obj
 0001:0000c600       ??1?$_Tree_iterator@V?$_Tree_val@U?$_Tree_simple_types@U?$pair@$$CBV?$basic_string@DU?$char_traits@D@std@@V?$allocator@D@2@@std@@V?$weak_ptr@VRawImageData@@@2@@std@@@std@@@std@@@std@@QAE@XZ 0040d600 f i DraggingDemo.obj
 0001:0000c620       ??1?$_Tree_temp_node@V?$allocator@U?$_Tree_node@U?$pair@$$CBV?$basic_string@DU?$char_traits@D@std@@V?$allocator@D@2@@std@@V?$shared_ptr@VRawImageData@@@2@@std@@PAX@std@@@std@@@std@@QAE@XZ 0040d620 f i DraggingDemo.obj
 0001:0000c6f0       ??1?$_Tree_temp_node@V?$allocator@U?$_Tree_node@U?$pair@$$CBV?$basic_string@DU?$char_traits@D@std@@V?$allocator@D@2@@std@@V?$weak_ptr@VRawImageData@@@2@@std@@PAX@std@@@std@@@std@@QAE@XZ 0040d6f0 f i DraggingDemo.obj
 0001:0000c7c0       ??1?$_Tree_temp_node_alloc@V?$allocator@U?$_Tree_node@U?$pair@$$CBV?$basic_string@DU?$char_traits@D@std@@V?$allocator@D@2@@std@@V?$shared_ptr@VRawImageData@@@2@@std@@PAX@std@@@std@@@std@@QAE@XZ 0040d7c0 f i DraggingDemo.obj
 0001:0000c7e0       ??1?$_Tree_temp_node_alloc@V?$allocator@U?$_Tree_node@U?$pair@$$CBV?$basic_string@DU?$char_traits@D@std@@V?$allocator@D@2@@std@@V?$weak_ptr@VRawImageData@@@2@@std@@PAX@std@@@std@@@std@@QAE@XZ 0040d7e0 f i DraggingDemo.obj
 0001:0000c800       ??1?$_Tree_unchecked_const_iterator@V?$_Tree_val@U?$_Tree_simple_types@U?$pair@$$CBV?$basic_string@DU?$char_traits@D@std@@V?$allocator@D@2@@std@@V?$shared_ptr@VRawImageData@@@2@@std@@@std@@@std@@U_Iterator_base12@2@@std@@QAE@XZ 0040d800 f i DraggingDemo.obj
 0001:0000c820       ??1?$_Tree_unchecked_const_iterator@V?$_Tree_val@U?$_Tree_simple_types@U?$pair@$$CBV?$basic_string@DU?$char_traits@D@std@@V?$allocator@D@2@@std@@V?$weak_ptr@VRawImageData@@@2@@std@@@std@@@std@@U_Iterator_base12@2@@std@@QAE@XZ 0040d820 f i DraggingDemo.obj
 0001:0000c840       ??1?$_Uninitialized_backout_al@V?$allocator@PAVDisplayableObject@@@std@@@std@@QAE@XZ 0040d840 f i DraggingDemo.obj
 0001:0000c870       ??1?$basic_string@DU?$char_traits@D@std@@V?$allocator@D@2@@std@@QAE@XZ 0040d870 f i DraggingDemo.obj
 0001:0000c8e0       ??1?$map@V?$basic_string@DU?$char_traits@D@std@@V?$allocator@D@2@@std@@V?$weak_ptr@VRawImageData@@@2@U?$less@V?$basic_string@DU?$char_traits@D@std@@V?$allocator@D@2@@std@@@2@V?$allocator@U?$pair@$$CBV?$basic_string@DU?$char_traits@D@std@@V?$allocator@D@2@@std@@V?$weak_ptr@VRawImageData@@@2@@std@@@2@@std@@QAE@XZ 0040d8e0 f i DraggingDemo.obj
 0001:0000c900       ??1?$pair@$$CBV?$basic_string@DU?$char_traits@D@std@@V?$allocator@D@2@@std@@V?$shared_ptr@VRawImageData@@@2@@std@@QAE@XZ 0040d900 f i DraggingDemo.obj
 0001:0000c930       ??1?$pair@$$CBV?$basic_string@DU?$char_traits@D@std@@V?$allocator@D@2@@std@@V?$weak_ptr@VRawImageData@@@2@@std@@QAE@XZ 0040d930 f i DraggingDemo.obj
 0001:0000c960       ??1?$pair@V?$_Tree_iterator@V?$_Tree_val@U?$_Tree_simple_types@U?$pair@$$CBV?$basic_string@DU?$char_traits@D@std@@V?$allocator@D@2@@std@@V?$shared_ptr@VRawImageData@@@2@@std@@@std@@@std@@@std@@_N@std@@QAE@XZ 0040d960 f i DraggingDemo.obj
 0001:0000c980       ??1?$pair@V?$_Tree_iterator@V?$_Tree_val@U?$_Tree_simple_types@U?$pair@$$CBV?$basic_string@DU?$char_traits@D@std@@V?$allocator@D@2@@std@@V?$weak_ptr@VRawImageData@@@2@@std@@@std@@@std@@@std@@_N@std@@QAE@XZ 0040d980 f i DraggingDemo.obj
 0001:0000c9a0       ??1?$pair@V?$basic_string@DU?$char_traits@D@std@@V?$allocator@D@2@@std@@V?$shared_ptr@VRawImageData@@@2@@std@@QAE@XZ 0040d9a0 f i DraggingDemo.obj
 0001:0000c9d0       ??1?$pair@V?$basic_string@DU?$char_traits@D@std@@V?$allocator@D@2@@std@@V?$weak_ptr@VRawImageData@@@2@@std@@QAE@XZ 0040d9d0 f i DraggingDemo.obj
 0001:0000ca00       ??1?$shared_ptr@VRawImageData@@@std@@QAE@XZ 0040da00 f i DraggingDemo.obj
 0001:0000ca20       ??1?$weak_ptr@VRawImageData@@@std@@QAE@XZ 0040da20 f i DraggingDemo.obj
 0001:0000ca40       ??1DragableBaseClassObject@@UAE@XZ 0040da40 f i DraggingDemo.obj
 0001:0000ca60       ??1DragableImageObject@@UAE@XZ 0040da60 f i DraggingDemo.obj
 0001:0000ca90       ??1DragableObject@@UAE@XZ  0040da90 f i DraggingDemo.obj
 0001:0000cab0       ??1ImageObject@@UAE@XZ     0040dab0 f i DraggingDemo.obj
 0001:0000cae0       ??1RawImageData@@QAE@XZ    0040dae0 f i DraggingDemo.obj
 0001:0000cb50       ??1SimpleImage@@QAE@XZ     0040db50 f i DraggingDemo.obj
 0001:0000cba0       ??1_Bxty@?$_String_val@U?$_Simple_types@D@std@@@std@@QAE@XZ 0040dba0 f i DraggingDemo.obj
 0001:0000cbb0       ??1_Iterator_base12@std@@QAE@XZ 0040dbb0 f i DraggingDemo.obj
 0001:0000cbd0       ??1_Reallocation_guard@?$vector@PAVDisplayableObject@@V?$allocator@PAVDisplayableObject@@@std@@@std@@QAE@XZ 0040dbd0 f i DraggingDemo.obj
 0001:0000cc30       ??1_Ref_count_base@std@@UAE@XZ 0040dc30 f i DraggingDemo.obj
 0001:0000cc40       ??1_Sentry_base@?$basic_ostream@DU?$char_traits@D@std@@@std@@QAE@XZ 0040dc40 f i DraggingDemo.obj
 0001:0000ccd0       ??1bad_alloc@std@@UAE@XZ   0040dcd0 f i DraggingDemo.obj
 0001:0000ccf0       ??1bad_array_new_length@std@@UAE@XZ 0040dcf0 f i DraggingDemo.obj
 0001:0000cd10       ??1exception@std@@UAE@XZ   0040dd10 f i DraggingDemo.obj
 0001:0000cd40       ??1sentry@?$basic_ostream@DU?$char_traits@D@std@@@std@@QAE@XZ 0040dd40 f i DraggingDemo.obj
 0001:0000cda0       ??2@YAPAXIPAX@Z            0040dda0 f i DraggingDemo.obj
 0001:0000cdb0       ??4_Iterator_base12@std@@QAEAAU01@ABU01@@Z 0040ddb0 f i DraggingDemo.obj
 0001:0000cde0       ??8?$_Tree_const_iterator@V?$_Tree_val@U?$_Tree_simple_types@U?$pair@$$CBV?$basic_string@DU?$char_traits@D@std@@V?$allocator@D@2@@std@@V?$weak_ptr@VRawImageData@@@2@@std@@@std@@@std@@@std@@QBE_NABV01@@Z 0040dde0 f i DraggingDemo.obj
 0001:0000cea0       ??9?$_Tree_const_iterator@V?$_Tree_val@U?$_Tree_simple_types@U?$pair@$$CBV?$basic_string@DU?$char_traits@D@std@@V?$allocator@D@2@@std@@V?$weak_ptr@VRawImageData@@@2@@std@@@std@@@std@@@std@@QBE_NABV01@@Z 0040dea0 f i DraggingDemo.obj
 0001:0000cef0       ??A?$vector@PAVDisplayableObject@@V?$allocator@PAVDisplayableObject@@@std@@@std@@QAEAAPAVDisplayableObject@@I@Z 0040def0 f i DraggingDemo.obj
 0001:0000cfa0       ??Bsentry@?$basic_ostream@DU?$char_traits@D@std@@@std@@QBE_NXZ 0040dfa0 f i DraggingDemo.obj
 0001:0000cfc0       ??C?$_Tree_iterator@V?$_Tree_val@U?$_Tree_simple_types@U?$pair@$$CBV?$basic_string@DU?$char_traits@D@std@@V?$allocator@D@2@@std@@V?$weak_ptr@VRawImageData@@@2@@std@@@std@@@std@@@std@@QBEPAU?$pair@$$CBV?$basic_string@DU?$char_traits@D@std@@V?$allocator@D@2@@std@@V?$weak_ptr@VRawImageData@@@2@@1@XZ 0040dfc0 f i DraggingDemo.obj
 0001:0000cff0       ??D?$_Tree_const_iterator@V?$_Tree_val@U?$_Tree_simple_types@U?$pair@$$CBV?$basic_string@DU?$char_traits@D@std@@V?$allocator@D@2@@std@@V?$weak_ptr@VRawImageData@@@2@@std@@@std@@@std@@@std@@QBEABU?$pair@$$CBV?$basic_string@DU?$char_traits@D@std@@V?$allocator@D@2@@std@@V?$weak_ptr@VRawImageData@@@2@@1@XZ 0040dff0 f i DraggingDemo.obj
 0001:0000d0d0       ??$?0ABV?$allocator@V?$vector@MV?$allocator@M@std@@@std@@@std@@$$V@?$_Compressed_pair@V?$allocator@V?$vector@MV?$allocator@M@std@@@std@@@std@@V?$_Vector_val@U?$_Simple_types@V?$vector@MV?$allocator@M@std@@@std@@@std@@@2@$00@std@@QAE@U_One_then_variadic_args_t@1@ABV?$allocator@V?$vector@MV?$allocator@M@std@@@std@@@1@@Z 0040e0d0 f i gameSetupState.obj
 0001:0000d100       ??D?$_Tree_iterator@V?$_Tree_val@U?$_Tree_simple_types@U?$pair@$$CBV?$basic_string@DU?$char_traits@D@std@@V?$allocator@D@2@@std@@V?$weak_ptr@VRawImageData@@@2@@std@@@std@@@std@@@std@@QBEAAU?$pair@$$CBV?$basic_string@DU?$char_traits@D@std@@V?$allocator@D@2@@std@@V?$weak_ptr@VRawImageData@@@2@@1@XZ 0040e100 f i DraggingDemo.obj
 0001:0000d120       ??E?$_Tree_unchecked_const_iterator@V?$_Tree_val@U?$_Tree_simple_types@U?$pair@$$CBV?$basic_string@DU?$char_traits@D@std@@V?$allocator@D@2@@std@@V?$weak_ptr@VRawImageData@@@2@@std@@@std@@@std@@U_Iterator_base0@2@@std@@QAEAAV01@XZ 0040e120 f i DraggingDemo.obj
 0001:0000d1b0       ??R?$less@V?$basic_string@DU?$char_traits@D@std@@V?$allocator@D@2@@std@@@std@@QBE_NABV?$basic_string@DU?$char_traits@D@std@@V?$allocator@D@2@@1@0@Z 0040e1b0 f i DraggingDemo.obj
 0001:0000d1e0       ??_E?$_Ref_count@VRawImageData@@@std@@UAEPAXI@Z 0040e1e0 f i DraggingDemo.obj
 0001:0000d1e0       ??_G?$_Ref_count@VRawImageData@@@std@@UAEPAXI@Z 0040e1e0 f i DraggingDemo.obj
 0001:0000d220       ??_G?$pair@$$CBV?$basic_string@DU?$char_traits@D@std@@V?$allocator@D@2@@std@@V?$shared_ptr@VRawImageData@@@2@@std@@QAEPAXI@Z 0040e220 f i DraggingDemo.obj
 0001:0000d260       ??_G?$pair@$$CBV?$basic_string@DU?$char_traits@D@std@@V?$allocator@D@2@@std@@V?$weak_ptr@VRawImageData@@@2@@std@@QAEPAXI@Z 0040e260 f i DraggingDemo.obj
 0001:0000d2a0       ??_EDragableBaseClassObject@@UAEPAXI@Z 0040e2a0 f i DraggingDemo.obj
 0001:0000d2a0       ??_GDragableBaseClassObject@@UAEPAXI@Z 0040e2a0 f i DraggingDemo.obj
 0001:0000d2e0       ??_EDragableImageObject@@UAEPAXI@Z 0040e2e0 f i DraggingDemo.obj
 0001:0000d2e0       ??_GDragableImageObject@@UAEPAXI@Z 0040e2e0 f i DraggingDemo.obj
 0001:0000d320       ??_EDragableObject@@UAEPAXI@Z 0040e320 f i DraggingDemo.obj
 0001:0000d320       ??_GDragableObject@@UAEPAXI@Z 0040e320 f i DraggingDemo.obj
 0001:0000d360       ??_EImageObject@@UAEPAXI@Z 0040e360 f i DraggingDemo.obj
 0001:0000d360       ??_GImageObject@@UAEPAXI@Z 0040e360 f i DraggingDemo.obj
 0001:0000d3a0       ??_GRawImageData@@QAEPAXI@Z 0040e3a0 f i DraggingDemo.obj
 0001:0000d3e0       ??_Ebad_alloc@std@@UAEPAXI@Z 0040e3e0 f i DraggingDemo.obj
 0001:0000d3e0       ??_Gbad_alloc@std@@UAEPAXI@Z 0040e3e0 f i DraggingDemo.obj
 0001:0000d420       ??_Ebad_array_new_length@std@@UAEPAXI@Z 0040e420 f i DraggingDemo.obj
 0001:0000d420       ??_Gbad_array_new_length@std@@UAEPAXI@Z 0040e420 f i DraggingDemo.obj
 0001:0000d460       ??_Eexception@std@@UAEPAXI@Z 0040e460 f i DraggingDemo.obj
 0001:0000d460       ??_Gexception@std@@UAEPAXI@Z 0040e460 f i DraggingDemo.obj
 0001:0000d4a0       ?_Activate_SSO_buffer@?$_String_val@U?$_Simple_types@D@std@@@std@@QAEXXZ 0040e4a0 f i DraggingDemo.obj
 0001:0000d4b0       ?_Adjust_manually_vector_aligned@std@@YAXAAPAXAAI@Z 0040e4b0 f i DraggingDemo.obj
 0001:0000d5c0       ?_Reset_back@?$basic_filebuf@DU?$char_traits@D@std@@@std@@AAEXXZ 0040e5c0 f i gameState.obj
 0001:0000d600       ?_Adopt@_Iterator_base0@std@@QAEXPBX@Z 0040e600 f i DraggingDemo.obj
 0001:0000d610       ?_Adopt@_Iterator_base12@std@@QAEXPBU_Container_base12@2@@Z 0040e610 f i DraggingDemo.obj
 0001:0000d630       ?_Adopt_locked@_Iterator_base12@std@@AAEXPBU_Container_base12@2@@Z 0040e630 f i DraggingDemo.obj
 0001:0000d670       ?_Adopt_unlocked@_Iterator_base12@std@@AAEXPBU_Container_base12@2@@Z 0040e670 f i DraggingDemo.obj
 0001:0000d6f0       ?_Alloc_sentinel_and_proxy@?$_Tree@V?$_Tmap_traits@V?$basic_string@DU?$char_traits@D@std@@V?$allocator@D@2@@std@@V?$shared_ptr@VRawImageData@@@2@U?$less@V?$basic_string@DU?$char_traits@D@std@@V?$allocator@D@2@@std@@@2@V?$allocator@U?$pair@$$CBV?$basic_string@DU?$char_traits@D@std@@V?$allocator@D@2@@std@@V?$shared_ptr@VRawImageData@@@2@@std@@@2@$0A@@std@@@std@@IAEXXZ 0040e6f0 f i DraggingDemo.obj
 0001:0000d790       ??$?0U?$default_delete@V?$tuple@P8gameSetupState@@AEXXZPAV1@@std@@@std@@$0A@@?$unique_ptr@V?$tuple@P8gameSetupState@@AEXXZPAV1@@std@@U?$default_delete@V?$tuple@P8gameSetupState@@AEXXZPAV1@@std@@@2@@std@@QAE@PAV?$tuple@P8gameSetupState@@AEXXZPAV1@@1@@Z 0040e790 f i gameSetupState.obj
 0001:0000d7c0       ?_Alloc_sentinel_and_proxy@?$_Tree@V?$_Tmap_traits@V?$basic_string@DU?$char_traits@D@std@@V?$allocator@D@2@@std@@V?$weak_ptr@VRawImageData@@@2@U?$less@V?$basic_string@DU?$char_traits@D@std@@V?$allocator@D@2@@std@@@2@V?$allocator@U?$pair@$$CBV?$basic_string@DU?$char_traits@D@std@@V?$allocator@D@2@@std@@V?$weak_ptr@VRawImageData@@@2@@std@@@2@$0A@@std@@@std@@IAEXXZ 0040e7c0 f i DraggingDemo.obj
 0001:0000d860       ??$?0V?$allocator@M@std@@$$V@?$_Compressed_pair@V?$allocator@M@std@@V?$_Vector_val@U?$_Simple_types@M@std@@@2@$00@std@@QAE@U_One_then_variadic_args_t@1@$$QAV?$allocator@M@1@@Z 0040e860 f i gameSetupState.obj
 0001:0000d890       ?_Allocate@?$_Alloc_construct_ptr@V?$allocator@U?$_Tree_node@U?$pair@$$CBV?$basic_string@DU?$char_traits@D@std@@V?$allocator@D@2@@std@@V?$shared_ptr@VRawImageData@@@2@@std@@PAX@std@@@std@@@std@@QAEXXZ 0040e890 f i DraggingDemo.obj
 0001:0000d8c0       ?_Allocate@?$_Alloc_construct_ptr@V?$allocator@U?$_Tree_node@U?$pair@$$CBV?$basic_string@DU?$char_traits@D@std@@V?$allocator@D@2@@std@@V?$weak_ptr@VRawImageData@@@2@@std@@PAX@std@@@std@@@std@@QAEXXZ 0040e8c0 f i DraggingDemo.obj
 0001:0000d8f0       ?_Allocate@_Default_allocate_traits@std@@SAPAXI@Z 0040e8f0 f i DraggingDemo.obj
 0001:0000d910       ?_Assign_locked@_Iterator_base12@std@@AAEXABU12@@Z 0040e910 f i DraggingDemo.obj
 0001:0000d950       ?_Assign_unlocked@_Iterator_base12@std@@AAEXABU12@@Z 0040e950 f i DraggingDemo.obj
 0001:0000d9a0       ?_Calculate_growth@?$basic_string@DU?$char_traits@D@std@@V?$allocator@D@2@@std@@CAIIII@Z 0040e9a0 f i DraggingDemo.obj
 0001:0000da10       ?_Calculate_growth@?$vector@PAVDisplayableObject@@V?$allocator@PAVDisplayableObject@@@std@@@std@@ABEII@Z 0040ea10 f i DraggingDemo.obj
 0001:0000da80       ?_Change_array@?$vector@PAVDisplayableObject@@V?$allocator@PAVDisplayableObject@@@std@@@std@@AAEXQAPAVDisplayableObject@@II@Z 0040ea80 f i DraggingDemo.obj
 0001:0000db50       ?_Check_grow_by_1@?$_Tree@V?$_Tmap_traits@V?$basic_string@DU?$char_traits@D@std@@V?$allocator@D@2@@std@@V?$shared_ptr@VRawImageData@@@2@U?$less@V?$basic_string@DU?$char_traits@D@std@@V?$allocator@D@2@@std@@@2@V?$allocator@U?$pair@$$CBV?$basic_string@DU?$char_traits@D@std@@V?$allocator@D@2@@std@@V?$shared_ptr@VRawImageData@@@2@@std@@@2@$0A@@std@@@std@@IAEXXZ 0040eb50 f i DraggingDemo.obj
 0001:0000db90       ?_Check_grow_by_1@?$_Tree@V?$_Tmap_traits@V?$basic_string@DU?$char_traits@D@std@@V?$allocator@D@2@@std@@V?$weak_ptr@VRawImageData@@@2@U?$less@V?$basic_string@DU?$char_traits@D@std@@V?$allocator@D@2@@std@@@2@V?$allocator@U?$pair@$$CBV?$basic_string@DU?$char_traits@D@std@@V?$allocator@D@2@@std@@V?$weak_ptr@VRawImageData@@@2@@std@@@2@$0A@@std@@@std@@IAEXXZ 0040eb90 f i DraggingDemo.obj
 0001:0000dbd0       ?_Deallocate_for_capacity@?$basic_string@DU?$char_traits@D@std@@V?$allocator@D@2@@std@@CAXAAV?$allocator@D@2@QADI@Z 0040ebd0 f i DraggingDemo.obj
 0001:0000dbf0       ?_Decref@?$_Ptr_base@VRawImageData@@@std@@IAEXXZ 0040ebf0 f i DraggingDemo.obj
 0001:0000dc20       ?_Decref@_Ref_count_base@std@@QAEXXZ 0040ec20 f i DraggingDemo.obj
 0001:0000dc60       ?_Decwref@?$_Ptr_base@VRawImageData@@@std@@IAEXXZ 0040ec60 f i DraggingDemo.obj
 0001:0000dc90       ?_Decwref@_Ref_count_base@std@@QAEXXZ 0040ec90 f i DraggingDemo.obj
 0001:0000dcd0       ?_Delete_this@?$_Ref_count@VRawImageData@@@std@@EAEXXZ 0040ecd0 f i DraggingDemo.obj
 0001:0000dd20       ?_Destroy@?$_Ref_count@VRawImageData@@@std@@EAEXXZ 0040ed20 f i DraggingDemo.obj
 0001:0000dd60       ?_Erase_unchecked@?$_Tree@V?$_Tmap_traits@V?$basic_string@DU?$char_traits@D@std@@V?$allocator@D@2@@std@@V?$weak_ptr@VRawImageData@@@2@U?$less@V?$basic_string@DU?$char_traits@D@std@@V?$allocator@D@2@@std@@@2@V?$allocator@U?$pair@$$CBV?$basic_string@DU?$char_traits@D@std@@V?$allocator@D@2@@std@@V?$weak_ptr@VRawImageData@@@2@@std@@@2@$0A@@std@@@std@@AAEPAU?$_Tree_node@U?$pair@$$CBV?$basic_string@DU?$char_traits@D@std@@V?$allocator@D@2@@std@@V?$weak_ptr@VRawImageData@@@2@@std@@PAX@2@V?$_Tree_unchecked_const_iterator@V?$_Tree_val@U?$_Tree_simple_types@U?$pair@$$CBV?$basic_string@DU?$char_traits@D@std@@V?$allocator@D@2@@std@@V?$weak_ptr@VRawImageData@@@2@@std@@@std@@@std@@U_Iterator_base0@2@@2@@Z 0040ed60 f i DraggingDemo.obj
 0001:0000dde0       ?_Extract@?$_In_place_key_extract_map_impl@V?$basic_string@DU?$char_traits@D@std@@V?$allocator@D@2@@std@@U?$pair@V?$basic_string@DU?$char_traits@D@std@@V?$allocator@D@2@@std@@V?$shared_ptr@VRawImageData@@@2@@2@@std@@SAABV?$basic_string@DU?$char_traits@D@std@@V?$allocator@D@2@@2@ABU?$pair@V?$basic_string@DU?$char_traits@D@std@@V?$allocator@D@2@@std@@V?$shared_ptr@VRawImageData@@@2@@2@@Z 0040ede0 f i DraggingDemo.obj
 0001:0000ddf0       ?_Extract@?$_In_place_key_extract_map_impl@V?$basic_string@DU?$char_traits@D@std@@V?$allocator@D@2@@std@@U?$pair@V?$basic_string@DU?$char_traits@D@std@@V?$allocator@D@2@@std@@V?$weak_ptr@VRawImageData@@@2@@2@@std@@SAABV?$basic_string@DU?$char_traits@D@std@@V?$allocator@D@2@@2@ABU?$pair@V?$basic_string@DU?$char_traits@D@std@@V?$allocator@D@2@@std@@V?$weak_ptr@VRawImageData@@@2@@2@@Z 0040edf0 f i DraggingDemo.obj
 0001:0000de00       ?_Extract@?$_Tree_val@U?$_Tree_simple_types@U?$pair@$$CBV?$basic_string@DU?$char_traits@D@std@@V?$allocator@D@2@@std@@V?$weak_ptr@VRawImageData@@@2@@std@@@std@@@std@@QAEPAU?$_Tree_node@U?$pair@$$CBV?$basic_string@DU?$char_traits@D@std@@V?$allocator@D@2@@std@@V?$weak_ptr@VRawImageData@@@2@@std@@PAX@2@V?$_Tree_unchecked_const_iterator@V?$_Tree_val@U?$_Tree_simple_types@U?$pair@$$CBV?$basic_string@DU?$char_traits@D@std@@V?$allocator@D@2@@std@@V?$weak_ptr@VRawImageData@@@2@@std@@@std@@@std@@U_Iterator_base0@2@@2@@Z 0040ee00 f i DraggingDemo.obj
 0001:0000e230       ??$_Fputc@D@std@@YA_NDPAU_iobuf@@@Z 0040f230 f i gameState.obj
 0001:0000e270       ??0bad_cast@std@@QAE@XZ    0040f270 f i gameState.obj
 0001:0000e2a0       ??0pauseState@@QAE@PAVPsyeb10Engine@@@Z 0040f2a0 f i gameState.obj
 0001:0000e340       ?_Get_deleter@_Ref_count_base@std@@UBEPAXABVtype_info@@@Z 0040f340 f i DraggingDemo.obj
 0001:0000e360       ?_Get_first@?$_Compressed_pair@U?$less@V?$basic_string@DU?$char_traits@D@std@@V?$allocator@D@2@@std@@@std@@V?$_Compressed_pair@V?$allocator@U?$_Tree_node@U?$pair@$$CBV?$basic_string@DU?$char_traits@D@std@@V?$allocator@D@2@@std@@V?$shared_ptr@VRawImageData@@@2@@std@@PAX@std@@@std@@V?$_Tree_val@U?$_Tree_simple_types@U?$pair@$$CBV?$basic_string@DU?$char_traits@D@std@@V?$allocator@D@2@@std@@V?$shared_ptr@VRawImageData@@@2@@std@@@std@@@2@$00@2@$00@std@@QBEABU?$less@V?$basic_string@DU?$char_traits@D@std@@V?$allocator@D@2@@std@@@2@XZ 0040f360 f i DraggingDemo.obj
 0001:0000e380       ?_Get_first@?$_Compressed_pair@U?$less@V?$basic_string@DU?$char_traits@D@std@@V?$allocator@D@2@@std@@@std@@V?$_Compressed_pair@V?$allocator@U?$_Tree_node@U?$pair@$$CBV?$basic_string@DU?$char_traits@D@std@@V?$allocator@D@2@@std@@V?$weak_ptr@VRawImageData@@@2@@std@@PAX@std@@@std@@V?$_Tree_val@U?$_Tree_simple_types@U?$pair@$$CBV?$basic_string@DU?$char_traits@D@std@@V?$allocator@D@2@@std@@V?$weak_ptr@VRawImageData@@@2@@std@@@std@@@2@$00@2@$00@std@@QBEABU?$less@V?$basic_string@DU?$char_traits@D@std@@V?$allocator@D@2@@std@@@2@XZ 0040f380 f i DraggingDemo.obj
 0001:0000e3a0       ?_Get_first@?$_Compressed_pair@V?$allocator@D@std@@V?$_String_val@U?$_Simple_types@D@std@@@2@$00@std@@QAEAAV?$allocator@D@2@XZ 0040f3a0 f i DraggingDemo.obj
 0001:0000e3c0       ?_Get_first@?$_Compressed_pair@V?$allocator@D@std@@V?$_String_val@U?$_Simple_types@D@std@@@2@$00@std@@QBEABV?$allocator@D@2@XZ 0040f3c0 f i DraggingDemo.obj
 0001:0000e3e0       ?_Get_first@?$_Compressed_pair@V?$allocator@PAVDisplayableObject@@@std@@V?$_Vector_val@U?$_Simple_types@PAVDisplayableObject@@@std@@@2@$00@std@@QAEAAV?$allocator@PAVDisplayableObject@@@2@XZ 0040f3e0 f i DraggingDemo.obj
 0001:0000e400       ?_Get_first@?$_Compressed_pair@V?$allocator@PAVDisplayableObject@@@std@@V?$_Vector_val@U?$_Simple_types@PAVDisplayableObject@@@std@@@2@$00@std@@QBEABV?$allocator@PAVDisplayableObject@@@2@XZ 0040f400 f i DraggingDemo.obj
 0001:0000e420       ?_Get_first@?$_Compressed_pair@V?$allocator@U?$_Tree_node@U?$pair@$$CBV?$basic_string@DU?$char_traits@D@std@@V?$allocator@D@2@@std@@V?$shared_ptr@VRawImageData@@@2@@std@@PAX@std@@@std@@V?$_Tree_val@U?$_Tree_simple_types@U?$pair@$$CBV?$basic_string@DU?$char_traits@D@std@@V?$allocator@D@2@@std@@V?$shared_ptr@VRawImageData@@@2@@std@@@std@@@2@$00@std@@QAEAAV?$allocator@U?$_Tree_node@U?$pair@$$CBV?$basic_string@DU?$char_traits@D@std@@V?$allocator@D@2@@std@@V?$shared_ptr@VRawImageData@@@2@@std@@PAX@std@@@2@XZ 0040f420 f i DraggingDemo.obj
 0001:0000e440       ?_Get_first@?$_Compressed_pair@V?$allocator@U?$_Tree_node@U?$pair@$$CBV?$basic_string@DU?$char_traits@D@std@@V?$allocator@D@2@@std@@V?$shared_ptr@VRawImageData@@@2@@std@@PAX@std@@@std@@V?$_Tree_val@U?$_Tree_simple_types@U?$pair@$$CBV?$basic_string@DU?$char_traits@D@std@@V?$allocator@D@2@@std@@V?$shared_ptr@VRawImageData@@@2@@std@@@std@@@2@$00@std@@QBEABV?$allocator@U?$_Tree_node@U?$pair@$$CBV?$basic_string@DU?$char_traits@D@std@@V?$allocator@D@2@@std@@V?$shared_ptr@VRawImageData@@@2@@std@@PAX@std@@@2@XZ 0040f440 f i DraggingDemo.obj
 0001:0000e460       ?_Get_first@?$_Compressed_pair@V?$allocator@U?$_Tree_node@U?$pair@$$CBV?$basic_string@DU?$char_traits@D@std@@V?$allocator@D@2@@std@@V?$weak_ptr@VRawImageData@@@2@@std@@PAX@std@@@std@@V?$_Tree_val@U?$_Tree_simple_types@U?$pair@$$CBV?$basic_string@DU?$char_traits@D@std@@V?$allocator@D@2@@std@@V?$weak_ptr@VRawImageData@@@2@@std@@@std@@@2@$00@std@@QAEAAV?$allocator@U?$_Tree_node@U?$pair@$$CBV?$basic_string@DU?$char_traits@D@std@@V?$allocator@D@2@@std@@V?$weak_ptr@VRawImageData@@@2@@std@@PAX@std@@@2@XZ 0040f460 f i DraggingDemo.obj
 0001:0000e480       ?_Get_first@?$_Compressed_pair@V?$allocator@U?$_Tree_node@U?$pair@$$CBV?$basic_string@DU?$char_traits@D@std@@V?$allocator@D@2@@std@@V?$weak_ptr@VRawImageData@@@2@@std@@PAX@std@@@std@@V?$_Tree_val@U?$_Tree_simple_types@U?$pair@$$CBV?$basic_string@DU?$char_traits@D@std@@V?$allocator@D@2@@std@@V?$weak_ptr@VRawImageData@@@2@@std@@@std@@@2@$00@std@@QBEABV?$allocator@U?$_Tree_node@U?$pair@$$CBV?$basic_string@DU?$char_traits@D@std@@V?$allocator@D@2@@std@@V?$weak_ptr@VRawImageData@@@2@@std@@PAX@std@@@2@XZ 0040f480 f i DraggingDemo.obj
 0001:0000e4a0       ?_Get_scary@?$_Tree@V?$_Tmap_traits@V?$basic_string@DU?$char_traits@D@std@@V?$allocator@D@2@@std@@V?$shared_ptr@VRawImageData@@@2@U?$less@V?$basic_string@DU?$char_traits@D@std@@V?$allocator@D@2@@std@@@2@V?$allocator@U?$pair@$$CBV?$basic_string@DU?$char_traits@D@std@@V?$allocator@D@2@@std@@V?$shared_ptr@VRawImageData@@@2@@std@@@2@$0A@@std@@@std@@IAEPAV?$_Tree_val@U?$_Tree_simple_types@U?$pair@$$CBV?$basic_string@DU?$char_traits@D@std@@V?$allocator@D@2@@std@@V?$shared_ptr@VRawImageData@@@2@@std@@@std@@@2@XZ 0040f4a0 f i DraggingDemo.obj
 0001:0000e4c0       ?_Get_scary@?$_Tree@V?$_Tmap_traits@V?$basic_string@DU?$char_traits@D@std@@V?$allocator@D@2@@std@@V?$shared_ptr@VRawImageData@@@2@U?$less@V?$basic_string@DU?$char_traits@D@std@@V?$allocator@D@2@@std@@@2@V?$allocator@U?$pair@$$CBV?$basic_string@DU?$char_traits@D@std@@V?$allocator@D@2@@std@@V?$shared_ptr@VRawImageData@@@2@@std@@@2@$0A@@std@@@std@@IBEPBV?$_Tree_val@U?$_Tree_simple_types@U?$pair@$$CBV?$basic_string@DU?$char_traits@D@std@@V?$allocator@D@2@@std@@V?$shared_ptr@VRawImageData@@@2@@std@@@std@@@2@XZ 0040f4c0 f i DraggingDemo.obj
 0001:0000e4e0       ?_Get_scary@?$_Tree@V?$_Tmap_traits@V?$basic_string@DU?$char_traits@D@std@@V?$allocator@D@2@@std@@V?$weak_ptr@VRawImageData@@@2@U?$less@V?$basic_string@DU?$char_traits@D@std@@V?$allocator@D@2@@std@@@2@V?$allocator@U?$pair@$$CBV?$basic_string@DU?$char_traits@D@std@@V?$allocator@D@2@@std@@V?$weak_ptr@VRawImageData@@@2@@std@@@2@$0A@@std@@@std@@IAEPAV?$_Tree_val@U?$_Tree_simple_types@U?$pair@$$CBV?$basic_string@DU?$char_traits@D@std@@V?$allocator@D@2@@std@@V?$weak_ptr@VRawImageData@@@2@@std@@@std@@@2@XZ 0040f4e0 f i DraggingDemo.obj
 0001:0000e500       ?_Get_scary@?$_Tree@V?$_Tmap_traits@V?$basic_string@DU?$char_traits@D@std@@V?$allocator@D@2@@std@@V?$weak_ptr@VRawImageData@@@2@U?$less@V?$basic_string@DU?$char_traits@D@std@@V?$allocator@D@2@@std@@@2@V?$allocator@U?$pair@$$CBV?$basic_string@DU?$char_traits@D@std@@V?$allocator@D@2@@std@@V?$weak_ptr@VRawImageData@@@2@@std@@@2@$0A@@std@@@std@@IBEPBV?$_Tree_val@U?$_Tree_simple_types@U?$pair@$$CBV?$basic_string@DU?$char_traits@D@std@@V?$allocator@D@2@@std@@V?$weak_ptr@VRawImageData@@@2@@std@@@std@@@2@XZ 0040f500 f i DraggingDemo.obj
 0001:0000e520       ?_Getal@?$_Tree@V?$_Tmap_traits@V?$basic_string@DU?$char_traits@D@std@@V?$allocator@D@2@@std@@V?$shared_ptr@VRawImageData@@@2@U?$less@V?$basic_string@DU?$char_traits@D@std@@V?$allocator@D@2@@std@@@2@V?$allocator@U?$pair@$$CBV?$basic_string@DU?$char_traits@D@std@@V?$allocator@D@2@@std@@V?$shared_ptr@VRawImageData@@@2@@std@@@2@$0A@@std@@@std@@IAEAAV?$allocator@U?$_Tree_node@U?$pair@$$CBV?$basic_string@DU?$char_traits@D@std@@V?$allocator@D@2@@std@@V?$shared_ptr@VRawImageData@@@2@@std@@PAX@std@@@2@XZ 0040f520 f i DraggingDemo.obj
 0001:0000e540       ?_Getal@?$_Tree@V?$_Tmap_traits@V?$basic_string@DU?$char_traits@D@std@@V?$allocator@D@2@@std@@V?$shared_ptr@VRawImageData@@@2@U?$less@V?$basic_string@DU?$char_traits@D@std@@V?$allocator@D@2@@std@@@2@V?$allocator@U?$pair@$$CBV?$basic_string@DU?$char_traits@D@std@@V?$allocator@D@2@@std@@V?$shared_ptr@VRawImageData@@@2@@std@@@2@$0A@@std@@@std@@IBEABV?$allocator@U?$_Tree_node@U?$pair@$$CBV?$basic_string@DU?$char_traits@D@std@@V?$allocator@D@2@@std@@V?$shared_ptr@VRawImageData@@@2@@std@@PAX@std@@@2@XZ 0040f540 f i DraggingDemo.obj
 0001:0000e560       ?_Getal@?$_Tree@V?$_Tmap_traits@V?$basic_string@DU?$char_traits@D@std@@V?$allocator@D@2@@std@@V?$weak_ptr@VRawImageData@@@2@U?$less@V?$basic_string@DU?$char_traits@D@std@@V?$allocator@D@2@@std@@@2@V?$allocator@U?$pair@$$CBV?$basic_string@DU?$char_traits@D@std@@V?$allocator@D@2@@std@@V?$weak_ptr@VRawImageData@@@2@@std@@@2@$0A@@std@@@std@@IAEAAV?$allocator@U?$_Tree_node@U?$pair@$$CBV?$basic_string@DU?$char_traits@D@std@@V?$allocator@D@2@@std@@V?$weak_ptr@VRawImageData@@@2@@std@@PAX@std@@@2@XZ 0040f560 f i DraggingDemo.obj
 0001:0000e580       ?_Getal@?$_Tree@V?$_Tmap_traits@V?$basic_string@DU?$char_traits@D@std@@V?$allocator@D@2@@std@@V?$weak_ptr@VRawImageData@@@2@U?$less@V?$basic_string@DU?$char_traits@D@std@@V?$allocator@D@2@@std@@@2@V?$allocator@U?$pair@$$CBV?$basic_string@DU?$char_traits@D@std@@V?$allocator@D@2@@std@@V?$weak_ptr@VRawImageData@@@2@@std@@@2@$0A@@std@@@std@@IBEABV?$allocator@U?$_Tree_node@U?$pair@$$CBV?$basic_string@DU?$char_traits@D@std@@V?$allocator@D@2@@std@@V?$weak_ptr@VRawImageData@@@2@@std@@PAX@std@@@2@XZ 0040f580 f i DraggingDemo.obj
 0001:0000e5a0       ?_Getal@?$basic_string@DU?$char_traits@D@std@@V?$allocator@D@2@@std@@AAEAAV?$allocator@D@2@XZ 0040f5a0 f i DraggingDemo.obj
 0001:0000e5c0       ?_Getal@?$basic_string@DU?$char_traits@D@std@@V?$allocator@D@2@@std@@ABEABV?$allocator@D@2@XZ 0040f5c0 f i DraggingDemo.obj
 0001:0000e5e0       ?_Getal@?$vector@PAVDisplayableObject@@V?$allocator@PAVDisplayableObject@@@std@@@std@@AAEAAV?$allocator@PAVDisplayableObject@@@2@XZ 0040f5e0 f i DraggingDemo.obj
 0001:0000e600       ?_Getal@?$vector@PAVDisplayableObject@@V?$allocator@PAVDisplayableObject@@@std@@@std@@ABEABV?$allocator@PAVDisplayableObject@@@2@XZ 0040f600 f i DraggingDemo.obj
 0001:0000e620       ?_Getcomp@?$_Tree@V?$_Tmap_traits@V?$basic_string@DU?$char_traits@D@std@@V?$allocator@D@2@@std@@V?$shared_ptr@VRawImageData@@@2@U?$less@V?$basic_string@DU?$char_traits@D@std@@V?$allocator@D@2@@std@@@2@V?$allocator@U?$pair@$$CBV?$basic_string@DU?$char_traits@D@std@@V?$allocator@D@2@@std@@V?$shared_ptr@VRawImageData@@@2@@std@@@2@$0A@@std@@@std@@IBEABU?$less@V?$basic_string@DU?$char_traits@D@std@@V?$allocator@D@2@@std@@@2@XZ 0040f620 f i DraggingDemo.obj
 0001:0000e640       ?_Getcomp@?$_Tree@V?$_Tmap_traits@V?$basic_string@DU?$char_traits@D@std@@V?$allocator@D@2@@std@@V?$weak_ptr@VRawImageData@@@2@U?$less@V?$basic_string@DU?$char_traits@D@std@@V?$allocator@D@2@@std@@@2@V?$allocator@U?$pair@$$CBV?$basic_string@DU?$char_traits@D@std@@V?$allocator@D@2@@std@@V?$weak_ptr@VRawImageData@@@2@@std@@@2@$0A@@std@@@std@@IBEABU?$less@V?$basic_string@DU?$char_traits@D@std@@V?$allocator@D@2@@std@@@2@XZ 0040f640 f i DraggingDemo.obj
 0001:0000e660       ?_Getcont@_Iterator_base12@std@@QBEPBU_Container_base12@2@XZ 0040f660 f i DraggingDemo.obj
 0001:0000e6a0       ?_Incref@?$_Ptr_base@VRawImageData@@@std@@IBEXXZ 0040f6a0 f i DraggingDemo.obj
 0001:0000e6d0       ?_Incref@_Ref_count_base@std@@QAEXXZ 0040f6d0 f i DraggingDemo.obj
 0001:0000e6f0       ?_Incref_nz@_Ref_count_base@std@@QAE_NXZ 0040f6f0 f i DraggingDemo.obj
 0001:0000e760       ?_Incwref@_Ref_count_base@std@@QAEXXZ 0040f760 f i DraggingDemo.obj
 0001:0000e780       ?_Insert_node@?$_Tree_val@U?$_Tree_simple_types@U?$pair@$$CBV?$basic_string@DU?$char_traits@D@std@@V?$allocator@D@2@@std@@V?$shared_ptr@VRawImageData@@@2@@std@@@std@@@std@@QAEPAU?$_Tree_node@U?$pair@$$CBV?$basic_string@DU?$char_traits@D@std@@V?$allocator@D@2@@std@@V?$shared_ptr@VRawImageData@@@2@@std@@PAX@2@U?$_Tree_id@PAU?$_Tree_node@U?$pair@$$CBV?$basic_string@DU?$char_traits@D@std@@V?$allocator@D@2@@std@@V?$shared_ptr@VRawImageData@@@2@@std@@PAX@std@@@2@QAU32@@Z 0040f780 f i DraggingDemo.obj
 0001:0000e990       ??0sentry@?$basic_istream@DU?$char_traits@D@std@@@std@@QAE@AAV12@_N@Z 0040f990 f i gameState.obj
 0001:0000ea10       ?_Insert_node@?$_Tree_val@U?$_Tree_simple_types@U?$pair@$$CBV?$basic_string@DU?$char_traits@D@std@@V?$allocator@D@2@@std@@V?$weak_ptr@VRawImageData@@@2@@std@@@std@@@std@@QAEPAU?$_Tree_node@U?$pair@$$CBV?$basic_string@DU?$char_traits@D@std@@V?$allocator@D@2@@std@@V?$weak_ptr@VRawImageData@@@2@@std@@PAX@2@U?$_Tree_id@PAU?$_Tree_node@U?$pair@$$CBV?$basic_string@DU?$char_traits@D@std@@V?$allocator@D@2@@std@@V?$weak_ptr@VRawImageData@@@2@@std@@PAX@std@@@2@QAU32@@Z 0040fa10 f i DraggingDemo.obj
 0001:0000ec20       ??0_Sentry_base@?$basic_istream@DU?$char_traits@D@std@@@std@@QAE@AAV12@@Z 0040fc20 f i gameState.obj
 0001:0000eca0       ?_Large_mode_engaged@?$_String_val@U?$_Simple_types@D@std@@@std@@QBE_NXZ 0040fca0 f i DraggingDemo.obj
 0001:0000ece0       ?_Lrotate@?$_Tree_val@U?$_Tree_simple_types@U?$pair@$$CBV?$basic_string@DU?$char_traits@D@std@@V?$allocator@D@2@@std@@V?$shared_ptr@VRawImageData@@@2@@std@@@std@@@std@@QAEXPAU?$_Tree_node@U?$pair@$$CBV?$basic_string@DU?$char_traits@D@std@@V?$allocator@D@2@@std@@V?$shared_ptr@VRawImageData@@@2@@std@@PAX@2@@Z 0040fce0 f i DraggingDemo.obj
 0001:0000eda0       ?_Lrotate@?$_Tree_val@U?$_Tree_simple_types@U?$pair@$$CBV?$basic_string@DU?$char_traits@D@std@@V?$allocator@D@2@@std@@V?$weak_ptr@VRawImageData@@@2@@std@@@std@@@std@@QAEXPAU?$_Tree_node@U?$pair@$$CBV?$basic_string@DU?$char_traits@D@std@@V?$allocator@D@2@@std@@V?$weak_ptr@VRawImageData@@@2@@std@@PAX@2@@Z 0040fda0 f i DraggingDemo.obj
 0001:0000ee60       ?_Max@?$_Tree_val@U?$_Tree_simple_types@U?$pair@$$CBV?$basic_string@DU?$char_traits@D@std@@V?$allocator@D@2@@std@@V?$weak_ptr@VRawImageData@@@2@@std@@@std@@@std@@SAPAU?$_Tree_node@U?$pair@$$CBV?$basic_string@DU?$char_traits@D@std@@V?$allocator@D@2@@std@@V?$weak_ptr@VRawImageData@@@2@@std@@PAX@2@PAU32@@Z 0040fe60 f i DraggingDemo.obj
 0001:0000ee90       ?_Min@?$_Tree_val@U?$_Tree_simple_types@U?$pair@$$CBV?$basic_string@DU?$char_traits@D@std@@V?$allocator@D@2@@std@@V?$weak_ptr@VRawImageData@@@2@@std@@@std@@@std@@SAPAU?$_Tree_node@U?$pair@$$CBV?$basic_string@DU?$char_traits@D@std@@V?$allocator@D@2@@std@@V?$weak_ptr@VRawImageData@@@2@@std@@PAX@2@PAU32@@Z 0040fe90 f i DraggingDemo.obj
 0001:0000eec0       ?_Myptr@?$_String_val@U?$_Simple_types@D@std@@@std@@QBEPBDXZ 0040fec0 f i DraggingDemo.obj
 0001:0000ef10       ?_Orphan_all@_Container_base12@std@@QAEXXZ 0040ff10 f i DraggingDemo.obj
 0001:0000ef30       ?_Orphan_all_locked_v3@_Container_base12@std@@AAEXXZ 0040ff30 f i DraggingDemo.obj
 0001:0000ef70       ?_Orphan_all_unlocked_v3@_Container_base12@std@@AAEXXZ 0040ff70 f i DraggingDemo.obj
 0001:0000efe0       ?_Orphan_me_locked_v3@_Iterator_base12@std@@AAEXXZ 0040ffe0 f i DraggingDemo.obj
 0001:0000f020       ?_Orphan_me_unlocked_v3@_Iterator_base12@std@@AAEXXZ 00410020 f i DraggingDemo.obj
 0001:0000f0d0       ??$_Get_size_of_n@$0BA@@std@@YAII@Z 004100d0 f i gameSetupState.obj
 0001:0000f100       ?_Orphan_ptr@?$_Tree_val@U?$_Tree_simple_types@U?$pair@$$CBV?$basic_string@DU?$char_traits@D@std@@V?$allocator@D@2@@std@@V?$weak_ptr@VRawImageData@@@2@@std@@@std@@@std@@QAEXQAU?$_Tree_node@U?$pair@$$CBV?$basic_string@DU?$char_traits@D@std@@V?$allocator@D@2@@std@@V?$weak_ptr@VRawImageData@@@2@@std@@PAX@2@@Z 00410100 f i DraggingDemo.obj
 0001:0000f1b0       ?_Orphan_range@?$vector@PAVDisplayableObject@@V?$allocator@PAVDisplayableObject@@@std@@@std@@ABEXPAPAVDisplayableObject@@0@Z 004101b0 f i DraggingDemo.obj
 0001:0000f1e0       ?_Orphan_range_locked@?$vector@PAVDisplayableObject@@V?$allocator@PAVDisplayableObject@@@std@@@std@@ABEXPAPAVDisplayableObject@@0@Z 004101e0 f i DraggingDemo.obj
 0001:0000f270       ?_Orphan_range_unlocked@?$vector@PAVDisplayableObject@@V?$allocator@PAVDisplayableObject@@@std@@@std@@ABEXPAPAVDisplayableObject@@0@Z 00410270 f i DraggingDemo.obj
 0001:0000f2f0       ?_Release@?$_Alloc_construct_ptr@V?$allocator@U?$_Tree_node@U?$pair@$$CBV?$basic_string@DU?$char_traits@D@std@@V?$allocator@D@2@@std@@V?$shared_ptr@VRawImageData@@@2@@std@@PAX@std@@@std@@@std@@QAEPAU?$_Tree_node@U?$pair@$$CBV?$basic_string@DU?$char_traits@D@std@@V?$allocator@D@2@@std@@V?$shared_ptr@VRawImageData@@@2@@std@@PAX@2@XZ 004102f0 f i DraggingDemo.obj
 0001:0000f320       ?_Release@?$_Alloc_construct_ptr@V?$allocator@U?$_Tree_node@U?$pair@$$CBV?$basic_string@DU?$char_traits@D@std@@V?$allocator@D@2@@std@@V?$weak_ptr@VRawImageData@@@2@@std@@PAX@std@@@std@@@std@@QAEPAU?$_Tree_node@U?$pair@$$CBV?$basic_string@DU?$char_traits@D@std@@V?$allocator@D@2@@std@@V?$weak_ptr@VRawImageData@@@2@@std@@PAX@2@XZ 00410320 f i DraggingDemo.obj
 0001:0000f350       ?_Release@?$_Uninitialized_backout_al@V?$allocator@PAVDisplayableObject@@@std@@@std@@QAEPAPAVDisplayableObject@@XZ 00410350 f i DraggingDemo.obj
 0001:0000f380       ?_Release@_Basic_container_proxy_ptr12@std@@QAEXXZ 00410380 f i DraggingDemo.obj
 0001:0000f3a0       ?_Rrotate@?$_Tree_val@U?$_Tree_simple_types@U?$pair@$$CBV?$basic_string@DU?$char_traits@D@std@@V?$allocator@D@2@@std@@V?$shared_ptr@VRawImageData@@@2@@std@@@std@@@std@@QAEXPAU?$_Tree_node@U?$pair@$$CBV?$basic_string@DU?$char_traits@D@std@@V?$allocator@D@2@@std@@V?$shared_ptr@VRawImageData@@@2@@std@@PAX@2@@Z 004103a0 f i DraggingDemo.obj
 0001:0000f440       ??$construct@PAVDrawingSurface@@PAV1@@?$_Default_allocator_traits@V?$allocator@PAVDrawingSurface@@@std@@@std@@SAXAAV?$allocator@PAVDrawingSurface@@@1@QAPAVDrawingSurface@@$$QAPAV3@@Z 00410440 f i gameSetupState.obj
 0001:0000f470       ?_Rrotate@?$_Tree_val@U?$_Tree_simple_types@U?$pair@$$CBV?$basic_string@DU?$char_traits@D@std@@V?$allocator@D@2@@std@@V?$weak_ptr@VRawImageData@@@2@@std@@@std@@@std@@QAEXPAU?$_Tree_node@U?$pair@$$CBV?$basic_string@DU?$char_traits@D@std@@V?$allocator@D@2@@std@@V?$weak_ptr@VRawImageData@@@2@@std@@PAX@2@@Z 00410470 f i DraggingDemo.obj
 0001:0000f510       ??$exchange@U_Thrd_t@@U1@@std@@YA?AU_Thrd_t@@AAU1@$$QAU1@@Z 00410510 f i gameSetupState.obj
 0001:0000f540       ?_Swap_proxy_and_iterators@?$basic_string@DU?$char_traits@D@std@@V?$allocator@D@2@@std@@AAEXAAV12@@Z 00410540 f i DraggingDemo.obj
 0001:0000f560       ?_Swap_proxy_and_iterators@_Container_base12@std@@QAEXAAU12@@Z 00410560 f i DraggingDemo.obj
 0001:0000f580       ?_Swap_proxy_and_iterators_locked@_Container_base12@std@@AAEXAAU12@@Z 00410580 f i DraggingDemo.obj
 0001:0000f5c0       ?_Swap_proxy_and_iterators_unlocked@_Container_base12@std@@AAEXAAU12@@Z 004105c0 f i DraggingDemo.obj
 0001:0000f620       ?_Switch_to_buf@_Bxty@?$_String_val@U?$_Simple_types@D@std@@@std@@QAEXXZ 00410620 f i DraggingDemo.obj
 0001:0000f640       ?_Take_contents@?$basic_string@DU?$char_traits@D@std@@V?$allocator@D@2@@std@@AAEXAAV12@@Z 00410640 f i DraggingDemo.obj
 0001:0000f7c0       ??0bad_cast@std@@QAE@ABV01@@Z 004107c0 f i gameState.obj
 0001:0000f820       ?_Throw_bad_array_new_length@std@@YAXXZ 00410820 f i DraggingDemo.obj
 0001:0000f850       ?_Throw_tree_length_error@std@@YAXXZ 00410850 f i DraggingDemo.obj
 0001:0000f870       ?_Tidy_deallocate@?$basic_string@DU?$char_traits@D@std@@V?$allocator@D@2@@std@@AAEXXZ 00410870 f i DraggingDemo.obj
 0001:0000f900       ??1?$unique_ptr@V?$tuple@P8gameSetupState@@AEXXZPAV1@@std@@U?$default_delete@V?$tuple@P8gameSetupState@@AEXXZPAV1@@std@@@2@@std@@QAE@XZ 00410900 f i gameSetupState.obj
 0001:0000f930       ?_Unwrapped@?$_Tree_iterator@V?$_Tree_val@U?$_Tree_simple_types@U?$pair@$$CBV?$basic_string@DU?$char_traits@D@std@@V?$allocator@D@2@@std@@V?$weak_ptr@VRawImageData@@@2@@std@@@std@@@std@@@std@@QBE?AV?$_Tree_unchecked_iterator@V?$_Tree_val@U?$_Tree_simple_types@U?$pair@$$CBV?$basic_string@DU?$char_traits@D@std@@V?$allocator@D@2@@std@@V?$weak_ptr@VRawImageData@@@2@@std@@@std@@@std@@@2@XZ 00410930 f i DraggingDemo.obj
 0001:0000f970       ?_Use_count@_Ref_count_base@std@@QBEJXZ 00410970 f i DraggingDemo.obj
 0001:0000f990       ?_Xlen_string@std@@YAXXZ   00410990 f i DraggingDemo.obj
 0001:0000f9b0       ?_Xlength@?$vector@PAVDisplayableObject@@V?$allocator@PAVDisplayableObject@@@std@@@std@@CAXXZ 004109b0 f i DraggingDemo.obj
 0001:0000f9d0       ?__empty_global_delete@@YAXPAX@Z 004109d0 f i DraggingDemo.obj
 0001:0000f9e0       ?__empty_global_delete@@YAXPAXI@Z 004109e0 f i DraggingDemo.obj
 0001:0000f9e0       ?__global_delete@@YAXPAXI@Z 004109e0 f i DraggingDemo.obj
 0001:0000f9f0       ?allocate@?$allocator@D@std@@QAEPADI@Z 004109f0 f i DraggingDemo.obj
 0001:0000fa20       ?allocate@?$allocator@PAVDisplayableObject@@@std@@QAEPAPAVDisplayableObject@@I@Z 00410a20 f i DraggingDemo.obj
 0001:0000fa50       ?allocate@?$allocator@U?$_Tree_node@U?$pair@$$CBV?$basic_string@DU?$char_traits@D@std@@V?$allocator@D@2@@std@@V?$shared_ptr@VRawImageData@@@2@@std@@PAX@std@@@std@@QAEPAU?$_Tree_node@U?$pair@$$CBV?$basic_string@DU?$char_traits@D@std@@V?$allocator@D@2@@std@@V?$shared_ptr@VRawImageData@@@2@@std@@PAX@2@I@Z 00410a50 f i DraggingDemo.obj
 0001:0000fa80       ?allocate@?$allocator@U?$_Tree_node@U?$pair@$$CBV?$basic_string@DU?$char_traits@D@std@@V?$allocator@D@2@@std@@V?$weak_ptr@VRawImageData@@@2@@std@@PAX@std@@@std@@QAEPAU?$_Tree_node@U?$pair@$$CBV?$basic_string@DU?$char_traits@D@std@@V?$allocator@D@2@@std@@V?$weak_ptr@VRawImageData@@@2@@std@@PAX@2@I@Z 00410a80 f i DraggingDemo.obj
 0001:0000fab0       ?allocate@?$allocator@U_Container_proxy@std@@@std@@QAEPAU_Container_proxy@2@I@Z 00410ab0 f i DraggingDemo.obj
 0001:0000fae0       ?assign@?$_Narrow_char_traits@DH@std@@SAXAADABD@Z 00410ae0 f i DraggingDemo.obj
 0001:0000fb00       ?c_str@?$basic_string@DU?$char_traits@D@std@@V?$allocator@D@2@@std@@QBEPBDXZ 00410b00 f i DraggingDemo.obj
 0001:0000fb20       ?capacity@?$vector@PAVDisplayableObject@@V?$allocator@PAVDisplayableObject@@@std@@@std@@QBEIXZ 00410b20 f i DraggingDemo.obj
 0001:0000fb50       ?checkDoDrag@DragableBaseClassObject@@UAEXHH@Z 00410b50 f i DraggingDemo.obj
 0001:0000fbd0       ?checkFinishDrag@DragableBaseClassObject@@UAEXHH@Z 00410bd0 f i DraggingDemo.obj
 0001:0000fc10       ?checkStartDrag@DragableBaseClassObject@@UAEXHH@Z 00410c10 f i DraggingDemo.obj
 0001:0000fca0       ?checkWritable@DrawingSurface@@QAEXXZ 00410ca0 f i DraggingDemo.obj
 0001:0000fcf0       ?compare@?$_Narrow_char_traits@DH@std@@SAHQBD0I@Z 00410cf0 f i DraggingDemo.obj
 0001:0000fd10       ?compare@?$basic_string@DU?$char_traits@D@std@@V?$allocator@D@2@@std@@QBEHABV12@@Z 00410d10 f i DraggingDemo.obj
 0001:0000fd60       ?copy@?$_Char_traits@DH@std@@SAPADQADQBDI@Z 00410d60 f i DraggingDemo.obj
 0001:0000fd90       ?createObjectArray@DisplayableObjectContainer@@QAEXH@Z 00410d90 f i DraggingDemo.obj
 0001:0000fde0       ?data@?$basic_string@DU?$char_traits@D@std@@V?$allocator@D@2@@std@@QBEPBDXZ 00410de0 f i DraggingDemo.obj
 0001:0000fe00       ?deallocate@?$_Default_allocator_traits@V?$allocator@U?$_Tree_node@U?$pair@$$CBV?$basic_string@DU?$char_traits@D@std@@V?$allocator@D@2@@std@@V?$weak_ptr@VRawImageData@@@2@@std@@PAX@std@@@std@@@std@@SAXAAV?$allocator@U?$_Tree_node@U?$pair@$$CBV?$basic_string@DU?$char_traits@D@std@@V?$allocator@D@2@@std@@V?$weak_ptr@VRawImageData@@@2@@std@@PAX@std@@@2@QAU?$_Tree_node@U?$pair@$$CBV?$basic_string@DU?$char_traits@D@std@@V?$allocator@D@2@@std@@V?$weak_ptr@VRawImageData@@@2@@std@@PAX@2@I@Z 00410e00 f i DraggingDemo.obj
 0001:0000fe20       ?deallocate@?$_Default_allocator_traits@V?$allocator@U_Container_proxy@std@@@std@@@std@@SAXAAV?$allocator@U_Container_proxy@std@@@2@QAU_Container_proxy@2@I@Z 00410e20 f i DraggingDemo.obj
 0001:0000fe40       ?deallocate@?$allocator@D@std@@QAEXQADI@Z 00410e40 f i DraggingDemo.obj
 0001:0000fee0       ?deallocate@?$allocator@PAVDisplayableObject@@@std@@QAEXQAPAVDisplayableObject@@I@Z 00410ee0 f i DraggingDemo.obj
 0001:0000ff80       ?deallocate@?$allocator@U?$_Tree_node@U?$pair@$$CBV?$basic_string@DU?$char_traits@D@std@@V?$allocator@D@2@@std@@V?$shared_ptr@VRawImageData@@@2@@std@@PAX@std@@@std@@QAEXQAU?$_Tree_node@U?$pair@$$CBV?$basic_string@DU?$char_traits@D@std@@V?$allocator@D@2@@std@@V?$shared_ptr@VRawImageData@@@2@@std@@PAX@2@I@Z 00410f80 f i DraggingDemo.obj
 0001:00010020       ?deallocate@?$allocator@U?$_Tree_node@U?$pair@$$CBV?$basic_string@DU?$char_traits@D@std@@V?$allocator@D@2@@std@@V?$weak_ptr@VRawImageData@@@2@@std@@PAX@std@@@std@@QAEXQAU?$_Tree_node@U?$pair@$$CBV?$basic_string@DU?$char_traits@D@std@@V?$allocator@D@2@@std@@V?$weak_ptr@VRawImageData@@@2@@std@@PAX@2@I@Z 00411020 f i DraggingDemo.obj
 0001:000100c0       ?deleteOnRemoval@DisplayableObject@@UBE_NXZ 004110c0 f i DraggingDemo.obj
 0001:000100e0       ?doDragRedraw@DragableBaseClassObject@@UAEXXZ 004110e0 f i DraggingDemo.obj
 0001:00010100       ?drawableObjectsChanged@DisplayableObjectContainer@@QAEXXZ 00411100 f i DraggingDemo.obj
 0001:00010120       ?end@?$_Tree@V?$_Tmap_traits@V?$basic_string@DU?$char_traits@D@std@@V?$allocator@D@2@@std@@V?$weak_ptr@VRawImageData@@@2@U?$less@V?$basic_string@DU?$char_traits@D@std@@V?$allocator@D@2@@std@@@2@V?$allocator@U?$pair@$$CBV?$basic_string@DU?$char_traits@D@std@@V?$allocator@D@2@@std@@V?$weak_ptr@VRawImageData@@@2@@std@@@2@$0A@@std@@@std@@QAE?AV?$_Tree_iterator@V?$_Tree_val@U?$_Tree_simple_types@U?$pair@$$CBV?$basic_string@DU?$char_traits@D@std@@V?$allocator@D@2@@std@@V?$weak_ptr@VRawImageData@@@2@@std@@@std@@@std@@@2@XZ 00411120 f i DraggingDemo.obj
 0001:00010160       ?eof@?$_Narrow_char_traits@DH@std@@SAHXZ 00411160 f i DraggingDemo.obj
 0001:00010170       ?eq_int_type@?$_Narrow_char_traits@DH@std@@SA_NHH@Z 00411170 f i DraggingDemo.obj
 0001:000101a0       ?expired@?$weak_ptr@VRawImageData@@@std@@QBE_NXZ 004111a0 f i DraggingDemo.obj
 0001:000101e0       ?find@?$_Tree@V?$_Tmap_traits@V?$basic_string@DU?$char_traits@D@std@@V?$allocator@D@2@@std@@V?$weak_ptr@VRawImageData@@@2@U?$less@V?$basic_string@DU?$char_traits@D@std@@V?$allocator@D@2@@std@@@2@V?$allocator@U?$pair@$$CBV?$basic_string@DU?$char_traits@D@std@@V?$allocator@D@2@@std@@V?$weak_ptr@VRawImageData@@@2@@std@@@2@$0A@@std@@@std@@QAE?AV?$_Tree_iterator@V?$_Tree_val@U?$_Tree_simple_types@U?$pair@$$CBV?$basic_string@DU?$char_traits@D@std@@V?$allocator@D@2@@std@@V?$weak_ptr@VRawImageData@@@2@@std@@@std@@@std@@@2@ABV?$basic_string@DU?$char_traits@D@std@@V?$allocator@D@2@@2@@Z 004111e0 f i DraggingDemo.obj
 0001:00010230       ?freeSurface@RawImageData@@QAEXXZ 00411230 f i DraggingDemo.obj
 0001:000102b0       ?get@?$_Ptr_base@VRawImageData@@@std@@IBEPAVRawImageData@@XZ 004112b0 f i DraggingDemo.obj
 0001:000102d0       ?get@ImageManager@@SAPAV1@XZ 004112d0 f i DraggingDemo.obj
 0001:00010380       ?getEngine@DisplayableObject@@QBEPAVBaseEngine@@XZ 00411380 f i DraggingDemo.obj
 0001:000103a0       ?getForegroundSurface@BaseEngine@@QAEPAVDrawingSurface@@XZ 004113a0 f i DraggingDemo.obj
 0001:000103c0       ?getHeight@RawImageData@@QBEHXZ 004113c0 f i DraggingDemo.obj
 0001:000103e0       ?getHeight@SimpleImage@@QBEHXZ 004113e0 f i DraggingDemo.obj
 0001:00010410       ?getImagePtrbyURL@ImageManager@@QAE?AV?$shared_ptr@VRawImageData@@@std@@V?$basic_string@DU?$char_traits@D@std@@V?$allocator@D@2@@3@_N1@Z 00411410 f i DraggingDemo.obj
 0001:00010780       ??1?$basic_ifstream@DU?$char_traits@D@std@@@std@@UAE@XZ 00411780 f i gameState.obj
 0001:000107e0       ??1?$_Vector_const_iterator@V?$_Vector_val@U?$_Simple_types@PAVDisplayableObject@@@std@@@std@@@std@@QAE@XZ 004117e0 f i gameState.obj
 0001:00010800       ?getDisplayableObject@DisplayableObjectContainer@@QBEPAVDisplayableObject@@H@Z 00411800 f i gameState.obj
 0001:00010850       ?getImagebyURL@ImageManager@@QAE?AVSimpleImage@@V?$basic_string@DU?$char_traits@D@std@@V?$allocator@D@2@@std@@_N1@Z 00411850 f i DraggingDemo.obj
 0001:00010920       ?getIntsPerWindowRow@DrawingSurface@@QBEIXZ 00411920 f i DraggingDemo.obj
 0001:00010940       ?getSurfaceHeight@DrawingSurface@@QBEHXZ 00411940 f i DraggingDemo.obj
 0001:00010960       ?getSurfaceWidth@DrawingSurface@@QBEHXZ 00411960 f i DraggingDemo.obj
 0001:00010980       ?getWidth@RawImageData@@QBEHXZ 00411980 f i DraggingDemo.obj
 0001:000109a0       ?getWidth@SimpleImage@@QBEHXZ 004119a0 f i DraggingDemo.obj
 0001:000109d0       ?getWindowHeight@BaseEngine@@QBEHXZ 004119d0 f i DraggingDemo.obj
 0001:000109f0       ?getWindowWidth@BaseEngine@@QBEHXZ 004119f0 f i DraggingDemo.obj
 0001:00010a10       ?getXForRotationAndCrop@RawImageData@@SAHHHHHHH@Z 00411a10 f i DraggingDemo.obj
 0001:00010a80       ?getYForRotationAndCrop@RawImageData@@SAHHHHHHH@Z 00411a80 f i DraggingDemo.obj
 0001:00010af0       ?isVisible@DisplayableObject@@QBE_NXZ 00411af0 f i DraggingDemo.obj
 0001:00010b10       ?length@?$_Narrow_char_traits@DH@std@@SAIQBD@Z 00411b10 f i DraggingDemo.obj
 0001:00010b30       ?loadAsNew@ImageManager@@QAE?AV?$shared_ptr@VRawImageData@@@std@@V?$basic_string@DU?$char_traits@D@std@@V?$allocator@D@2@@3@@Z 00411b30 f i DraggingDemo.obj
 0001:00010cb0       ?not_eof@?$_Narrow_char_traits@DH@std@@SAHH@Z 00411cb0 f i gameState.obj
 0001:00010d00       ?loadImage@RawImageData@@QAE_NV?$basic_string@DU?$char_traits@D@std@@V?$allocator@D@2@@std@@HHHHH_N@Z 00411d00 f i DraggingDemo.obj
 0001:00010f90       ??1?$basic_stringstream@DU?$char_traits@D@std@@V?$allocator@D@2@@std@@UAE@XZ 00411f90 f i gameState.obj
 0001:00011000       ?_Buy_nonzero@?$vector@V?$vector@MV?$allocator@M@std@@@std@@V?$allocator@V?$vector@MV?$allocator@M@std@@@std@@@2@@std@@AAEXI@Z 00412000 f i gameSetupState.obj
 0001:00011030       ?lock@?$weak_ptr@VRawImageData@@@std@@QBE?AV?$shared_ptr@VRawImageData@@@2@XZ 00412030 f i DraggingDemo.obj
 0001:00011080       ?max_size@?$_Default_allocator_traits@V?$allocator@D@std@@@std@@SAIABV?$allocator@D@2@@Z 00412080 f i DraggingDemo.obj
 0001:00011090       ?max_size@?$_Default_allocator_traits@V?$allocator@PAVDisplayableObject@@@std@@@std@@SAIABV?$allocator@PAVDisplayableObject@@@2@@Z 00412090 f i DraggingDemo.obj
 0001:000110a0       ?max_size@?$_Default_allocator_traits@V?$allocator@U?$_Tree_node@U?$pair@$$CBV?$basic_string@DU?$char_traits@D@std@@V?$allocator@D@2@@std@@V?$shared_ptr@VRawImageData@@@2@@std@@PAX@std@@@std@@@std@@SAIABV?$allocator@U?$_Tree_node@U?$pair@$$CBV?$basic_string@DU?$char_traits@D@std@@V?$allocator@D@2@@std@@V?$shared_ptr@VRawImageData@@@2@@std@@PAX@std@@@2@@Z 004120a0 f i DraggingDemo.obj
 0001:000110b0       ?max_size@?$_Default_allocator_traits@V?$allocator@U?$_Tree_node@U?$pair@$$CBV?$basic_string@DU?$char_traits@D@std@@V?$allocator@D@2@@std@@V?$weak_ptr@VRawImageData@@@2@@std@@PAX@std@@@std@@@std@@SAIABV?$allocator@U?$_Tree_node@U?$pair@$$CBV?$basic_string@DU?$char_traits@D@std@@V?$allocator@D@2@@std@@V?$weak_ptr@VRawImageData@@@2@@std@@PAX@std@@@2@@Z 004120b0 f i DraggingDemo.obj
 0001:000110c0       ?max_size@?$_Tree@V?$_Tmap_traits@V?$basic_string@DU?$char_traits@D@std@@V?$allocator@D@2@@std@@V?$shared_ptr@VRawImageData@@@2@U?$less@V?$basic_string@DU?$char_traits@D@std@@V?$allocator@D@2@@std@@@2@V?$allocator@U?$pair@$$CBV?$basic_string@DU?$char_traits@D@std@@V?$allocator@D@2@@std@@V?$shared_ptr@VRawImageData@@@2@@std@@@2@$0A@@std@@@std@@QBEIXZ 004120c0 f i DraggingDemo.obj
 0001:00011110       ?max_size@?$_Tree@V?$_Tmap_traits@V?$basic_string@DU?$char_traits@D@std@@V?$allocator@D@2@@std@@V?$weak_ptr@VRawImageData@@@2@U?$less@V?$basic_string@DU?$char_traits@D@std@@V?$allocator@D@2@@std@@@2@V?$allocator@U?$pair@$$CBV?$basic_string@DU?$char_traits@D@std@@V?$allocator@D@2@@std@@V?$weak_ptr@VRawImageData@@@2@@std@@@2@$0A@@std@@@std@@QBEIXZ 00412110 f i DraggingDemo.obj
 0001:00011160       ?max_size@?$basic_string@DU?$char_traits@D@std@@V?$allocator@D@2@@std@@QBEIXZ 00412160 f i DraggingDemo.obj
 0001:000111e0       ?max_size@?$vector@PAVDisplayableObject@@V?$allocator@PAVDisplayableObject@@@std@@@std@@QBEIXZ 004121e0 f i DraggingDemo.obj
 0001:00011230       ?notifyObjectsAboutMouse@BaseEngine@@QAEX_N@Z 00412230 f i DraggingDemo.obj
 0001:00011250       ?pointer_to@?$pointer_traits@PAU?$pair@$$CBV?$basic_string@DU?$char_traits@D@std@@V?$allocator@D@2@@std@@V?$weak_ptr@VRawImageData@@@2@@std@@@std@@SAPAU?$pair@$$CBV?$basic_string@DU?$char_traits@D@std@@V?$allocator@D@2@@std@@V?$weak_ptr@VRawImageData@@@2@@2@AAU32@@Z 00412250 f i DraggingDemo.obj
 0001:00011270       ?rawSetPixel@DrawingSurface@@QAEXHHI@Z 00412270 f i DraggingDemo.obj
 0001:00011320       ?resize@?$vector@PAVDisplayableObject@@V?$allocator@PAVDisplayableObject@@@std@@@std@@QAEXI@Z 00412320 f i DraggingDemo.obj
 0001:00011350       ?select_on_container_copy_construction@?$_Default_allocator_traits@V?$allocator@D@std@@@std@@SA?AV?$allocator@D@2@ABV32@@Z 00412350 f i DraggingDemo.obj
 0001:00011360       ?setBackgroundPixel@BaseEngine@@QAEXHHI@Z 00412360 f i DraggingDemo.obj
 0001:000113a0       ?setExitWithCode@BaseEngine@@QAEXH@Z 004123a0 f i DraggingDemo.obj
 0001:000113c0       ?setPixel@DrawingSurface@@QAEXHHI@Z 004123c0 f i DraggingDemo.obj
 0001:00011440       ?setPosition@DisplayableObject@@UAEXHH@Z 00412440 f i DraggingDemo.obj
 0001:00011480       ?setVisible@DisplayableObject@@QAEX_N@Z 00412480 f i DraggingDemo.obj
 0001:000114a0       ?size@?$basic_string@DU?$char_traits@D@std@@V?$allocator@D@2@@std@@QBEIXZ 004124a0 f i DraggingDemo.obj
 0001:000114c0       ?storeObjectInArray@DisplayableObjectContainer@@QAEXHPAVDisplayableObject@@@Z 004124c0 f i DraggingDemo.obj
 0001:00011500       ?use_count@?$_Ptr_base@VRawImageData@@@std@@QBEJXZ 00412500 f i DraggingDemo.obj
 0001:00011540       ?virtDraw@DragableImageObject@@UAEXXZ 00412540 f i DraggingDemo.obj
 0001:000115c0       ?virtDraw@ImageObject@@UAEXXZ 004125c0 f i DraggingDemo.obj
 0001:00011640       ?virtIsPositionWithinObject@DisplayableObject@@UAE_NHH@Z 00412640 f i DraggingDemo.obj
 0001:000116d0       ?virtKeyDown@DisplayableObject@@UAEXH@Z 004126d0 f i DraggingDemo.obj
 0001:000116e0       ?virtKeyUp@DisplayableObject@@UAEXH@Z 004126e0 f i DraggingDemo.obj
 0001:000116f0       ?virtMouseDown@DisplayableObject@@UAEXHHH@Z 004126f0 f i DraggingDemo.obj
 0001:00011700       ?virtMouseDown@DragableImageObject@@UAEXHHH@Z 00412700 f i DraggingDemo.obj
 0001:00011730       ?virtMouseDown@DragableObject@@UAEXHHH@Z 00412730 f i DraggingDemo.obj
 0001:00011760       ?virtMouseMoved@DisplayableObject@@UAEXHH@Z 00412760 f i DraggingDemo.obj
 0001:00011770       ?virtMouseMoved@DragableImageObject@@UAEXHH@Z 00412770 f i DraggingDemo.obj
 0001:000117a0       ?virtMouseMoved@DragableObject@@UAEXHH@Z 004127a0 f i DraggingDemo.obj
 0001:000117d0       ?virtMouseUp@DisplayableObject@@UAEXHHH@Z 004127d0 f i DraggingDemo.obj
 0001:000117e0       ?virtMouseUp@DragableImageObject@@UAEXHHH@Z 004127e0 f i DraggingDemo.obj
 0001:00011810       ?virtMouseUp@DragableObject@@UAEXHHH@Z 00412810 f i DraggingDemo.obj
 0001:00011850       ?virtNotify@DisplayableObject@@UAEJHHH@Z 00412850 f i DraggingDemo.obj
 0001:00011870       ?virtSingleItemMouseDown@DisplayableObject@@UAE_NHHH@Z 00412870 f i DraggingDemo.obj
 0001:00011890       ?what@exception@std@@UBEPBDXZ 00412890 f i DraggingDemo.obj
 0001:000118d0       ___local_stdio_printf_options 004128d0 f i DraggingDemo.obj
 0001:000118e0       __vfprintf_l               004128e0 f i DraggingDemo.obj
 0001:00011920       _printf                    00412920 f i DraggingDemo.obj
 0001:00011970       ??0DrawingSurface@@QAE@PAVBaseEngine@@@Z 00412970 f   DrawingSurface.obj
 0001:00011a10       ?drawLine@DrawingSurface@@QAEXNNNNI@Z 00412a10 f   DrawingSurface.obj
 0001:00011c00       ?drawThickLine@DrawingSurface@@QAEXNNNNIH@Z 00412c00 f   DrawingSurface.obj
 0001:000120b0       ?drawVerticalSidedRegion@DrawingSurface@@QAEXNNNNNNI@Z 004130b0 f   DrawingSurface.obj
 0001:00012450       ?drawRectangle@DrawingSurface@@QAEXHHHHI@Z 00413450 f   DrawingSurface.obj
 0001:00012560       ?drawOval@DrawingSurface@@QAEXHHHHI@Z 00413560 f   DrawingSurface.obj
 0001:00012730       ?rawDrawOval@DrawingSurface@@QAEXHHHHI@Z 00413730 f   DrawingSurface.obj
 0001:00012890       ?drawHollowOval@DrawingSurface@@QAEXHHHHHHHHI@Z 00413890 f   DrawingSurface.obj
 0001:00012bb0       ?drawPolygon@DrawingSurface@@QAEXHPAN0I@Z 00413bb0 f   DrawingSurface.obj
 0001:00013340       ?drawFastString@DrawingSurface@@QAEXHHPBDIPAVFont@@@Z 00414340 f   DrawingSurface.obj
 0001:00013430       ?drawScalableString@DrawingSurface@@QAEXHHPBDIPAVFont@@@Z 00414430 f   DrawingSurface.obj
 0001:00013600       ?drawShortenedArrow@DrawingSurface@@QAEXHHHHHHIHH@Z 00414600 f   DrawingSurface.obj
 0001:00013b80       ?drawShortenedLine@DrawingSurface@@QAEXHHHHHHIH@Z 00414b80 f   DrawingSurface.obj
 0001:00013f90       ?drawTriangle@DrawingSurface@@QAEXNNNNNNI@Z 00414f90 f   DrawingSurface.obj
 0001:000142e0       ?copyEntireSurface@DrawingSurface@@QAEXPAV1@@Z 004152e0 f   DrawingSurface.obj
 0001:00014330       ?copyRectangleFrom@DrawingSurface@@QAEXPAV1@HHHHHH@Z 00415330 f   DrawingSurface.obj
 0001:00014530       ?getAngle@DrawingSurface@@SANNNNN@Z 00415530 f   DrawingSurface.obj
 0001:000145d0       ?getVirtualRedrawMinX@DrawingSurface@@QAEHXZ 004155d0 f   DrawingSurface.obj
 0001:00014620       ?getVirtualRedrawMinY@DrawingSurface@@QAEHXZ 00415620 f   DrawingSurface.obj
 0001:00014670       ?getVirtualRedrawMaxX@DrawingSurface@@QAEHXZ 00415670 f   DrawingSurface.obj
 0001:000146d0       ?getVirtualRedrawMaxY@DrawingSurface@@QAEHXZ 004156d0 f   DrawingSurface.obj
 0001:00014730       ?getRealRedrawMinX@DrawingSurface@@QAEHXZ 00415730 f   DrawingSurface.obj
 0001:00014780       ?getRealRedrawMinY@DrawingSurface@@QAEHXZ 00415780 f   DrawingSurface.obj
 0001:000147d0       ?getRealRedrawMaxX@DrawingSurface@@QAEHXZ 004157d0 f   DrawingSurface.obj
 0001:00014820       ?getRealRedrawMaxY@DrawingSurface@@QAEHXZ 00415820 f   DrawingSurface.obj
 0001:00014870       ??$_Emplace_one_at_back@ABQAVDisplayableObject@@@?$vector@PAVDisplayableObject@@V?$allocator@PAVDisplayableObject@@@std@@@std@@AAEAAPAVDisplayableObject@@ABQAV2@@Z 00415870 f i gameState.obj
 0001:000148d0       ??$_Emplace_one_at_back@PAVPsyeb10Enemy@@@?$vector@PAVPsyeb10Enemy@@V?$allocator@PAVPsyeb10Enemy@@@std@@@std@@AAEAAPAVPsyeb10Enemy@@$$QAPAV2@@Z 004158d0 f i gameState.obj
 0001:00014930       ??$_Traits_find@U?$char_traits@D@std@@@std@@YAIQBDII0I@Z 00415930 f i gameState.obj
 0001:00014a40       ??$_Emplace_one_at_back@ABQAVPsyeb10Enemy@@@?$vector@PAVPsyeb10Enemy@@V?$allocator@PAVPsyeb10Enemy@@@std@@@std@@AAEAAPAVPsyeb10Enemy@@ABQAV2@@Z 00415a40 f i gameState.obj
 0001:00014aa0       ??$_Reallocate_grow_by@V<lambda_15711c68e099a15a58f4d77303cb286d>@@D@?$basic_string@DU?$char_traits@D@std@@V?$allocator@D@2@@std@@AAEAAV01@IV<lambda_15711c68e099a15a58f4d77303cb286d>@@D@Z 00415aa0 f i gameState.obj
 0001:00014bc0       ?str@?$basic_stringstream@DU?$char_traits@D@std@@V?$allocator@D@2@@std@@QBE?AV?$basic_string@DU?$char_traits@D@std@@V?$allocator@D@2@@2@XZ 00415bc0 f i gameState.obj
 0001:00014c10       ??$_Get_index@$0A@@id@locale@std@@QAEIXZ 00415c10 f i gameState.obj
 0001:00014c70       ??0?$basic_string@DU?$char_traits@D@std@@V?$allocator@D@2@@std@@QAE@ABV?$allocator@D@1@@Z 00415c70 f i gameState.obj
 0001:00014cd0       ??1?$basic_ofstream@DU?$char_traits@D@std@@@std@@UAE@XZ 00415cd0 f i gameState.obj
 0001:00014d30       ??$_Reallocate_for@V<lambda_9366063389c5f42a00a5088cf24e69de>@@PBD@?$basic_string@DU?$char_traits@D@std@@V?$allocator@D@2@@std@@AAEAAV01@IV<lambda_9366063389c5f42a00a5088cf24e69de>@@PBD@Z 00415d30 f i gameState.obj
 0001:00014e40       ??$move@AAV?$basic_istream@DU?$char_traits@D@std@@@std@@@std@@YA$$QAV?$basic_istream@DU?$char_traits@D@std@@@0@AAV10@@Z 00415e40 f i gameState.obj
 0001:00014e50       ??0?$basic_stringstream@DU?$char_traits@D@std@@V?$allocator@D@2@@std@@QAE@ABV?$basic_string@DU?$char_traits@D@std@@V?$allocator@D@2@@1@H@Z 00415e50 f i gameState.obj
 0001:00014f50       ??1?$unique_ptr@V_Facet_base@std@@U?$default_delete@V_Facet_base@std@@@2@@std@@QAE@XZ 00415f50 f i gameState.obj
 0001:00014f80       ??R<lambda_15711c68e099a15a58f4d77303cb286d>@@QBE@QADQBDID@Z 00415f80 f i gameState.obj
 0001:00014fe0       ?_Construct_empty@?$basic_string@DU?$char_traits@D@std@@V?$allocator@D@2@@std@@AAEXXZ 00415fe0 f i gameState.obj
 0001:00015060       ??1locale@std@@QAE@XZ      00416060 f i gameState.obj
 0001:000150b0       ?_Getfacet@locale@std@@QBEPBVfacet@12@I@Z 004160b0 f i gameState.obj
 0001:00015160       ??0?$basic_stringbuf@DU?$char_traits@D@std@@V?$allocator@D@2@@std@@QAE@H@Z 00416160 f i gameState.obj
 0001:000151b0       ??A?$vector@PAVPsyeb10Enemy@@V?$allocator@PAVPsyeb10Enemy@@@std@@@std@@QAEAAPAVPsyeb10Enemy@@I@Z 004161b0 f i gameState.obj
 0001:00015240       ??$use_facet@V?$codecvt@DDU_Mbstatet@@@std@@@std@@YAABV?$codecvt@DDU_Mbstatet@@@0@ABVlocale@0@@Z 00416240 f i gameState.obj
 0001:00015350       ??4?$basic_string@DU?$char_traits@D@std@@V?$allocator@D@2@@std@@QAEAAV01@$$QAV01@@Z 00416350 f i gameState.obj
 0001:000153c0       ?_Orphan_range_locked@?$vector@PAVPsyeb10Enemy@@V?$allocator@PAVPsyeb10Enemy@@@std@@@std@@ABEXPAPAVPsyeb10Enemy@@0@Z 004163c0 f i gameState.obj
 0001:00015430       ??$move@AAH@std@@YA$$QAHAAH@Z 00416430 f i DrawingSurface.obj
 0001:00015440       ??$move@AAN@std@@YA$$QANAAN@Z 00416440 f i DrawingSurface.obj
 0001:00015450       ??$swap@H$0A@@std@@YAXAAH0@Z 00416450 f i DrawingSurface.obj
 0001:000154a0       ??$swap@N$0A@@std@@YAXAAN0@Z 004164a0 f i DrawingSurface.obj
 0001:00015500       ?checkBlitable@DrawingSurface@@QAEXXZ 00416500 f i DrawingSurface.obj
 0001:00015550       ?convertRealToVirtualXPosition@DrawingSurface@@QAEHH@Z 00416550 f i DrawingSurface.obj
 0001:00015590       ?convertRealToVirtualYPosition@DrawingSurface@@QAEHH@Z 00416590 f i DrawingSurface.obj
 0001:000155d0       ?getDefaultFont@BaseEngine@@QBEPAVFont@@XZ 004165d0 f i DrawingSurface.obj
 0001:000155f0       ?getRedrawAllScreen@BaseEngine@@QAEHXZ 004165f0 f i DrawingSurface.obj
 0001:00015610       ?getRedrawRectRealBottom@BaseEngine@@QAEHXZ 00416610 f i DrawingSurface.obj
 0001:00015630       ?getRedrawRectRealLeft@BaseEngine@@QAEHXZ 00416630 f i DrawingSurface.obj
 0001:00015650       ?getRedrawRectRealRight@BaseEngine@@QAEHXZ 00416650 f i DrawingSurface.obj
 0001:00015670       ?getRedrawRectRealTop@BaseEngine@@QAEHXZ 00416670 f i DrawingSurface.obj
 0001:00015690       ?getRedrawRectVirtualBottom@BaseEngine@@QAEHXZ 00416690 f i DrawingSurface.obj
 0001:000156b0       ?getRedrawRectVirtualLeft@BaseEngine@@QAEHXZ 004166b0 f i DrawingSurface.obj
 0001:000156d0       ?getRedrawRectVirtualRight@BaseEngine@@QAEHXZ 004166d0 f i DrawingSurface.obj
 0001:000156f0       ?getRedrawRectVirtualTop@BaseEngine@@QAEHXZ 004166f0 f i DrawingSurface.obj
 0001:00015710       ?getTTFFont@Font@@QAEPAU_TTF_Font@@XZ 00416710 f i DrawingSurface.obj
 0001:00015730       ?mySDLTempRelockSurface@DrawingSurface@@QAEXXZ 00416730 f i DrawingSurface.obj
 0001:00015780       ?mySDLTempUnlockSurface@DrawingSurface@@QAEXXZ 00416780 f i DrawingSurface.obj
 0001:000157d0       ?setDrawPointsFilter@DrawingSurface@@QAEXPAVFilterPoints@@@Z 004167d0 f i DrawingSurface.obj
 0001:000157f0       ??0FlashingDemo@@QAE@XZ    004167f0 f   FlashingDemo.obj
 0001:000158b0       ??1FlashingDemo@@UAE@XZ    004168b0 f   FlashingDemo.obj
 0001:00015910       ?virtSetupBackgroundBuffer@FlashingDemo@@UAEXXZ 00416910 f   FlashingDemo.obj
 0001:00015db0       ?virtMainLoopDoBeforeUpdate@FlashingDemo@@UAEXXZ 00416db0 f   FlashingDemo.obj
 0001:00015e70       ?virtCreateSurfaces@FlashingDemo@@UAEXXZ 00416e70 f   FlashingDemo.obj
 0001:00015ee0       ??0?$_Vector_const_iterator@V?$_Vector_val@U?$_Simple_types@PAVDisplayableObject@@@std@@@std@@@std@@QAE@PAPAVDisplayableObject@@PBU_Container_base12@1@@Z 00416ee0 f i gameState.obj
 0001:00015f10       ??9?$_Vector_const_iterator@V?$_Vector_val@U?$_Simple_types@PAVDisplayableObject@@@std@@@std@@@std@@QBE_NABV01@@Z 00416f10 f i gameState.obj
 0001:00015f50       ?assign@?$basic_string@DU?$char_traits@D@std@@V?$allocator@D@2@@std@@QAEAAV12@QBDI@Z 00416f50 f i gameState.obj
 0001:00015fd0       ??_D?$basic_stringstream@DU?$char_traits@D@std@@V?$allocator@D@2@@std@@QAEXXZ 00416fd0 f i gameState.obj
 0001:00016010       ?_Calculate_growth@?$basic_string@DU?$char_traits@D@std@@V?$allocator@D@2@@std@@ABEII@Z 00417010 f i gameState.obj
 0001:00016040       ?drawBackgroundThickLine@BaseEngine@@QAEXHHHHIH@Z 00417040 f i gameState.obj
 0001:000160a0       ??1DrawingSurface@@QAE@XZ  004170a0 f i FlashingDemo.obj
 0001:000160c0       ??_EFlashingDemo@@UAEPAXI@Z 004170c0 f i FlashingDemo.obj
 0001:000160c0       ??_GFlashingDemo@@UAEPAXI@Z 004170c0 f i FlashingDemo.obj
 0001:00016100       ?copyAllBackgroundBuffer@BaseEngine@@UAEXXZ 00417100 f i FlashingDemo.obj
 0001:00016130       ?copyBackgroundPixels@BaseEngine@@UAEXHHHH@Z 00417130 f i FlashingDemo.obj
 0001:00016180       ?createSurface@DrawingSurface@@QAEXHH@Z 00417180 f i FlashingDemo.obj
 0001:000161d0       ?destroyOldObjects@DisplayableObjectContainer@@UAEX_N@Z 004171d0 f i FlashingDemo.obj
 0001:00016290       ?allocate@?$allocator@V?$vector@MV?$allocator@M@std@@@std@@@std@@QAEPAV?$vector@MV?$allocator@M@std@@@2@I@Z 00417290 f i gameSetupState.obj
 0001:000162c0       ?fillBackground@BaseEngine@@UAEXI@Z 004172c0 f i FlashingDemo.obj
 0001:000162f0       ?fillSurface@DrawingSurface@@QAEXI@Z 004172f0 f i FlashingDemo.obj
 0001:00016390       ?filter@BaseEngine@@UAE_NPAVDrawingSurface@@AAH1AAI_N@Z 00417390 f i FlashingDemo.obj
 0001:00016450       ?filterConvertRealToVirtualXPosition@FilterPoints@@UAEHH@Z 00417450 f i FlashingDemo.obj
 0001:00016470       ?filterConvertRealToVirtualYPosition@FilterPoints@@UAEHH@Z 00417470 f i FlashingDemo.obj
 0001:00016490       ?filterConvertVirtualToRealXPosition@FilterPoints@@UAEHH@Z 00417490 f i FlashingDemo.obj
 0001:000164b0       ?filterConvertVirtualToRealYPosition@FilterPoints@@UAEHH@Z 004174b0 f i FlashingDemo.obj
 0001:000164d0       ?getModifiedTime@BaseEngine@@UBEHXZ 004174d0 f i FlashingDemo.obj
 0001:00016510       ?mySDLLockSurface@DrawingSurface@@QAEXXZ 00417510 f i FlashingDemo.obj
 0001:00016560       ?mySDLUnlockSurface@DrawingSurface@@QAEXXZ 00417560 f i FlashingDemo.obj
 0001:000165b0       ?redrawDisplay@BaseEngine@@QAEXXZ 004175b0 f i FlashingDemo.obj
 0001:000165d0       ?size@?$vector@PAVDisplayableObject@@V?$allocator@PAVDisplayableObject@@@std@@@std@@QBEIXZ 004175d0 f i FlashingDemo.obj
 0001:00016600       ?virtBackgroundMouseDown@BaseEngine@@UAEXHHHHH@Z 00417600 f i FlashingDemo.obj
 0001:00016610       ?virtMainLoopDoAfterUpdate@BaseEngine@@UAEXXZ 00417610 f i FlashingDemo.obj
 0001:00016620       ?virtMainLoopPostUpdate@BaseEngine@@UAEXXZ 00417620 f i FlashingDemo.obj
 0001:00016630       ?virtMainLoopPreUpdate@BaseEngine@@UAEXXZ 00417630 f i FlashingDemo.obj
 0001:00016640       ?virtMainLoopStartIteration@BaseEngine@@UAEXXZ 00417640 f i FlashingDemo.obj
 0001:00016650       ?virtMouseWheel@BaseEngine@@UAEXHHHH@Z 00417650 f i FlashingDemo.obj
 0001:00016660       ?virtPostDraw@BaseEngine@@UAEXXZ 00417660 f i FlashingDemo.obj
 0001:00016670       ?virtPreDraw@BaseEngine@@UAEXXZ 00417670 f i FlashingDemo.obj
 0001:00016680       ?virtRealMouseDown@BaseEngine@@UAEXHHH@Z 00417680 f i FlashingDemo.obj
 0001:00016690       ?virtRealMouseUp@BaseEngine@@UAEXHHH@Z 00417690 f i FlashingDemo.obj
 0001:000166a0       ?virtTouchEvent@BaseEngine@@UAEXHH_J0MMMMM@Z 004176a0 f i FlashingDemo.obj
 0001:000166b0       ?enter@gameSetupState@@UAEXXZ 004176b0 f   gameSetupState.obj
 0001:00016a70       ?foreGroundStrings@gameSetupState@@UAEXXZ 00417a70 f   gameSetupState.obj
 0001:00016ad0       ?initObjects@gameSetupState@@UAEXXZ 00417ad0 f   gameSetupState.obj
 0001:00016ae0       ?reset@gameSetupState@@UAEXXZ 00417ae0 f   gameSetupState.obj
 0001:00016af0       ?mouseDown@gameSetupState@@UAEXHHH@Z 00417af0 f   gameSetupState.obj
 0001:00016dc0       ?mainLoopPreUpdate@gameSetupState@@UAEXXZ 00417dc0 f   gameSetupState.obj
 0001:00016f00       ?reEntry@gameSetupState@@UAEXXZ 00417f00 f   gameSetupState.obj
 0001:00016f10       ?keyPressed@gameSetupState@@UAEXH@Z 00417f10 f   gameSetupState.obj
 0001:00016f20       ??1gameSetupState@@UAE@XZ  00417f20 f   gameSetupState.obj
 0001:00017020       ?generateAnimationFrames@gameSetupState@@AAEXXZ 00418020 f   gameSetupState.obj
 0001:000173f0       ??1sentry@?$basic_istream@DU?$char_traits@D@std@@@std@@QAE@XZ 004183f0 f i gameState.obj
 0001:00017430       ?_Calculate_growth@?$vector@PAVPsyeb10Enemy@@V?$allocator@PAVPsyeb10Enemy@@@std@@@std@@ABEII@Z 00418430 f i gameState.obj
 0001:000174a0       ?_Clamp_suffix_size@?$_String_val@U?$_Simple_types@D@std@@@std@@QBEIII@Z 004184a0 f i gameState.obj
 0001:00017520       ??8?$_Vector_const_iterator@V?$_Vector_val@U?$_Simple_types@PAVDisplayableObject@@@std@@@std@@@std@@QBE_NABV01@@Z 00418520 f i gameState.obj
 0001:000175b0       ?_Erase_noexcept@?$basic_string@DU?$char_traits@D@std@@V?$allocator@D@2@@std@@AAEAAV12@II@Z 004185b0 f i gameState.obj
 0001:00017650       ??_E?$basic_ofstream@DU?$char_traits@D@std@@@std@@UAEPAXI@Z 00418650 f i gameState.obj
 0001:00017650       ??_G?$basic_ofstream@DU?$char_traits@D@std@@@std@@UAEPAXI@Z 00418650 f i gameState.obj
 0001:000176d0       ??_E?$basic_stringbuf@DU?$char_traits@D@std@@V?$allocator@D@2@@std@@UAEPAXI@Z 004186d0 f i gameState.obj
 0001:000176d0       ??_G?$basic_stringbuf@DU?$char_traits@D@std@@V?$allocator@D@2@@std@@UAEPAXI@Z 004186d0 f i gameState.obj
 0001:00017740       ??$?0$$V@?$_Compressed_pair@V?$allocator@PAVPsyeb10Enemy@@@std@@V?$_Vector_val@U?$_Simple_types@PAVPsyeb10Enemy@@@std@@@2@$00@std@@QAE@U_Zero_then_variadic_args_t@1@@Z 00418740 f i gameSetupState.obj
 0001:00017770       ??$?0AAPAV?$tuple@P8gameSetupState@@AEXXZPAV1@@std@@@?$_Compressed_pair@U?$default_delete@V?$tuple@P8gameSetupState@@AEXXZPAV1@@std@@@std@@PAV?$tuple@P8gameSetupState@@AEXXZPAV1@@2@$00@std@@QAE@U_Zero_then_variadic_args_t@1@AAPAV?$tuple@P8gameSetupState@@AEXXZPAV1@@1@@Z 00418770 f i gameSetupState.obj
 0001:000177a0       ??$?0ABV?$allocator@M@std@@$$V@?$_Compressed_pair@V?$allocator@M@std@@V?$_Vector_val@U?$_Simple_types@M@std@@@2@$00@std@@QAE@U_One_then_variadic_args_t@1@ABV?$allocator@M@1@@Z 004187a0 f i gameSetupState.obj
 0001:000177f0       ??$?0M@?$allocator@U_Container_proxy@std@@@std@@QAE@ABV?$allocator@M@1@@Z 004187f0 f i gameSetupState.obj
 0001:00017820       ??$?0P8gameSetupState@@AEXXZ@?$_Tuple_val@P8gameSetupState@@AEXXZ@std@@QAE@$$QAP8gameSetupState@@AEXXZ@Z 00418820 f i gameSetupState.obj
 0001:00017850       ??$?0P8gameSetupState@@AEXXZPAV0@$0A@@?$tuple@P8gameSetupState@@AEXXZPAV1@@std@@QAE@$$QAP8gameSetupState@@AEXXZ$$QAPAV2@@Z 00418850 f i gameSetupState.obj
 0001:000178c0       ??$?0P8gameSetupState@@AEXXZPAV0@$0A@@thread@std@@QAE@$$QAP8gameSetupState@@AEXXZ$$QAPAV2@@Z 004188c0 f i gameSetupState.obj
 0001:00017910       ??$?0PAVDrawingSurface@@@?$allocator@U_Container_proxy@std@@@std@@QAE@ABV?$allocator@PAVDrawingSurface@@@1@@Z 00418910 f i gameSetupState.obj
 0001:00017940       ??$?0PAVPsyeb10Enemy@@@?$allocator@U_Container_proxy@std@@@std@@QAE@ABV?$allocator@PAVPsyeb10Enemy@@@1@@Z 00418940 f i gameSetupState.obj
 0001:00017950       ??$?0U?$default_delete@V?$tuple@P8gameSetupState@@AEXXZPAV1@@std@@@std@@$0A@@?$unique_ptr@V?$tuple@P8gameSetupState@@AEXXZPAV1@@std@@U?$default_delete@V?$tuple@P8gameSetupState@@AEXXZPAV1@@std@@@2@@std@@QAE@$$QAV01@@Z 00418950 f i gameSetupState.obj
 0001:000179a0       ??$?0PAVgameSetupState@@@?$_Tuple_val@PAVgameSetupState@@@std@@QAE@$$QAPAVgameSetupState@@@Z 004189a0 f i gameSetupState.obj
 0001:000179d0       ??$?0U_Exact_args_t@std@@P8gameSetupState@@AEXXZPAV2@$0A@@?$tuple@P8gameSetupState@@AEXXZPAV1@@std@@QAE@U_Exact_args_t@1@$$QAP8gameSetupState@@AEXXZ$$QAPAV3@@Z 004189d0 f i gameSetupState.obj
 0001:00017a30       ??$?0U?$default_delete@V?$tuple@P8gameSetupState@@AEXXZPAV1@@std@@@std@@PAV?$tuple@P8gameSetupState@@AEXXZPAV1@@1@@?$_Compressed_pair@U?$default_delete@V?$tuple@P8gameSetupState@@AEXXZPAV1@@std@@@std@@PAV?$tuple@P8gameSetupState@@AEXXZPAV1@@2@$00@std@@QAE@U_One_then_variadic_args_t@1@$$QAU?$default_delete@V?$tuple@P8gameSetupState@@AEXXZPAV1@@std@@@1@$$QAPAV?$tuple@P8gameSetupState@@AEXXZPAV1@@1@@Z 00418a30 f i gameSetupState.obj
 0001:00017a60       ?capacity@?$vector@PAVDrawingSurface@@V?$allocator@PAVDrawingSurface@@@std@@@std@@QBEIXZ 00418a60 f i gameSetupState.obj
 0001:00017a90       ??$?0U_Exact_args_t@std@@$0A@@?$tuple@$$V@std@@QAE@U_Exact_args_t@1@@Z 00418a90 f i gameSetupState.obj
 0001:00017aa0       ??$?0U_Exact_args_t@std@@PAVgameSetupState@@$$V$0A@@?$tuple@PAVgameSetupState@@@std@@QAE@U_Exact_args_t@1@$$QAPAVgameSetupState@@@Z 00418aa0 f i gameSetupState.obj
 0001:00017ae0       ??$_Copy_memmove@PAMPAM@std@@YAPAMPAM00@Z 00418ae0 f i gameSetupState.obj
 0001:00017b50       ??$?0V?$vector@MV?$allocator@M@std@@@std@@@?$allocator@U_Container_proxy@std@@@std@@QAE@ABV?$allocator@V?$vector@MV?$allocator@M@std@@@std@@@1@@Z 00418b50 f i gameSetupState.obj
 0001:00017b70       ??$_Allocate_at_least_helper@V?$allocator@M@std@@@std@@YAPAMAAV?$allocator@M@0@AAI@Z 00418b70 f i gameSetupState.obj
 0001:00017b90       ??$_Allocate_at_least_helper@V?$allocator@PAVDrawingSurface@@@std@@@std@@YAPAPAVDrawingSurface@@AAV?$allocator@PAVDrawingSurface@@@0@AAI@Z 00418b90 f i gameSetupState.obj
 0001:00017bb0       ?getMapYForScreenY@TileManager@@QBEHH@Z 00418bb0 f i gameSetupState.obj
 0001:00017be0       ??$_Allocate_at_least_helper@V?$allocator@V?$vector@MV?$allocator@M@std@@@std@@@std@@@std@@YAPAV?$vector@MV?$allocator@M@std@@@0@AAV?$allocator@V?$vector@MV?$allocator@M@std@@@std@@@0@AAI@Z 00418be0 f i gameSetupState.obj
 0001:00017c00       ??$_Construct_n@ABV?$vector@MV?$allocator@M@std@@@std@@@?$vector@V?$vector@MV?$allocator@M@std@@@std@@V?$allocator@V?$vector@MV?$allocator@M@std@@@std@@@2@@std@@AAEXIABV?$vector@MV?$allocator@M@std@@@1@@Z 00418c00 f i gameSetupState.obj
 0001:00017cf0       ??$_Construct_in_place@PAVDrawingSurface@@ABQAV1@@std@@YAXAAPAVDrawingSurface@@ABQAV1@@Z 00418cf0 f i gameSetupState.obj
 0001:00017d30       ??$_Copy_memmove@PAPAVDrawingSurface@@PAPAV1@@std@@YAPAPAVDrawingSurface@@PAPAV1@00@Z 00418d30 f i gameSetupState.obj
 0001:00017da0       ??$_Copy_memmove_tail@PAM@std@@YAPAMQBDQAMII@Z 00418da0 f i gameSetupState.obj
 0001:00017de0       ??$_Copy_memmove_tail@PAPAVDrawingSurface@@@std@@YAPAPAVDrawingSurface@@QBDQAPAV1@II@Z 00418de0 f i gameSetupState.obj
 0001:00017e20       ??$_Construct_n@$$V@?$vector@MV?$allocator@M@std@@@std@@AAEXI@Z 00418e20 f i gameSetupState.obj
 0001:00017f00       ?find@?$_Narrow_char_traits@DH@std@@SAPBDQBDIABD@Z 00418f00 f i gameState.obj
 0001:00017f40       ??$_Destroy_range@V?$allocator@V?$vector@MV?$allocator@M@std@@@std@@@std@@@std@@YAXPAV?$vector@MV?$allocator@M@std@@@0@QAV10@AAV?$allocator@V?$vector@MV?$allocator@M@std@@@std@@@0@@Z 00418f40 f i gameSetupState.obj
 0001:00017fb0       ??$_Emplace_one_at_back@ABQAVDrawingSurface@@@?$vector@PAVDrawingSurface@@V?$allocator@PAVDrawingSurface@@@std@@@std@@AAEAAPAVDrawingSurface@@ABQAV2@@Z 00418fb0 f i gameSetupState.obj
 0001:00018010       ??$_Reallocate@$0A@@?$vector@PAVDrawingSurface@@V?$allocator@PAVDrawingSurface@@@std@@@std@@AAEXAAI@Z 00419010 f i gameSetupState.obj
 0001:00018120       ??$_Destroy_range@V?$allocator@M@std@@@std@@YAXPAMQAMAAV?$allocator@M@0@@Z 00419120 f i gameSetupState.obj
 0001:00018130       ??0?$_Vector_val@U?$_Simple_types@M@std@@@std@@QAE@XZ 00419130 f i gameSetupState.obj
 0001:00018170       ?setMapValue@TileManager@@QAEHHHH@Z 00419170 f i gameSetupState.obj
 0001:000181a0       ??$_Destroy_range@V?$allocator@PAVDrawingSurface@@@std@@@std@@YAXPAPAVDrawingSurface@@QAPAV1@AAV?$allocator@PAVDrawingSurface@@@0@@Z 004191a0 f i gameSetupState.obj
 0001:000181b0       ??$make_unique@V?$tuple@P8gameSetupState@@AEXXZPAV1@@std@@P8gameSetupState@@AEXXZPAV3@$0A@@std@@YA?AV?$unique_ptr@V?$tuple@P8gameSetupState@@AEXXZPAV1@@std@@U?$default_delete@V?$tuple@P8gameSetupState@@AEXXZPAV1@@std@@@2@@0@$$QAP8gameSetupState@@AEXXZ$$QAPAV2@@Z 004191b0 f i gameSetupState.obj
 0001:00018250       ??$_Emplace_back@$$V@?$_Uninitialized_backout_al@V?$allocator@M@std@@@std@@QAEXXZ 00419250 f i gameSetupState.obj
 0001:000182b0       ??$_Emplace_back@AAM@?$_Uninitialized_backout_al@V?$allocator@M@std@@@std@@QAEXAAM@Z 004192b0 f i gameSetupState.obj
 0001:00018310       ??$_Emplace_back@ABV?$vector@MV?$allocator@M@std@@@std@@@?$_Uninitialized_backout_al@V?$allocator@V?$vector@MV?$allocator@M@std@@@std@@@std@@@std@@QAEXABV?$vector@MV?$allocator@M@std@@@1@@Z 00419310 f i gameSetupState.obj
 0001:00018360       ?size@?$vector@PAVDrawingSurface@@V?$allocator@PAVDrawingSurface@@@std@@@std@@QBEIXZ 00419360 f i gameSetupState.obj
 0001:00018390       ??$_Emplace_back@PAVDrawingSurface@@@?$_Uninitialized_backout_al@V?$allocator@PAVDrawingSurface@@@std@@@std@@QAEX$$QAPAVDrawingSurface@@@Z 00419390 f i gameSetupState.obj
 0001:000183e0       _sinf                      004193e0 f i gameSetupState.obj
 0001:00018410       ??$_Emplace_back_with_unused_capacity@ABQAVDrawingSurface@@@?$vector@PAVDrawingSurface@@V?$allocator@PAVDrawingSurface@@@std@@@std@@AAEAAPAVDrawingSurface@@ABQAV2@@Z 00419410 f i gameSetupState.obj
 0001:00018480       ??$_Start@P8gameSetupState@@AEXXZPAV1@@thread@std@@AAEX$$QAP8gameSetupState@@AEXXZ$$QAPAV2@@Z 00419480 f i gameSetupState.obj
 0001:00018570       ??0?$_Vector_val@U?$_Simple_types@PAVPsyeb10Enemy@@@std@@@std@@QAE@XZ 00419570 f i gameSetupState.obj
 0001:00018600       ?begin@?$vector@PAVDisplayableObject@@V?$allocator@PAVDisplayableObject@@@std@@@std@@QBE?AV?$_Vector_const_iterator@V?$_Vector_val@U?$_Simple_types@PAVDisplayableObject@@@std@@@std@@@2@XZ 00419600 f i gameState.obj
 0001:00018660       ??0?$vector@V?$vector@MV?$allocator@M@std@@@std@@V?$allocator@V?$vector@MV?$allocator@M@std@@@std@@@2@@std@@QAE@IABV?$vector@MV?$allocator@M@std@@@1@ABV?$allocator@V?$vector@MV?$allocator@M@std@@@std@@@1@@Z 00419660 f i gameSetupState.obj
 0001:000186c0       ??$_Get_unwrapped@ABQAPAVDrawingSurface@@@std@@YA?A_TABQAPAVDrawingSurface@@@Z 004196c0 f i gameSetupState.obj
 0001:000186d0       ??$_Uninitialized_value_construct_n@V?$allocator@M@std@@@std@@YAPAMPAMIAAV?$allocator@M@0@@Z 004196d0 f i gameSetupState.obj
 0001:00018790       ??$_Get_unwrapped@PAM@std@@YA?A_T$$QAPAM@Z 00419790 f i gameSetupState.obj
 0001:000187a0       ??$_Uninitialized_copy@PAMPAMV?$allocator@M@std@@@std@@YAPAMPAM00AAV?$allocator@M@0@@Z 004197a0 f i gameSetupState.obj
 0001:000188b0       ??$_Invoke@V?$tuple@P8gameSetupState@@AEXXZPAV1@@std@@$0A@$00@thread@std@@CGIPAX@Z 004198b0 f i gameSetupState.obj
 0001:00018950       ??0?$vector@MV?$allocator@M@std@@@std@@QAE@ABV01@@Z 00419950 f i gameSetupState.obj
 0001:000189f0       ??$_To_address@PAM@std@@YA?A_PABQAM@Z 004199f0 f i gameSetupState.obj
 0001:00018a00       ??$_To_address@PAPAVDrawingSurface@@@std@@YA?A_PABQAPAVDrawingSurface@@@Z 00419a00 f i gameSetupState.obj
 0001:00018a10       ??$_Unfancy@M@std@@YAPAMPAM@Z 00419a10 f i gameSetupState.obj
 0001:00018a20       ??$_Unfancy@PAVDrawingSurface@@@std@@YAPAPAVDrawingSurface@@PAPAV1@@Z 00419a20 f i gameSetupState.obj
 0001:00018a30       ??$_Unfancy@V?$vector@MV?$allocator@M@std@@@std@@@std@@YAPAV?$vector@MV?$allocator@M@std@@@0@PAV10@@Z 00419a30 f i gameSetupState.obj
 0001:00018a40       ??$_Uninitialized_move@PAPAVDrawingSurface@@V?$allocator@PAVDrawingSurface@@@std@@@std@@YAPAPAVDrawingSurface@@QAPAV1@0PAPAV1@AAV?$allocator@PAVDrawingSurface@@@0@@Z 00419a40 f i gameSetupState.obj
 0001:00018b20       ?sync@?$basic_filebuf@DU?$char_traits@D@std@@@std@@MAEHXZ 00419b20 f i gameState.obj
 0001:00018b80       ??$_Unfancy_maybe_null@PAVDrawingSurface@@@std@@YAPAPAVDrawingSurface@@PAPAV1@@Z 00419b80 f i gameSetupState.obj
 0001:00018b90       ??0TileManager@@QAE@HHHH@Z 00419b90 f i gameSetupState.obj
 0001:00018c00       ??0gameState@@QAE@PAVPsyeb10Engine@@@Z 00419c00 f i gameSetupState.obj
 0001:00018c90       ??1?$vector@V?$vector@MV?$allocator@M@std@@@std@@V?$allocator@V?$vector@MV?$allocator@M@std@@@std@@@2@@std@@QAE@XZ 00419c90 f i gameSetupState.obj
 0001:00018d50       ??$_Uninitialized_fill_n@V?$allocator@V?$vector@MV?$allocator@M@std@@@std@@@std@@@std@@YAPAV?$vector@MV?$allocator@M@std@@@0@PAV10@IABV10@AAV?$allocator@V?$vector@MV?$allocator@M@std@@@std@@@0@@Z 00419d50 f i gameSetupState.obj
 0001:00018de0       ??4thread@std@@QAEAAV01@$$QAV01@@Z 00419de0 f i gameSetupState.obj
 0001:00018e40       ?_Calculate_growth@?$vector@PAVDrawingSurface@@V?$allocator@PAVDrawingSurface@@@std@@@std@@ABEII@Z 00419e40 f i gameSetupState.obj
 0001:00018ea0       ??$_Zero_range@PAM@std@@YAPAMQAM0@Z 00419ea0 f i gameSetupState.obj
 0001:00018ef0       ??$addressof@PAVDrawingSurface@@@std@@YAPAPAVDrawingSurface@@AAPAV1@@Z 00419ef0 f i gameSetupState.obj
 0001:00018f30       ??$construct@M$$V@?$_Default_allocator_traits@V?$allocator@M@std@@@std@@SAXAAV?$allocator@M@1@QAM@Z 00419f30 f i gameSetupState.obj
 0001:00018f70       ??$construct@MAAM@?$_Default_allocator_traits@V?$allocator@M@std@@@std@@SAXAAV?$allocator@M@1@QAMAAM@Z 00419f70 f i gameSetupState.obj
 0001:00018fb0       ??$construct@PAVDrawingSurface@@ABQAV1@@?$_Default_allocator_traits@V?$allocator@PAVDrawingSurface@@@std@@@std@@SAXAAV?$allocator@PAVDrawingSurface@@@1@QAPAVDrawingSurface@@ABQAV3@@Z 00419fb0 f i gameSetupState.obj
 0001:00019010       ??$construct@V?$vector@MV?$allocator@M@std@@@std@@ABV12@@?$_Default_allocator_traits@V?$allocator@V?$vector@MV?$allocator@M@std@@@std@@@std@@@std@@SAXAAV?$allocator@V?$vector@MV?$allocator@M@std@@@std@@@1@QAV?$vector@MV?$allocator@M@std@@@1@ABV31@@Z 0041a010 f i gameSetupState.obj
 0001:00019040       ??$destroy@V?$vector@MV?$allocator@M@std@@@std@@@?$_Default_allocator_traits@V?$allocator@V?$vector@MV?$allocator@M@std@@@std@@@std@@@std@@SAXAAV?$allocator@V?$vector@MV?$allocator@M@std@@@std@@@1@QAV?$vector@MV?$allocator@M@std@@@1@@Z 0041a040 f i gameSetupState.obj
 0001:00019070       ??$exchange@PAU_Container_proxy@std@@$$T@std@@YAPAU_Container_proxy@0@AAPAU10@$$QA$$T@Z 0041a070 f i gameSetupState.obj
 0001:00019090       ?max_size@?$vector@V?$vector@MV?$allocator@M@std@@@std@@V?$allocator@V?$vector@MV?$allocator@M@std@@@std@@@2@@std@@QBEIXZ 0041a090 f i gameSetupState.obj
 0001:000190d0       ??$forward@AAM@std@@YAAAMAAM@Z 0041a0d0 f i gameSetupState.obj
 0001:000190e0       ??$forward@AAPAV?$tuple@P8gameSetupState@@AEXXZPAV1@@std@@@std@@YAAAPAV?$tuple@P8gameSetupState@@AEXXZPAV1@@0@AAPAV10@@Z 0041a0e0 f i gameSetupState.obj
 0001:000190f0       ??$forward@ABQAM@std@@YAABQAMABQAM@Z 0041a0f0 f i gameSetupState.obj
 0001:00019100       ??$forward@ABQAVDrawingSurface@@@std@@YAABQAVDrawingSurface@@ABQAV1@@Z 0041a100 f i gameSetupState.obj
 0001:00019110       ??$forward@ABV?$allocator@M@std@@@std@@YAABV?$allocator@M@0@ABV10@@Z 0041a110 f i gameSetupState.obj
 0001:00019120       ??$forward@ABV?$allocator@V?$vector@MV?$allocator@M@std@@@std@@@std@@@std@@YAABV?$allocator@V?$vector@MV?$allocator@M@std@@@std@@@0@ABV10@@Z 0041a120 f i gameSetupState.obj
 0001:00019130       ??$forward@ABV?$vector@MV?$allocator@M@std@@@std@@@std@@YAABV?$vector@MV?$allocator@M@std@@@0@ABV10@@Z 0041a130 f i gameSetupState.obj
 0001:00019140       ??$forward@P8gameSetupState@@AEXXZ@std@@YA$$QAP8gameSetupState@@AEXXZAAP81@AEXXZ@Z 0041a140 f i gameSetupState.obj
 0001:00019150       ??$forward@PAV?$tuple@P8gameSetupState@@AEXXZPAV1@@std@@@std@@YA$$QAPAV?$tuple@P8gameSetupState@@AEXXZPAV1@@0@AAPAV10@@Z 0041a150 f i gameSetupState.obj
 0001:00019160       ??$forward@PAVDrawingSurface@@@std@@YA$$QAPAVDrawingSurface@@AAPAV1@@Z 0041a160 f i gameSetupState.obj
 0001:00019170       ??$forward@PAVgameSetupState@@@std@@YA$$QAPAVgameSetupState@@AAPAV1@@Z 0041a170 f i gameSetupState.obj
 0001:00019180       ??$forward@U?$default_delete@V?$tuple@P8gameSetupState@@AEXXZPAV1@@std@@@std@@@std@@YA$$QAU?$default_delete@V?$tuple@P8gameSetupState@@AEXXZPAV1@@std@@@0@AAU10@@Z 0041a180 f i gameSetupState.obj
 0001:00019190       ??$forward@V?$allocator@M@std@@@std@@YA$$QAV?$allocator@M@0@AAV10@@Z 0041a190 f i gameSetupState.obj
 0001:000191a0       ??$get@$00P8gameSetupState@@AEXXZPAV1@@std@@YAAAPAVgameSetupState@@AAV?$tuple@P8gameSetupState@@AEXXZPAV1@@0@@Z 0041a1a0 f i gameSetupState.obj
 0001:000191c0       ??$get@$0A@P8gameSetupState@@AEXXZPAV1@@std@@YAAAP8gameSetupState@@AEXXZAAV?$tuple@P8gameSetupState@@AEXXZPAV1@@0@@Z 0041a1c0 f i gameSetupState.obj
 0001:000191d0       ??A?$vector@MV?$allocator@M@std@@@std@@QAEAAMI@Z 0041a1d0 f i gameSetupState.obj
 0001:00019290       ??$move@AAP8gameSetupState@@AEXXZ@std@@YA$$QAP8gameSetupState@@AEXXZAAP81@AEXXZ@Z 0041a290 f i gameSetupState.obj
 0001:000192a0       ??$move@AAPAM@std@@YA$$QAPAMAAPAM@Z 0041a2a0 f i gameSetupState.obj
 0001:000192b0       ??$move@AAPAPAVDrawingSurface@@@std@@YA$$QAPAPAVDrawingSurface@@AAPAPAV1@@Z 0041a2b0 f i gameSetupState.obj
 0001:000192c0       ??$move@AAPAVDrawingSurface@@@std@@YA$$QAPAVDrawingSurface@@AAPAV1@@Z 0041a2c0 f i gameSetupState.obj
 0001:00019300       ??$move@AAPAVgameSetupState@@@std@@YA$$QAPAVgameSetupState@@AAPAV1@@Z 0041a300 f i gameSetupState.obj
 0001:00019340       ??0?$_Uninitialized_backout_al@V?$allocator@M@std@@@std@@QAE@PAMAAV?$allocator@M@1@@Z 0041a340 f i gameSetupState.obj
 0001:00019380       ??0?$_Uninitialized_backout_al@V?$allocator@PAVDrawingSurface@@@std@@@std@@QAE@PAPAVDrawingSurface@@AAV?$allocator@PAVDrawingSurface@@@1@@Z 0041a380 f i gameSetupState.obj
 0001:000193d0       ??0?$_Uninitialized_backout_al@V?$allocator@V?$vector@MV?$allocator@M@std@@@std@@@std@@@std@@QAE@PAV?$vector@MV?$allocator@M@std@@@1@AAV?$allocator@V?$vector@MV?$allocator@M@std@@@std@@@1@@Z 0041a3d0 f i gameSetupState.obj
 0001:00019400       ?reserve@?$vector@PAVDrawingSurface@@V?$allocator@PAVDrawingSurface@@@std@@@std@@QAEXI@Z 0041a400 f i gameSetupState.obj
 0001:00019460       ??0?$_Vector_val@U?$_Simple_types@V?$vector@MV?$allocator@M@std@@@std@@@std@@@std@@QAE@XZ 0041a460 f i gameSetupState.obj
 0001:000194f0       ??0?$allocator@M@std@@QAE@XZ 0041a4f0 f i gameSetupState.obj
 0001:00019530       ??0?$allocator@PAVPsyeb10Enemy@@@std@@QAE@XZ 0041a530 f i gameSetupState.obj
 0001:00019580       ??0?$allocator@V?$vector@MV?$allocator@M@std@@@std@@@std@@QAE@XZ 0041a580 f i gameSetupState.obj
 0001:000195e0       ??0?$vector@MV?$allocator@M@std@@@std@@QAE@IABV?$allocator@M@1@@Z 0041a5e0 f i gameSetupState.obj
 0001:00019670       ??0?$vector@PAVPsyeb10Enemy@@V?$allocator@PAVPsyeb10Enemy@@@std@@@std@@QAE@XZ 0041a670 f i gameSetupState.obj
 0001:000196e0       ?_Buy_raw@?$vector@MV?$allocator@M@std@@@std@@AAEXI@Z 0041a6e0 f i gameSetupState.obj
 0001:00019750       ??0Psyeb10States@@QAE@XZ   0041a750 f i gameSetupState.obj
 0001:00019780       ??0Psyeb10TileManager@@QAE@XZ 0041a780 f i gameSetupState.obj
 0001:00019810       ??1?$_Tidy_guard@V?$vector@MV?$allocator@M@std@@@std@@@std@@QAE@XZ 0041a810 f i gameSetupState.obj
 0001:00019850       ??1?$_Tidy_guard@V?$vector@V?$vector@MV?$allocator@M@std@@@std@@V?$allocator@V?$vector@MV?$allocator@M@std@@@std@@@2@@std@@@std@@QAE@XZ 0041a850 f i gameSetupState.obj
 0001:000198c0       ??1?$_Uninitialized_backout_al@V?$allocator@M@std@@@std@@QAE@XZ 0041a8c0 f i gameSetupState.obj
 0001:00019930       ??1?$_Uninitialized_backout_al@V?$allocator@PAVDrawingSurface@@@std@@@std@@QAE@XZ 0041a930 f i gameSetupState.obj
 0001:000199a0       ??1?$_Uninitialized_backout_al@V?$allocator@V?$vector@MV?$allocator@M@std@@@std@@@std@@@std@@QAE@XZ 0041a9a0 f i gameSetupState.obj
 0001:000199f0       ??1?$vector@MV?$allocator@M@std@@@std@@QAE@XZ 0041a9f0 f i gameSetupState.obj
 0001:00019a40       ??1?$vector@PAVDrawingSurface@@V?$allocator@PAVDrawingSurface@@@std@@@std@@QAE@XZ 0041aa40 f i gameSetupState.obj
 0001:00019ae0       ??1Psyeb10States@@UAE@XZ   0041aae0 f i gameSetupState.obj
 0001:00019b00       ??1Psyeb10TileManager@@UAE@XZ 0041ab00 f i gameSetupState.obj
 0001:00019b30       ??1TileManager@@UAE@XZ     0041ab30 f i gameSetupState.obj
 0001:00019ba0       ??1_Reallocation_guard@?$vector@PAVDrawingSurface@@V?$allocator@PAVDrawingSurface@@@std@@@std@@QAE@XZ 0041aba0 f i gameSetupState.obj
 0001:00019c50       ??1_Simple_reallocation_guard@?$vector@PAVDrawingSurface@@V?$allocator@PAVDrawingSurface@@@std@@@std@@QAE@XZ 0041ac50 f i gameSetupState.obj
 0001:00019c80       ?_Buy_raw@?$vector@V?$vector@MV?$allocator@M@std@@@std@@V?$allocator@V?$vector@MV?$allocator@M@std@@@std@@@2@@std@@AAEXI@Z 0041ac80 f i gameSetupState.obj
 0001:00019d00       ??1menuTileManager@@UAE@XZ 0041ad00 f i gameSetupState.obj
 0001:00019d20       ??A?$vector@PAVDrawingSurface@@V?$allocator@PAVDrawingSurface@@@std@@@std@@QAEAAPAVDrawingSurface@@I@Z 0041ad20 f i gameSetupState.obj
 0001:00019db0       ??1thread@std@@QAE@XZ      0041adb0 f i gameSetupState.obj
 0001:00019de0       ??A?$vector@V?$vector@MV?$allocator@M@std@@@std@@V?$allocator@V?$vector@MV?$allocator@M@std@@@std@@@2@@std@@QAEAAV?$vector@MV?$allocator@M@std@@@1@I@Z 0041ade0 f i gameSetupState.obj
 0001:00019e70       ?_Orphan_range_unlocked@?$vector@PAVDrawingSurface@@V?$allocator@PAVDrawingSurface@@@std@@@std@@ABEXPAPAVDrawingSurface@@0@Z 0041ae70 f i gameSetupState.obj
 0001:00019ee0       ??R?$default_delete@V?$tuple@P8gameSetupState@@AEXXZPAV1@@std@@@std@@QBEXPAV?$tuple@P8gameSetupState@@AEXXZPAV1@@1@@Z 0041aee0 f i gameSetupState.obj
 0001:00019f20       ??_G?$vector@MV?$allocator@M@std@@@std@@QAEPAXI@Z 0041af20 f i gameSetupState.obj
 0001:00019f60       ??_GDrawingSurface@@QAEPAXI@Z 0041af60 f i gameSetupState.obj
 0001:00019fa0       ??_EPsyeb10States@@UAEPAXI@Z 0041afa0 f i gameSetupState.obj
 0001:00019fa0       ??_GPsyeb10States@@UAEPAXI@Z 0041afa0 f i gameSetupState.obj
 0001:00019fe0       ??_EPsyeb10TileManager@@UAEPAXI@Z 0041afe0 f i gameSetupState.obj
 0001:00019fe0       ??_GPsyeb10TileManager@@UAEPAXI@Z 0041afe0 f i gameSetupState.obj
 0001:0001a020       ??_ETileManager@@UAEPAXI@Z 0041b020 f i gameSetupState.obj
 0001:0001a020       ??_GTileManager@@UAEPAXI@Z 0041b020 f i gameSetupState.obj
 0001:0001a0a0       ??_EgameSetupState@@UAEPAXI@Z 0041b0a0 f i gameSetupState.obj
 0001:0001a0a0       ??_GgameSetupState@@UAEPAXI@Z 0041b0a0 f i gameSetupState.obj
 0001:0001a120       ??_EgameState@@UAEPAXI@Z   0041b120 f i gameSetupState.obj
 0001:0001a120       ??_GgameState@@UAEPAXI@Z   0041b120 f i gameSetupState.obj
 0001:0001a190       ?_Buy_nonzero@?$vector@MV?$allocator@M@std@@@std@@AAEXI@Z 0041b190 f i gameSetupState.obj
 0001:0001a1c0       ?_Change_array@?$vector@PAVDrawingSurface@@V?$allocator@PAVDrawingSurface@@@std@@@std@@AAEXQAPAVDrawingSurface@@II@Z 0041b1c0 f i gameSetupState.obj
 0001:0001a270       ?clear@?$vector@PAVDrawingSurface@@V?$allocator@PAVDrawingSurface@@@std@@@std@@QAEXXZ 0041b270 f i gameSetupState.obj
 0001:0001a300       ?_Get_first@?$_Compressed_pair@U?$default_delete@V?$tuple@P8gameSetupState@@AEXXZPAV1@@std@@@std@@PAV?$tuple@P8gameSetupState@@AEXXZPAV1@@2@$00@std@@QAEAAU?$default_delete@V?$tuple@P8gameSetupState@@AEXXZPAV1@@std@@@2@XZ 0041b300 f i gameSetupState.obj
 0001:0001a320       ?_Get_first@?$_Compressed_pair@V?$allocator@M@std@@V?$_Vector_val@U?$_Simple_types@M@std@@@2@$00@std@@QAEAAV?$allocator@M@2@XZ 0041b320 f i gameSetupState.obj
 0001:0001a340       ?_Get_first@?$_Compressed_pair@V?$allocator@M@std@@V?$_Vector_val@U?$_Simple_types@M@std@@@2@$00@std@@QBEABV?$allocator@M@2@XZ 0041b340 f i gameSetupState.obj
 0001:0001a360       ?_Get_first@?$_Compressed_pair@V?$allocator@PAVDrawingSurface@@@std@@V?$_Vector_val@U?$_Simple_types@PAVDrawingSurface@@@std@@@2@$00@std@@QAEAAV?$allocator@PAVDrawingSurface@@@2@XZ 0041b360 f i gameSetupState.obj
 0001:0001a380       ?_Get_first@?$_Compressed_pair@V?$allocator@PAVDrawingSurface@@@std@@V?$_Vector_val@U?$_Simple_types@PAVDrawingSurface@@@std@@@2@$00@std@@QBEABV?$allocator@PAVDrawingSurface@@@2@XZ 0041b380 f i gameSetupState.obj
 0001:0001a3a0       ?_Get_first@?$_Compressed_pair@V?$allocator@PAVPsyeb10Enemy@@@std@@V?$_Vector_val@U?$_Simple_types@PAVPsyeb10Enemy@@@std@@@2@$00@std@@QAEAAV?$allocator@PAVPsyeb10Enemy@@@2@XZ 0041b3a0 f i gameSetupState.obj
 0001:0001a3c0       ?_Get_first@?$_Compressed_pair@V?$allocator@V?$vector@MV?$allocator@M@std@@@std@@@std@@V?$_Vector_val@U?$_Simple_types@V?$vector@MV?$allocator@M@std@@@std@@@std@@@2@$00@std@@QAEAAV?$allocator@V?$vector@MV?$allocator@M@std@@@std@@@2@XZ 0041b3c0 f i gameSetupState.obj
 0001:0001a3e0       ?_Get_first@?$_Compressed_pair@V?$allocator@V?$vector@MV?$allocator@M@std@@@std@@@std@@V?$_Vector_val@U?$_Simple_types@V?$vector@MV?$allocator@M@std@@@std@@@std@@@2@$00@std@@QBEABV?$allocator@V?$vector@MV?$allocator@M@std@@@std@@@2@XZ 0041b3e0 f i gameSetupState.obj
 0001:0001a400       ?_Getal@?$vector@MV?$allocator@M@std@@@std@@AAEAAV?$allocator@M@2@XZ 0041b400 f i gameSetupState.obj
 0001:0001a430       ?_Getal@?$vector@MV?$allocator@M@std@@@std@@ABEABV?$allocator@M@2@XZ 0041b430 f i gameSetupState.obj
 0001:0001a450       ?isValidTilePosition@TileManager@@QBE_NHH@Z 0041b450 f i gameSetupState.obj
 0001:0001a4c0       ?_Getal@?$vector@PAVDrawingSurface@@V?$allocator@PAVDrawingSurface@@@std@@@std@@AAEAAV?$allocator@PAVDrawingSurface@@@2@XZ 0041b4c0 f i gameSetupState.obj
 0001:0001a540       ?_Getal@?$vector@PAVDrawingSurface@@V?$allocator@PAVDrawingSurface@@@std@@@std@@ABEABV?$allocator@PAVDrawingSurface@@@2@XZ 0041b540 f i gameSetupState.obj
 0001:0001a570       ?_Getal@?$vector@PAVPsyeb10Enemy@@V?$allocator@PAVPsyeb10Enemy@@@std@@@std@@AAEAAV?$allocator@PAVPsyeb10Enemy@@@2@XZ 0041b570 f i gameSetupState.obj
 0001:0001a5a0       ?_Getal@?$vector@V?$vector@MV?$allocator@M@std@@@std@@V?$allocator@V?$vector@MV?$allocator@M@std@@@std@@@2@@std@@AAEAAV?$allocator@V?$vector@MV?$allocator@M@std@@@std@@@2@XZ 0041b5a0 f i gameSetupState.obj
 0001:0001a5d0       ?_Getal@?$vector@V?$vector@MV?$allocator@M@std@@@std@@V?$allocator@V?$vector@MV?$allocator@M@std@@@std@@@2@@std@@ABEABV?$allocator@V?$vector@MV?$allocator@M@std@@@std@@@2@XZ 0041b5d0 f i gameSetupState.obj
 0001:0001a5f0       ?_Tidy@?$vector@MV?$allocator@M@std@@@std@@AAEXXZ 0041b5f0 f i gameSetupState.obj
 0001:0001a690       ?_Orphan_range@?$vector@PAVDrawingSurface@@V?$allocator@PAVDrawingSurface@@@std@@@std@@ABEXPAPAVDrawingSurface@@0@Z 0041b690 f i gameSetupState.obj
 0001:0001a6b0       ?_Tidy@?$vector@PAVDrawingSurface@@V?$allocator@PAVDrawingSurface@@@std@@@std@@AAEXXZ 0041b6b0 f i gameSetupState.obj
 0001:0001a750       ?_Orphan_range_locked@?$vector@PAVDrawingSurface@@V?$allocator@PAVDrawingSurface@@@std@@@std@@ABEXPAPAVDrawingSurface@@0@Z 0041b750 f i gameSetupState.obj
 0001:0001a7c0       ?join@thread@std@@QAEXXZ   0041b7c0 f i gameSetupState.obj
 0001:0001a830       ?_Release@?$_Uninitialized_backout_al@V?$allocator@M@std@@@std@@QAEPAMXZ 0041b830 f i gameSetupState.obj
 0001:0001a850       ?_Release@?$_Uninitialized_backout_al@V?$allocator@PAVDrawingSurface@@@std@@@std@@QAEPAPAVDrawingSurface@@XZ 0041b850 f i gameSetupState.obj
 0001:0001a870       ?_Release@?$_Uninitialized_backout_al@V?$allocator@V?$vector@MV?$allocator@M@std@@@std@@@std@@@std@@QAEPAV?$vector@MV?$allocator@M@std@@@2@XZ 0041b870 f i gameSetupState.obj
 0001:0001a890       ?deallocate@?$allocator@M@std@@QAEXQAMI@Z 0041b890 f i gameSetupState.obj
 0001:0001a910       ?_Unchecked_begin@?$vector@PAVDrawingSurface@@V?$allocator@PAVDrawingSurface@@@std@@@std@@QAEPAPAVDrawingSurface@@XZ 0041b910 f i gameSetupState.obj
 0001:0001a940       ?_Unchecked_end@?$vector@PAVDrawingSurface@@V?$allocator@PAVDrawingSurface@@@std@@@std@@QAEPAPAVDrawingSurface@@XZ 0041b940 f i gameSetupState.obj
 0001:0001a970       ?_Xlength@?$vector@MV?$allocator@M@std@@@std@@CAXXZ 0041b970 f i gameSetupState.obj
 0001:0001a980       ??$_Copy_memmove@PAPAVPsyeb10Enemy@@PAPAV1@@std@@YAPAPAVPsyeb10Enemy@@PAPAV1@00@Z 0041b980 f i gameState.obj
 0001:0001a9f0       ?_Xlength@?$vector@PAVDrawingSurface@@V?$allocator@PAVDrawingSurface@@@std@@@std@@CAXXZ 0041b9f0 f i gameSetupState.obj
 0001:0001aa00       ?deallocate@?$allocator@PAVDrawingSurface@@@std@@QAEXQAPAVDrawingSurface@@I@Z 0041ba00 f i gameSetupState.obj
 0001:0001aa90       ?_Xlength@?$vector@V?$vector@MV?$allocator@M@std@@@std@@V?$allocator@V?$vector@MV?$allocator@M@std@@@std@@@2@@std@@CAXXZ 0041ba90 f i gameSetupState.obj
 0001:0001aaa0       ?deallocate@?$allocator@V?$vector@MV?$allocator@M@std@@@std@@@std@@QAEXQAV?$vector@MV?$allocator@M@std@@@2@I@Z 0041baa0 f i gameSetupState.obj
 0001:0001ab30       ?allocate@?$allocator@M@std@@QAEPAMI@Z 0041bb30 f i gameSetupState.obj
 0001:0001ab60       ??$_Emplace_back_with_unused_capacity@ABQAVPsyeb10Enemy@@@?$vector@PAVPsyeb10Enemy@@V?$allocator@PAVPsyeb10Enemy@@@std@@@std@@AAEAAPAVPsyeb10Enemy@@ABQAV2@@Z 0041bb60 f i gameState.obj
 0001:0001abd0       ?allocate@?$allocator@PAVDrawingSurface@@@std@@QAEPAPAVDrawingSurface@@I@Z 0041bbd0 f i gameSetupState.obj
 0001:0001ac00       ?setMapSize@TileManager@@QAEXHH@Z 0041bc00 f i gameSetupState.obj
 0001:0001acf0       ?drawForegroundString@BaseEngine@@QAEXHHPBDIPAVFont@@@Z 0041bcf0 f i gameSetupState.obj
 0001:0001ad20       ?get@?$unique_ptr@V?$tuple@P8gameSetupState@@AEXXZPAV1@@std@@U?$default_delete@V?$tuple@P8gameSetupState@@AEXXZPAV1@@std@@@2@@std@@QBEPAV?$tuple@P8gameSetupState@@AEXXZPAV1@@2@XZ 0041bd20 f i gameSetupState.obj
 0001:0001ad40       ?getBackgroundSurface@BaseEngine@@QAEPAVDrawingSurface@@XZ 0041bd40 f i gameSetupState.obj
 0001:0001ad60       ?getCurrentMouseX@BaseEngine@@QBEHXZ 0041bd60 f i gameSetupState.obj
 0001:0001ad80       ?getCurrentMouseY@BaseEngine@@QBEHXZ 0041bd80 f i gameSetupState.obj
 0001:0001ae10       ?getMapValue@TileManager@@QBEHHH@Z 0041be10 f i gameSetupState.obj
 0001:0001aea0       ?getMapXForScreenX@TileManager@@QBEHH@Z 0041bea0 f i gameSetupState.obj
 0001:0001aed0       ??$_Ungetc@D@std@@YA_NABDPAU_iobuf@@@Z 0041bed0 f i gameState.obj
 0001:0001af10       ?front@?$basic_string@DU?$char_traits@D@std@@V?$allocator@D@2@@std@@QAEAADXZ 0041bf10 f i gameState.obj
 0001:0001afd0       ?joinable@thread@std@@QBE_NXZ 0041bfd0 f i gameSetupState.obj
 0001:0001b020       ?lockBackgroundForDrawing@BaseEngine@@QAEXXZ 0041c020 f i gameSetupState.obj
 0001:0001b040       ?max_size@?$_Default_allocator_traits@V?$allocator@M@std@@@std@@SAIABV?$allocator@M@2@@Z 0041c040 f i gameSetupState.obj
 0001:0001b070       ?max_size@?$_Default_allocator_traits@V?$allocator@PAVDrawingSurface@@@std@@@std@@SAIABV?$allocator@PAVDrawingSurface@@@2@@Z 0041c070 f i gameSetupState.obj
 0001:0001b0c0       ?max_size@?$_Default_allocator_traits@V?$allocator@V?$vector@MV?$allocator@M@std@@@std@@@std@@@std@@SAIABV?$allocator@V?$vector@MV?$allocator@M@std@@@std@@@2@@Z 0041c0c0 f i gameSetupState.obj
 0001:0001b0d0       ?max_size@?$vector@MV?$allocator@M@std@@@std@@QBEIXZ 0041c0d0 f i gameSetupState.obj
 0001:0001b180       ?max_size@?$vector@PAVDrawingSurface@@V?$allocator@PAVDrawingSurface@@@std@@@std@@QBEIXZ 0041c180 f i gameSetupState.obj
 0001:0001b1f0       ?push_back@?$vector@PAVDrawingSurface@@V?$allocator@PAVDrawingSurface@@@std@@@std@@QAEXABQAVDrawingSurface@@@Z 0041c1f0 f i gameSetupState.obj
 0001:0001b210       ?release@?$unique_ptr@V?$tuple@P8gameSetupState@@AEXXZPAV1@@std@@U?$default_delete@V?$tuple@P8gameSetupState@@AEXXZPAV1@@std@@@2@@std@@QAEPAV?$tuple@P8gameSetupState@@AEXXZPAV1@@2@XZ 0041c210 f i gameSetupState.obj
 0001:0001b260       ?select_on_container_copy_construction@?$_Default_allocator_traits@V?$allocator@M@std@@@std@@SA?AV?$allocator@M@2@ABV32@@Z 0041c260 f i gameSetupState.obj
 0001:0001b270       ??$_Emplace_reallocate@ABQAVDisplayableObject@@@?$vector@PAVDisplayableObject@@V?$allocator@PAVDisplayableObject@@@std@@@std@@AAEPAPAVDisplayableObject@@QAPAV2@ABQAV2@@Z 0041c270 f i gameState.obj
 0001:0001b440       ??$_Emplace_reallocate@ABQAVPsyeb10Enemy@@@?$vector@PAVPsyeb10Enemy@@V?$allocator@PAVPsyeb10Enemy@@@std@@@std@@AAEPAPAVPsyeb10Enemy@@QAPAV2@ABQAV2@@Z 0041c440 f i gameState.obj
 0001:0001b610       ??$_Emplace_reallocate@PAVPsyeb10Enemy@@@?$vector@PAVPsyeb10Enemy@@V?$allocator@PAVPsyeb10Enemy@@@std@@@std@@AAEPAPAVPsyeb10Enemy@@QAPAV2@$$QAPAV2@@Z 0041c610 f i gameState.obj
 0001:0001b7e0       ??$forward@PAVPsyeb10Enemy@@@std@@YA$$QAPAVPsyeb10Enemy@@AAPAV1@@Z 0041c7e0 f i gameState.obj
 0001:0001b7f0       ??$use_facet@V?$ctype@D@std@@@std@@YAABV?$ctype@D@0@ABVlocale@0@@Z 0041c7f0 f i gameState.obj
 0001:0001b900       ??0?$basic_stringstream@DU?$char_traits@D@std@@V?$allocator@D@2@@std@@QAE@XZ 0041c900 f i gameState.obj
 0001:0001b9e0       ??0?$basic_filebuf@DU?$char_traits@D@std@@@std@@QAE@XZ 0041c9e0 f i gameState.obj
 0001:0001ba10       ?_Get_buffer_view@?$basic_stringbuf@DU?$char_traits@D@std@@V?$allocator@D@2@@std@@QBE?AU_Buffer_view@12@XZ 0041ca10 f i gameState.obj
 0001:0001baf0       ??0?$basic_stringbuf@DU?$char_traits@D@std@@V?$allocator@D@2@@std@@QAE@ABV?$basic_string@DU?$char_traits@D@std@@V?$allocator@D@2@@1@H@Z 0041caf0 f i gameState.obj
 0001:0001bbe0       ??A?$vector@PAVPsyeb10Enemy@@V?$allocator@PAVPsyeb10Enemy@@@std@@@std@@QBEABQAVPsyeb10Enemy@@I@Z 0041cbe0 f i gameState.obj
 0001:0001bc70       ?push_back@?$basic_string@DU?$char_traits@D@std@@V?$allocator@D@2@@std@@QAEXD@Z 0041cc70 f i gameState.obj
 0001:0001bd10       ??Bsentry@?$basic_istream@DU?$char_traits@D@std@@@std@@QBE_NXZ 0041cd10 f i gameState.obj
 0001:0001bd30       ?_Endwrite@?$basic_filebuf@DU?$char_traits@D@std@@@std@@IAE_NXZ 0041cd30 f i gameState.obj
 0001:0001be40       ?_Change_array@?$vector@PAVPsyeb10Enemy@@V?$allocator@PAVPsyeb10Enemy@@@std@@@std@@AAEXQAPAVPsyeb10Enemy@@II@Z 0041ce40 f i gameState.obj
 0001:0001bf50       ?_Get_first@?$_Compressed_pair@U?$default_delete@V_Facet_base@std@@@std@@PAV_Facet_base@2@$00@std@@QAEAAU?$default_delete@V_Facet_base@std@@@2@XZ 0041cf50 f i gameState.obj
 0001:0001bf60       ?open@?$basic_filebuf@DU?$char_traits@D@std@@@std@@QAEPAV12@PBDHH@Z 0041cf60 f i gameState.obj
 0001:0001c020       ?_Get_first@?$_Compressed_pair@V?$allocator@PAVPsyeb10Enemy@@@std@@V?$_Vector_val@U?$_Simple_types@PAVPsyeb10Enemy@@@std@@@2@$00@std@@QBEABV?$allocator@PAVPsyeb10Enemy@@@2@XZ 0041d020 f i gameState.obj
 0001:0001c030       ?_Init@?$basic_filebuf@DU?$char_traits@D@std@@@std@@IAEXPAU_iobuf@@W4_Initfl@12@@Z 0041d030 f i gameState.obj
 0001:0001c140       ?allocate@?$allocator@PAVPsyeb10Enemy@@@std@@QAEPAPAVPsyeb10Enemy@@I@Z 0041d140 f i gameState.obj
 0001:0001c1d0       ??_E?$basic_stringstream@DU?$char_traits@D@std@@V?$allocator@D@2@@std@@UAEPAXI@Z 0041d1d0 f i gameState.obj
 0001:0001c1d0       ??_G?$basic_stringstream@DU?$char_traits@D@std@@V?$allocator@D@2@@std@@UAEPAXI@Z 0041d1d0 f i gameState.obj
 0001:0001c230       ?drawBackgroundString@BaseEngine@@QAEXHHPBDIPAVFont@@@Z 0041d230 f i gameState.obj
 0001:0001c260       ?stoi@std@@YAHABV?$basic_string@DU?$char_traits@D@std@@V?$allocator@D@2@@1@PAIH@Z 0041d260 f i gameState.obj
 0001:0001c2e0       ??_EpauseState@@UAEPAXI@Z  0041d2e0 f i gameState.obj
 0001:0001c2e0       ??_GpauseState@@UAEPAXI@Z  0041d2e0 f i gameState.obj
 0001:0001c310       ?get_allocator@?$basic_string@DU?$char_traits@D@std@@V?$allocator@D@2@@std@@QBE?AV?$allocator@D@2@XZ 0041d310 f i gameState.obj
 0001:0001c330       ?seekoff@?$basic_filebuf@DU?$char_traits@D@std@@@std@@MAE?AV?$fpos@U_Mbstatet@@@2@_JHH@Z 0041d330 f i gameState.obj
 0001:0001c420       ?_Compat@?$_Vector_const_iterator@V?$_Vector_val@U?$_Simple_types@PAVDisplayableObject@@@std@@@std@@@std@@QBEXABV12@@Z 0041d420 f i gameState.obj
 0001:0001c500       ??$?0AAPAV_Facet_base@std@@@?$_Compressed_pair@U?$default_delete@V_Facet_base@std@@@std@@PAV_Facet_base@2@$00@std@@QAE@U_Zero_then_variadic_args_t@1@AAPAV_Facet_base@1@@Z 0041d500 f i gameState.obj
 0001:0001c530       ??$?0ABV?$allocator@D@std@@$$V@?$_Compressed_pair@V?$allocator@D@std@@V?$_String_val@U?$_Simple_types@D@std@@@2@$00@std@@QAE@U_One_then_variadic_args_t@1@ABV?$allocator@D@1@@Z 0041d530 f i gameState.obj
 0001:0001c560       ??$?0U?$default_delete@V_Facet_base@std@@@std@@$0A@@?$unique_ptr@V_Facet_base@std@@U?$default_delete@V_Facet_base@std@@@2@@std@@QAE@PAV_Facet_base@1@@Z 0041d560 f i gameState.obj
 0001:0001c590       ??$?5DU?$char_traits@D@std@@V?$allocator@D@1@@std@@YAAAV?$basic_istream@DU?$char_traits@D@std@@@0@AAV10@AAV?$basic_string@DU?$char_traits@D@std@@V?$allocator@D@2@@0@@Z 0041d590 f i gameState.obj
 0001:0001c810       ?pause@BaseEngine@@QAEXXZ  0041d810 f i gameState.obj
 0001:0001c8b0       ??$_Allocate_at_least_helper@V?$allocator@PAVPsyeb10Enemy@@@std@@@std@@YAPAPAVPsyeb10Enemy@@AAV?$allocator@PAVPsyeb10Enemy@@@0@AAI@Z 0041d8b0 f i gameState.obj
 0001:0001c900       ??$_Construct_in_place@PAVDisplayableObject@@ABQAV1@@std@@YAXAAPAVDisplayableObject@@ABQAV1@@Z 0041d900 f i gameState.obj
 0001:0001c980       ??$_Construct_in_place@PAVPsyeb10Enemy@@ABQAV1@@std@@YAXAAPAVPsyeb10Enemy@@ABQAV1@@Z 0041d980 f i gameState.obj
 0001:0001ca00       ??$_Construct_in_place@PAVPsyeb10Enemy@@PAV1@@std@@YAXAAPAVPsyeb10Enemy@@$$QAPAV1@@Z 0041da00 f i gameState.obj
 0001:0001ca40       ?str@?$basic_stringbuf@DU?$char_traits@D@std@@V?$allocator@D@2@@std@@QBE?AV?$basic_string@DU?$char_traits@D@std@@V?$allocator@D@2@@2@XZ 0041da40 f i gameState.obj
 0001:0001caf0       ?underflow@?$basic_filebuf@DU?$char_traits@D@std@@@std@@MAEHXZ 0041daf0 f i gameState.obj
 0001:0001cbf0       ?_Unlock@?$basic_filebuf@DU?$char_traits@D@std@@@std@@UAEXXZ 0041dbf0 f i gameState.obj
 0001:0001cc90       ??$_Copy_memmove_tail@PAPAVPsyeb10Enemy@@@std@@YAPAPAVPsyeb10Enemy@@QBDQAPAV1@II@Z 0041dc90 f i gameState.obj
 0001:0001ccd0       ??$_Destroy_range@V?$allocator@PAVPsyeb10Enemy@@@std@@@std@@YAXPAPAVPsyeb10Enemy@@QAPAV1@AAV?$allocator@PAVPsyeb10Enemy@@@0@@Z 0041dcd0 f i gameState.obj
 0001:0001cce0       ?pointer_to@?$pointer_traits@PAD@std@@SAPADAAD@Z 0041dce0 f i gameState.obj
 0001:0001cd60       ??$_Emplace_back_with_unused_capacity@ABQAVDisplayableObject@@@?$vector@PAVDisplayableObject@@V?$allocator@PAVDisplayableObject@@@std@@@std@@AAEAAPAVDisplayableObject@@ABQAV2@@Z 0041dd60 f i gameState.obj
 0001:0001cdd0       ?_Release@?$_Uninitialized_backout_al@V?$allocator@PAVPsyeb10Enemy@@@std@@@std@@QAEPAPAVPsyeb10Enemy@@XZ 0041ddd0 f i gameState.obj
 0001:0001cdf0       ?underflow@?$basic_stringbuf@DU?$char_traits@D@std@@V?$allocator@D@2@@std@@MAEHXZ 0041ddf0 f i gameState.obj
 0001:0001ced0       ?erase@?$basic_string@DU?$char_traits@D@std@@V?$allocator@D@2@@std@@QAEAAV12@I@Z 0041ded0 f i gameState.obj
 0001:0001cf70       ?getDrawHeight@DisplayableObject@@QBEHXZ 0041df70 f i gameState.obj
 0001:0001d030       ?getXCentre@DisplayableObject@@QBEHXZ 0041e030 f i gameState.obj
 0001:0001d070       ?is_open@?$basic_ofstream@DU?$char_traits@D@std@@@std@@QBE_NXZ 0041e070 f i gameState.obj
 0001:0001d090       ?xsputn@?$basic_filebuf@DU?$char_traits@D@std@@@std@@MAE_JPBD_J@Z 0041e090 f i gameState.obj
 0001:0001d1f0       ??$_Get_unwrapped@ABQAPAVPsyeb10Enemy@@@std@@YA?A_TABQAPAVPsyeb10Enemy@@@Z 0041e1f0 f i gameState.obj
 0001:0001d230       ??$_Pocma@V?$allocator@D@std@@@std@@YAXAAV?$allocator@D@0@0@Z 0041e230 f i gameState.obj
 0001:0001d290       ??$_To_address@PAPAVPsyeb10Enemy@@@std@@YA?A_PABQAPAVPsyeb10Enemy@@@Z 0041e290 f i gameState.obj
 0001:0001d2a0       ?pbackfail@?$basic_stringbuf@DU?$char_traits@D@std@@V?$allocator@D@2@@std@@MAEHH@Z 0041e2a0 f i gameState.obj
 0001:0001d390       ?pbackfail@?$basic_filebuf@DU?$char_traits@D@std@@@std@@MAEHH@Z 0041e390 f i gameState.obj
 0001:0001d550       ??$_Unfancy@PAVPsyeb10Enemy@@@std@@YAPAPAVPsyeb10Enemy@@PAPAV1@@Z 0041e550 f i gameState.obj
 0001:0001d580       ??$_Unfancy_maybe_null@PAVPsyeb10Enemy@@@std@@YAPAPAVPsyeb10Enemy@@PAPAV1@@Z 0041e580 f i gameState.obj
 0001:0001d5e0       ?loadImage@ImageManager@@SA?AVSimpleImage@@V?$basic_string@DU?$char_traits@D@std@@V?$allocator@D@2@@std@@_N@Z 0041e5e0 f i gameState.obj
 0001:0001d720       ??$addressof@$$CBV?$_Vector_val@U?$_Simple_types@PAVDisplayableObject@@@std@@@std@@@std@@YAPBV?$_Vector_val@U?$_Simple_types@PAVDisplayableObject@@@std@@@0@ABV10@@Z 0041e720 f i gameState.obj
 0001:0001d730       ?max_size@?$vector@PAVPsyeb10Enemy@@V?$allocator@PAVPsyeb10Enemy@@@std@@@std@@QBEIXZ 0041e730 f i gameState.obj
 0001:0001d7d0       ?notifyObjectsAboutKeys@BaseEngine@@QAEX_N@Z 0041e7d0 f i gameState.obj
 0001:0001d870       ??$addressof@$$CBV?$codecvt@DDU_Mbstatet@@@std@@@std@@YAPBV?$codecvt@DDU_Mbstatet@@@0@ABV10@@Z 0041e870 f i gameState.obj
 0001:0001d8b0       ??$addressof@D@std@@YAPADAAD@Z 0041e8b0 f i gameState.obj
 0001:0001d8f0       ??$addressof@PAVDisplayableObject@@@std@@YAPAPAVDisplayableObject@@AAPAV1@@Z 0041e8f0 f i gameState.obj
 0001:0001d930       ??$addressof@PAVPsyeb10Enemy@@@std@@YAPAPAVPsyeb10Enemy@@AAPAV1@@Z 0041e930 f i gameState.obj
 0001:0001d970       ??$addressof@V?$basic_filebuf@DU?$char_traits@D@std@@@std@@@std@@YAPAV?$basic_filebuf@DU?$char_traits@D@std@@@0@AAV10@@Z 0041e970 f i gameState.obj
 0001:0001dac0       ??$addressof@V?$basic_string@DU?$char_traits@D@std@@V?$allocator@D@2@@std@@@std@@YAPAV?$basic_string@DU?$char_traits@D@std@@V?$allocator@D@2@@0@AAV10@@Z 0041eac0 f i gameState.obj
 0001:0001db40       ??$addressof@V?$basic_stringbuf@DU?$char_traits@D@std@@V?$allocator@D@2@@std@@@std@@YAPAV?$basic_stringbuf@DU?$char_traits@D@std@@V?$allocator@D@2@@0@AAV10@@Z 0041eb40 f i gameState.obj
 0001:0001db70       ?setAllObjectsVisible@DisplayableObjectContainer@@QBEX_N@Z 0041eb70 f i gameState.obj
 0001:0001dc50       ??$_Uninitialized_move@PAPAVPsyeb10Enemy@@V?$allocator@PAVPsyeb10Enemy@@@std@@@std@@YAPAPAVPsyeb10Enemy@@QAPAV1@0PAPAV1@AAV?$allocator@PAVPsyeb10Enemy@@@0@@Z 0041ec50 f i gameState.obj
 0001:0001dd30       ?push_back@?$vector@PAVDisplayableObject@@V?$allocator@PAVDisplayableObject@@@std@@@std@@QAEXABQAVDisplayableObject@@@Z 0041ed30 f i gameState.obj
 0001:0001ddf0       ??$exchange@PAV_Facet_base@std@@$$T@std@@YAPAV_Facet_base@0@AAPAV10@$$QA$$T@Z 0041edf0 f i gameState.obj
 0001:0001de30       ?push_back@?$vector@PAVPsyeb10Enemy@@V?$allocator@PAVPsyeb10Enemy@@@std@@@std@@QAEX$$QAPAVPsyeb10Enemy@@@Z 0041ee30 f i gameState.obj
 0001:0001df10       ??$forward@AAPAV_Facet_base@std@@@std@@YAAAPAV_Facet_base@0@AAPAV10@@Z 0041ef10 f i gameState.obj
 0001:0001df60       ??$forward@ABQAVDisplayableObject@@@std@@YAABQAVDisplayableObject@@ABQAV1@@Z 0041ef60 f i gameState.obj
 0001:0001dfb0       ??$forward@ABQAVPsyeb10Enemy@@@std@@YAABQAVPsyeb10Enemy@@ABQAV1@@Z 0041efb0 f i gameState.obj
 0001:0001e010       ??$forward@ABV?$allocator@D@std@@@std@@YAABV?$allocator@D@0@ABV10@@Z 0041f010 f i gameState.obj
 0001:0001e050       ?release@?$unique_ptr@V_Facet_base@std@@U?$default_delete@V_Facet_base@std@@@2@@std@@QAEPAV_Facet_base@2@XZ 0041f050 f i gameState.obj
 0001:0001e170       ??$getline@DU?$char_traits@D@std@@V?$allocator@D@2@@std@@YAAAV?$basic_istream@DU?$char_traits@D@std@@@0@AAV10@AAV?$basic_string@DU?$char_traits@D@std@@V?$allocator@D@2@@0@D@Z 0041f170 f i gameState.obj
 0001:0001e220       ??$move@AAPAPAVPsyeb10Enemy@@@std@@YA$$QAPAPAVPsyeb10Enemy@@AAPAPAV1@@Z 0041f220 f i gameState.obj
 0001:0001e2b0       ??$move@AAPAVPsyeb10Enemy@@@std@@YA$$QAPAVPsyeb10Enemy@@AAPAV1@@Z 0041f2b0 f i gameState.obj
 0001:0001e350       ?_Tidy@?$vector@V?$vector@MV?$allocator@M@std@@@std@@V?$allocator@V?$vector@MV?$allocator@M@std@@@std@@@2@@std@@AAEXXZ 0041f350 f i gameSetupState.obj
 0001:0001e400       ??0?$_Uninitialized_backout_al@V?$allocator@PAVPsyeb10Enemy@@@std@@@std@@QAE@PAPAVPsyeb10Enemy@@AAV?$allocator@PAVPsyeb10Enemy@@@1@@Z 0041f400 f i gameState.obj
 0001:0001e4b0       ??0?$_Vector_const_iterator@V?$_Vector_val@U?$_Simple_types@PAVDisplayableObject@@@std@@@std@@@std@@QAE@ABV01@@Z 0041f4b0 f i gameState.obj
 0001:0001e560       ??0?$basic_ifstream@DU?$char_traits@D@std@@@std@@QAE@PBDHH@Z 0041f560 f i gameState.obj
 0001:0001e690       ??0?$basic_string@DU?$char_traits@D@std@@V?$allocator@D@2@@std@@QAE@XZ 0041f690 f i gameState.obj
 0001:0001e6f0       ?_Init@?$basic_stringbuf@DU?$char_traits@D@std@@V?$allocator@D@2@@std@@IAEXPBDIH@Z 0041f6f0 f i gameState.obj
 0001:0001e810       ??$_Construct_n@ABQAMABQAM@?$vector@MV?$allocator@M@std@@@std@@AAEXIABQAM0@Z 0041f810 f i gameSetupState.obj
 0001:0001e950       ??0?$fpos@U_Mbstatet@@@std@@QAE@U_Mbstatet@@_J@Z 0041f950 f i gameState.obj
 0001:0001e9a0       ?state@?$fpos@U_Mbstatet@@@std@@QBE?AU_Mbstatet@@XZ 0041f9a0 f i gameState.obj
 0001:0001eaf0       ?insert@?$basic_string@DU?$char_traits@D@std@@V?$allocator@D@2@@std@@QAEAAV12@IQBDI@Z 0041faf0 f i MainCharacter.obj
 0001:0001ec5b       ??_E?$basic_ifstream@DU?$char_traits@D@std@@@std@@$4PPPPPPPM@A@AEPAXI@Z 0041fc5b f i gameState.obj
 0001:0001ec65       ??_E?$basic_ofstream@DU?$char_traits@D@std@@@std@@$4PPPPPPPM@A@AEPAXI@Z 0041fc65 f i gameState.obj
 0001:0001ecb0       ??1?$_Uninitialized_backout_al@V?$allocator@PAVPsyeb10Enemy@@@std@@@std@@QAE@XZ 0041fcb0 f i gameState.obj
 0001:0001ed40       ??1?$basic_filebuf@DU?$char_traits@D@std@@@std@@UAE@XZ 0041fd40 f i gameState.obj
 0001:0001ee10       ??1?$basic_stringbuf@DU?$char_traits@D@std@@V?$allocator@D@2@@std@@UAE@XZ 0041fe10 f i gameState.obj
 0001:0001ef00       ??1_Reallocation_guard@?$vector@PAVPsyeb10Enemy@@V?$allocator@PAVPsyeb10Enemy@@@std@@@std@@QAE@XZ 0041ff00 f i gameState.obj
 0001:0001efa0       ??1_Sentry_base@?$basic_istream@DU?$char_traits@D@std@@@std@@QAE@XZ 0041ffa0 f i gameState.obj
 0001:0001f030       ??1bad_cast@std@@UAE@XZ    00420030 f i gameState.obj
 0001:0001f050       ?setbuf@?$basic_filebuf@DU?$char_traits@D@std@@@std@@MAEPAV?$basic_streambuf@DU?$char_traits@D@std@@@2@PAD_J@Z 00420050 f i gameState.obj
 0001:0001f200       ?imbue@?$basic_filebuf@DU?$char_traits@D@std@@@std@@MAEXABVlocale@2@@Z 00420200 f i gameState.obj
 0001:0001f230       ?overflow@?$basic_filebuf@DU?$char_traits@D@std@@@std@@MAEHH@Z 00420230 f i gameState.obj
 0001:0001f4b0       ??A?$vector@PAVDisplayableObject@@V?$allocator@PAVDisplayableObject@@@std@@@std@@QBEABQAVDisplayableObject@@I@Z 004204b0 f i gameState.obj
 0001:0001f5d0       ?is_open@?$basic_filebuf@DU?$char_traits@D@std@@@std@@QBE_NXZ 004205d0 f i gameState.obj
 0001:0001f600       ?seekpos@?$basic_stringbuf@DU?$char_traits@D@std@@V?$allocator@D@2@@std@@MAE?AV?$fpos@U_Mbstatet@@@2@V32@H@Z 00420600 f i gameState.obj
 0001:0001f810       ??E?$_Vector_const_iterator@V?$_Vector_val@U?$_Simple_types@PAVDisplayableObject@@@std@@@std@@@std@@QAE?AV01@H@Z 00420810 f i gameState.obj
 0001:0001f910       ??R<lambda_9366063389c5f42a00a5088cf24e69de>@@QBE@QADIQBD@Z 00420910 f i gameState.obj
 0001:0001f9e0       ??R?$default_delete@V_Facet_base@std@@@std@@QBEXPAV_Facet_base@1@@Z 004209e0 f i gameState.obj
 0001:0001fa30       ??_D?$basic_ifstream@DU?$char_traits@D@std@@@std@@QAEXXZ 00420a30 f i gameState.obj
 0001:0001fa70       ??_D?$basic_ofstream@DU?$char_traits@D@std@@@std@@QAEXXZ 00420a70 f i gameState.obj
 0001:0001fb60       ??_E?$basic_filebuf@DU?$char_traits@D@std@@@std@@UAEPAXI@Z 00420b60 f i gameState.obj
 0001:0001fb60       ??_G?$basic_filebuf@DU?$char_traits@D@std@@@std@@UAEPAXI@Z 00420b60 f i gameState.obj
 0001:0001fbf0       ??_E?$basic_ifstream@DU?$char_traits@D@std@@@std@@UAEPAXI@Z 00420bf0 f i gameState.obj
 0001:0001fbf0       ??_G?$basic_ifstream@DU?$char_traits@D@std@@@std@@UAEPAXI@Z 00420bf0 f i gameState.obj
 0001:0001fd20       ??_Ebad_cast@std@@UAEPAXI@Z 00420d20 f i gameState.obj
 0001:0001fd20       ??_Gbad_cast@std@@UAEPAXI@Z 00420d20 f i gameState.obj
 0001:0001feb0       ?_Check_offset@?$_String_val@U?$_Simple_types@D@std@@@std@@QBEXI@Z 00420eb0 f i gameState.obj
 0001:0001fff0       ?_Eos@?$basic_string@DU?$char_traits@D@std@@V?$allocator@D@2@@std@@AAEXI@Z 00420ff0 f i gameState.obj
 0001:000200b0       ?_Getal@?$vector@PAVPsyeb10Enemy@@V?$allocator@PAVPsyeb10Enemy@@@std@@@std@@ABEABV?$allocator@PAVPsyeb10Enemy@@@2@XZ 004210b0 f i gameState.obj
 0001:000201a0       ?_Getstate@?$basic_stringbuf@DU?$char_traits@D@std@@V?$allocator@D@2@@std@@CAHH@Z 004211a0 f i gameState.obj
 0001:00020300       ?_Initcvt@?$basic_filebuf@DU?$char_traits@D@std@@@std@@IAEXABV?$codecvt@DDU_Mbstatet@@@2@@Z 00421300 f i gameState.obj
 0001:000203b0       ?push_back@?$vector@PAVPsyeb10Enemy@@V?$allocator@PAVPsyeb10Enemy@@@std@@@std@@QAEXABQAVPsyeb10Enemy@@@Z 004213b0 f i gameState.obj
 0001:000203f0       ??0?$basic_ofstream@DU?$char_traits@D@std@@@std@@QAE@PBDHH@Z 004213f0 f i gameState.obj
 0001:00020550       ?_Is_constant_evaluated@std@@YA_NXZ 00421550 f i gameState.obj
 0001:000205f0       ?move@?$_Char_traits@DH@std@@SAPADQADQBDI@Z 004215f0 f i gameState.obj
 0001:00020610       ??D?$_Vector_const_iterator@V?$_Vector_val@U?$_Simple_types@PAVDisplayableObject@@@std@@@std@@@std@@QBEABQAVDisplayableObject@@XZ 00421610 f i gameState.obj
 0001:000207d0       ?_Lock@?$basic_filebuf@DU?$char_traits@D@std@@@std@@UAEXXZ 004217d0 f i gameState.obj
 0001:00020800       ?_Myptr@?$_String_val@U?$_Simple_types@D@std@@@std@@QAEPADXZ 00421800 f i gameState.obj
 0001:00020840       ??E?$_Vector_const_iterator@V?$_Vector_val@U?$_Simple_types@PAVDisplayableObject@@@std@@@std@@@std@@QAEAAV01@XZ 00421840 f i gameState.obj
 0001:000209a0       ?_Orphan_range@?$vector@PAVPsyeb10Enemy@@V?$allocator@PAVPsyeb10Enemy@@@std@@@std@@ABEXPAPAVPsyeb10Enemy@@0@Z 004219a0 f i gameState.obj
 0001:00020ad0       ?_Orphan_range_unlocked@?$vector@PAVPsyeb10Enemy@@V?$allocator@PAVPsyeb10Enemy@@@std@@@std@@ABEXPAPAVPsyeb10Enemy@@0@Z 00421ad0 f i gameState.obj
 0001:00020bd0       ?_Set_back@?$basic_filebuf@DU?$char_traits@D@std@@@std@@AAEXXZ 00421bd0 f i gameState.obj
 0001:00020ce0       ?_Throw_bad_cast@std@@YAXXZ 00421ce0 f i gameState.obj
 0001:00020d50       ?getMapHeight@TileManager@@QBEHXZ 00421d50 f i gameState.obj
 0001:00020d90       ??$getline@DU?$char_traits@D@std@@V?$allocator@D@2@@std@@YAAAV?$basic_istream@DU?$char_traits@D@std@@@0@$$QAV10@AAV?$basic_string@DU?$char_traits@D@std@@V?$allocator@D@2@@0@D@Z 00421d90 f i gameState.obj
 0001:00020ff0       ?_Tidy@?$basic_stringbuf@DU?$char_traits@D@std@@V?$allocator@D@2@@std@@IAEXXZ 00421ff0 f i gameState.obj
 0001:000210c0       ?_Tidy@?$vector@PAVPsyeb10Enemy@@V?$allocator@PAVPsyeb10Enemy@@@std@@@std@@AAEXXZ 004220c0 f i gameState.obj
 0001:00021160       ?xsgetn@?$basic_filebuf@DU?$char_traits@D@std@@@std@@MAE_JPAD_J@Z 00422160 f i gameState.obj
 0001:000212f0       ?_Unchecked_begin@?$vector@PAVPsyeb10Enemy@@V?$allocator@PAVPsyeb10Enemy@@@std@@@std@@QAEPAPAVPsyeb10Enemy@@XZ 004222f0 f i gameState.obj
 0001:000213f0       ?_Unchecked_end@?$vector@PAVPsyeb10Enemy@@V?$allocator@PAVPsyeb10Enemy@@@std@@@std@@QAEPAPAVPsyeb10Enemy@@XZ 004223f0 f i gameState.obj
 0001:000214c0       ?_Xlength@?$vector@PAVPsyeb10Enemy@@V?$allocator@PAVPsyeb10Enemy@@@std@@@std@@CAXXZ 004224c0 f i gameState.obj
 0001:00021560       ?_Xran@?$_String_val@U?$_Simple_types@D@std@@@std@@SAXXZ 00422560 f i gameState.obj
 0001:00021680       ?appendObjectToArray@DisplayableObjectContainer@@QAEXPAVDisplayableObject@@@Z 00422680 f i gameState.obj
 0001:00021710       ?capacity@?$vector@PAVPsyeb10Enemy@@V?$allocator@PAVPsyeb10Enemy@@@std@@@std@@QBEIXZ 00422710 f i gameState.obj
 0001:00021790       ?max_size@?$_Default_allocator_traits@V?$allocator@PAVPsyeb10Enemy@@@std@@@std@@SAIABV?$allocator@PAVPsyeb10Enemy@@@2@@Z 00422790 f i gameState.obj
 0001:000217b0       ?overflow@?$basic_stringbuf@DU?$char_traits@D@std@@V?$allocator@D@2@@std@@MAEHH@Z 004227b0 f i gameState.obj
 0001:00021a30       ?close@?$basic_filebuf@DU?$char_traits@D@std@@@std@@QAEPAV12@XZ 00422a30 f i gameState.obj
 0001:00021af0       ?close@?$basic_ifstream@DU?$char_traits@D@std@@@std@@QAEXXZ 00422af0 f i gameState.obj
 0001:00021c00       ?close@?$basic_ofstream@DU?$char_traits@D@std@@@std@@QAEXXZ 00422c00 f i gameState.obj
 0001:00021dc0       ?deallocate@?$allocator@PAVPsyeb10Enemy@@@std@@QAEXQAPAVPsyeb10Enemy@@I@Z 00422dc0 f i gameState.obj
 0001:00021f20       ?virtSetupBackgroundBuffer@ImageMappingDemo@@UAEXXZ 00422f20 f   ImageMappingDemo.obj
 0001:00022020       ?virtInitialiseObjects@ImageMappingDemo@@UAEHXZ 00423020 f   ImageMappingDemo.obj
 0001:000223a0       ?virtKeyDown@ImageMappingDemo@@UAEXH@Z 004233a0 f   ImageMappingDemo.obj
 0001:000223d0       ?virtMainLoopDoBeforeUpdate@ImageMappingDemo@@UAEXXZ 004233d0 f   ImageMappingDemo.obj
 0001:00022460       ?mapCoordinates@ImageMappingDemo@@UAE_NAAN0ABVSimpleImage@@@Z 00423460 f   ImageMappingDemo.obj
 0001:000226e0       ??$_Emplace_reallocate@ABQAVDrawingSurface@@@?$vector@PAVDrawingSurface@@V?$allocator@PAVDrawingSurface@@@std@@@std@@AAEPAPAVDrawingSurface@@QAPAV2@ABQAV2@@Z 004236e0 f i gameSetupState.obj
 0001:000228d0       ??0MappableImageObject@@QAE@PAVImagePixelMapping@@HHPAVBaseEngine@@V?$basic_string@DU?$char_traits@D@std@@V?$allocator@D@2@@std@@_N3@Z 004238d0 f i ImageMappingDemo.obj
 0001:00022990       ??1MappableImageObject@@UAE@XZ 00423990 f i ImageMappingDemo.obj
 0001:000229b0       ??_EMappableImageObject@@UAEPAXI@Z 004239b0 f i ImageMappingDemo.obj
 0001:000229b0       ??_GMappableImageObject@@UAEPAXI@Z 004239b0 f i ImageMappingDemo.obj
 0001:000229f0       ?getPixelColour@MappableImageObject@@QAEHHH@Z 004239f0 f i ImageMappingDemo.obj
 0001:00022a20       ?getPixelColour@SimpleImage@@QBEHHH@Z 00423a20 f i ImageMappingDemo.obj
 0001:00022a50       ?getRawPixelColour@RawImageData@@QBEHHH@Z 00423a50 f i ImageMappingDemo.obj
 0001:00022aa0       ?getTheData@SimpleImage@@QBEABV?$shared_ptr@VRawImageData@@@std@@XZ 00423aa0 f i ImageMappingDemo.obj
 0001:00022ac0       ?setOpaque@RawImageData@@QAEXXZ 00423ac0 f i ImageMappingDemo.obj
 0001:00022b30       ?setRotation@ImagePixelMappingRotate@@QAEXN@Z 00423b30 f i ImageMappingDemo.obj
 0001:00022b50       ?setTransparencyColour@MappableImageObject@@QAEXH@Z 00423b50 f i ImageMappingDemo.obj
 0001:00022b80       ?setTransparencyColour@SimpleImage@@QAEXH@Z 00423b80 f i ImageMappingDemo.obj
 0001:00022bf0       ?setTransparentColour@RawImageData@@QAEXI@Z 00423bf0 f i ImageMappingDemo.obj
 0001:00022d10       ?setXShift@ImagePixelMappingShiftXY@@QAEXN@Z 00423d10 f i ImageMappingDemo.obj
 0001:00022d30       ?setYShift@ImagePixelMappingShiftXY@@QAEXN@Z 00423d30 f i ImageMappingDemo.obj
 0001:00022d50       ?virtDraw@MappableImageObject@@UAEXXZ 00423d50 f i ImageMappingDemo.obj
 0001:00022de0       ??0ImagePixelMappingRotate90@@QAE@XZ 00423de0 f   ImagePixelMappingRotate90.obj
 0001:00022e10       ?mapCoordinates@ImagePixelMappingRotate90@@UAE_NAAN0ABVSimpleImage@@@Z 00423e10 f   ImagePixelMappingRotate90.obj
 0001:00022f60       ?changePixelColour@ImagePixelMappingRotate90@@UAE_NHHAAHPAVDrawingSurface@@@Z 00423f60 f   ImagePixelMappingRotate90.obj
 0001:00022f80       ??6ImagePixelMappingRotate90@@QAEAAV0@W4Direction@0@@Z 00423f80 f   ImagePixelMappingRotate90.obj
 0001:00023010       ??0ImagePixelMapping@@QAE@XZ 00424010 f i ImagePixelMappingRotate90.obj
 0001:00023030       ?changePixelColour@ImagePixelMapping@@UAE_NHHAAHPAVDrawingSurface@@@Z 00424030 f i ImagePixelMappingRotate90.obj
 0001:00023050       ??0MainCharacter@@QAE@PAVBaseEngine@@@Z 00424050 f   MainCharacter.obj
 0001:000231f0       ?virtKeyDown@MainCharacter@@UAEXH@Z 004241f0 f   MainCharacter.obj
 0001:00023290       ?getLives@MainCharacter@@QAEHXZ 00424290 f   MainCharacter.obj
 0001:000232b0       ?setLives@MainCharacter@@QAEXH@Z 004242b0 f   MainCharacter.obj
 0001:000232d0       ?virtPostMoveLogic@MainCharacter@@UAEXXZ 004242d0 f   MainCharacter.obj
 0001:00023370       ?virtHandleDeath@MainCharacter@@UAEXXZ 00424370 f   MainCharacter.obj
 0001:00023480       ??$?0PAD$0A@@?$basic_string@DU?$char_traits@D@std@@V?$allocator@D@2@@std@@QAE@PAD0ABV?$allocator@D@1@@Z 00424480 f i MainCharacter.obj
 0001:00023570       ??$?0VSimpleImage@@@?$allocator@U_Container_proxy@std@@@std@@QAE@ABV?$allocator@VSimpleImage@@@1@@Z 00424570 f i MainCharacter.obj
 0001:00023590       ??$?HDU?$char_traits@D@std@@V?$allocator@D@1@@std@@YA?AV?$basic_string@DU?$char_traits@D@std@@V?$allocator@D@2@@0@$$QAV10@QBD@Z 00424590 f i MainCharacter.obj
 0001:000235e0       ??$?HDU?$char_traits@D@std@@V?$allocator@D@1@@std@@YA?AV?$basic_string@DU?$char_traits@D@std@@V?$allocator@D@2@@0@QBD$$QAV10@@Z 004245e0 f i MainCharacter.obj
 0001:00023630       ??$_Adl_verify_range@PADPAD@std@@YAXABQAD0@Z 00424630 f i MainCharacter.obj
 0001:000236b0       ??$_Allocate_at_least_helper@V?$allocator@VSimpleImage@@@std@@@std@@YAPAVSimpleImage@@AAV?$allocator@VSimpleImage@@@0@AAI@Z 004246b0 f i MainCharacter.obj
 0001:000236d0       ??$_Construct@$00PAD@?$basic_string@DU?$char_traits@D@std@@V?$allocator@D@2@@std@@AAEXQADI@Z 004246d0 f i MainCharacter.obj
 0001:000238d0       ??$_Construct_in_place@VSimpleImage@@ABV1@@std@@YAXAAVSimpleImage@@ABV1@@Z 004248d0 f i MainCharacter.obj
 0001:00023920       ??$_Destroy_range@V?$allocator@VSimpleImage@@@std@@@std@@YAXPAVSimpleImage@@QAV1@AAV?$allocator@VSimpleImage@@@0@@Z 00424920 f i MainCharacter.obj
 0001:000239a0       ??$_Emplace_back@VSimpleImage@@@?$_Uninitialized_backout_al@V?$allocator@VSimpleImage@@@std@@@std@@QAEX$$QAVSimpleImage@@@Z 004249a0 f i MainCharacter.obj
 0001:00023a00       ??$_Emplace_back_with_unused_capacity@ABVSimpleImage@@@?$vector@VSimpleImage@@V?$allocator@VSimpleImage@@@std@@@std@@AAEAAVSimpleImage@@ABV2@@Z 00424a00 f i MainCharacter.obj
 0001:00023a80       ??$_Emplace_one_at_back@ABVSimpleImage@@@?$vector@VSimpleImage@@V?$allocator@VSimpleImage@@@std@@@std@@AAEAAVSimpleImage@@ABV2@@Z 00424a80 f i MainCharacter.obj
 0001:00023b00       ??$_Emplace_reallocate@ABVSimpleImage@@@?$vector@VSimpleImage@@V?$allocator@VSimpleImage@@@std@@@std@@AAEPAVSimpleImage@@QAV2@ABV2@@Z 00424b00 f i MainCharacter.obj
 0001:00023d50       ??$_Get_unwrapped@AAPAD@std@@YA?A_TAAPAD@Z 00424d50 f i MainCharacter.obj
 0001:00023d60       ??$_Get_unwrapped@ABQAVSimpleImage@@@std@@YA?A_TABQAVSimpleImage@@@Z 00424d60 f i MainCharacter.obj
 0001:00023d70       ??$_Integral_to_string@DH@std@@YA?AV?$basic_string@DU?$char_traits@D@std@@V?$allocator@D@2@@0@H@Z 00424d70 f i MainCharacter.obj
 0001:00023e40       ??$_Reallocate_grow_by@V<lambda_4d79bb85f269e6e8002a4599002d832c>@@IPBDI@?$basic_string@DU?$char_traits@D@std@@V?$allocator@D@2@@std@@AAEAAV01@IV<lambda_4d79bb85f269e6e8002a4599002d832c>@@IPBDI@Z 00424e40 f i MainCharacter.obj
 0001:00023fc0       ??$_Reallocate_grow_by@V<lambda_ab246b20b9526e2ef7792587e4298a77>@@PBDI@?$basic_string@DU?$char_traits@D@std@@V?$allocator@D@2@@std@@AAEAAV01@IV<lambda_ab246b20b9526e2ef7792587e4298a77>@@PBDI@Z 00424fc0 f i MainCharacter.obj
 0001:00024130       ??$_UIntegral_to_buff@DI@std@@YAPADPADI@Z 00425130 f i MainCharacter.obj
 0001:00024190       ??$_Unfancy@VSimpleImage@@@std@@YAPAVSimpleImage@@PAV1@@Z 00425190 f i MainCharacter.obj
 0001:000241a0       ??$_Uninitialized_move@PAVSimpleImage@@V?$allocator@VSimpleImage@@@std@@@std@@YAPAVSimpleImage@@QAV1@0PAV1@AAV?$allocator@VSimpleImage@@@0@@Z 004251a0 f i MainCharacter.obj
 0001:00024280       ??$addressof@VSimpleImage@@@std@@YAPAVSimpleImage@@AAV1@@Z 00425280 f i MainCharacter.obj
 0001:00024290       ??$construct@VSimpleImage@@ABV1@@?$_Default_allocator_traits@V?$allocator@VSimpleImage@@@std@@@std@@SAXAAV?$allocator@VSimpleImage@@@1@QAVSimpleImage@@ABV3@@Z 00425290 f i MainCharacter.obj
 0001:000242d0       ??$construct@VSimpleImage@@V1@@?$_Default_allocator_traits@V?$allocator@VSimpleImage@@@std@@@std@@SAXAAV?$allocator@VSimpleImage@@@1@QAVSimpleImage@@$$QAV3@@Z 004252d0 f i MainCharacter.obj
 0001:00024310       ??$destroy@VSimpleImage@@@?$_Default_allocator_traits@V?$allocator@VSimpleImage@@@std@@@std@@SAXAAV?$allocator@VSimpleImage@@@1@QAVSimpleImage@@@Z 00425310 f i MainCharacter.obj
 0001:00024330       ??$end@D$0BF@@std@@YAPADAAY0BF@D@Z 00425330 f i MainCharacter.obj
 0001:00024340       ??$forward@ABVSimpleImage@@@std@@YAABVSimpleImage@@ABV1@@Z 00425340 f i MainCharacter.obj
 0001:00024350       ??$forward@VSimpleImage@@@std@@YA$$QAVSimpleImage@@AAV1@@Z 00425350 f i MainCharacter.obj
 0001:00024360       ??$move@AAV?$basic_string@DU?$char_traits@D@std@@V?$allocator@D@2@@std@@@std@@YA$$QAV?$basic_string@DU?$char_traits@D@std@@V?$allocator@D@2@@0@AAV10@@Z 00425360 f i MainCharacter.obj
 0001:00024370       ??$move@AAVSimpleImage@@@std@@YA$$QAVSimpleImage@@AAV1@@Z 00425370 f i MainCharacter.obj
 0001:00024380       ??0?$_Uninitialized_backout_al@V?$allocator@VSimpleImage@@@std@@@std@@QAE@PAVSimpleImage@@AAV?$allocator@VSimpleImage@@@1@@Z 00425380 f i MainCharacter.obj
 0001:000243c0       ??0SimpleImage@@QAE@ABV0@@Z 004253c0 f i MainCharacter.obj
 0001:00024410       ??1?$_Uninitialized_backout_al@V?$allocator@VSimpleImage@@@std@@@std@@QAE@XZ 00425410 f i MainCharacter.obj
 0001:00024440       ??1?$vector@VSimpleImage@@V?$allocator@VSimpleImage@@@std@@@std@@QAE@XZ 00425440 f i MainCharacter.obj
 0001:000244b0       ??1MainCharacter@@UAE@XZ   004254b0 f i MainCharacter.obj
 0001:000244d0       ??1Psyeb10Bike@@UAE@XZ     004254d0 f i MainCharacter.obj
 0001:00024500       ??1_Reallocation_guard@?$vector@VSimpleImage@@V?$allocator@VSimpleImage@@@std@@@std@@QAE@XZ 00425500 f i MainCharacter.obj
 0001:00024560       ??R<lambda_4d79bb85f269e6e8002a4599002d832c>@@QBE@QADQBDII1I@Z 00425560 f i MainCharacter.obj
 0001:000245e0       ??R<lambda_ab246b20b9526e2ef7792587e4298a77>@@QBE@QADQBDI1I@Z 004255e0 f i MainCharacter.obj
 0001:00024650       ??_EMainCharacter@@UAEPAXI@Z 00425650 f i MainCharacter.obj
 0001:00024650       ??_GMainCharacter@@UAEPAXI@Z 00425650 f i MainCharacter.obj
 0001:00024690       ??_GSimpleImage@@QAEPAXI@Z 00425690 f i MainCharacter.obj
 0001:000246d0       ?_Calculate_growth@?$vector@VSimpleImage@@V?$allocator@VSimpleImage@@@std@@@std@@ABEII@Z 004256d0 f i MainCharacter.obj
 0001:00024740       ?_Change_array@?$vector@VSimpleImage@@V?$allocator@VSimpleImage@@@std@@@std@@AAEXQAVSimpleImage@@II@Z 00425740 f i MainCharacter.obj
 0001:00024810       ?_Get_first@?$_Compressed_pair@V?$allocator@VSimpleImage@@@std@@V?$_Vector_val@U?$_Simple_types@VSimpleImage@@@std@@@2@$00@std@@QAEAAV?$allocator@VSimpleImage@@@2@XZ 00425810 f i MainCharacter.obj
 0001:00024830       ?_Get_first@?$_Compressed_pair@V?$allocator@VSimpleImage@@@std@@V?$_Vector_val@U?$_Simple_types@VSimpleImage@@@std@@@2@$00@std@@QBEABV?$allocator@VSimpleImage@@@2@XZ 00425830 f i MainCharacter.obj
 0001:00024850       ?_Getal@?$vector@VSimpleImage@@V?$allocator@VSimpleImage@@@std@@@std@@AAEAAV?$allocator@VSimpleImage@@@2@XZ 00425850 f i MainCharacter.obj
 0001:00024870       ?_Getal@?$vector@VSimpleImage@@V?$allocator@VSimpleImage@@@std@@@std@@ABEABV?$allocator@VSimpleImage@@@2@XZ 00425870 f i MainCharacter.obj
 0001:00024890       ?_Orphan_range@?$vector@VSimpleImage@@V?$allocator@VSimpleImage@@@std@@@std@@ABEXPAVSimpleImage@@0@Z 00425890 f i MainCharacter.obj
 0001:000248c0       ?_Orphan_range_locked@?$vector@VSimpleImage@@V?$allocator@VSimpleImage@@@std@@@std@@ABEXPAVSimpleImage@@0@Z 004258c0 f i MainCharacter.obj
 0001:00024950       ?_Orphan_range_unlocked@?$vector@VSimpleImage@@V?$allocator@VSimpleImage@@@std@@@std@@ABEXPAVSimpleImage@@0@Z 00425950 f i MainCharacter.obj
 0001:000249d0       ?_Release@?$_Uninitialized_backout_al@V?$allocator@VSimpleImage@@@std@@@std@@QAEPAVSimpleImage@@XZ 004259d0 f i MainCharacter.obj
 0001:00024a00       ?_Tidy@?$vector@VSimpleImage@@V?$allocator@VSimpleImage@@@std@@@std@@AAEXXZ 00425a00 f i MainCharacter.obj
 0001:00024ac0       ?_Xlength@?$vector@VSimpleImage@@V?$allocator@VSimpleImage@@@std@@@std@@CAXXZ 00425ac0 f i MainCharacter.obj
 0001:00024ae0       ?allocate@?$allocator@VSimpleImage@@@std@@QAEPAVSimpleImage@@I@Z 00425ae0 f i MainCharacter.obj
 0001:00024b10       ?append@?$basic_string@DU?$char_traits@D@std@@V?$allocator@D@2@@std@@QAEAAV12@QBD@Z 00425b10 f i MainCharacter.obj
 0001:00024b50       ?append@?$basic_string@DU?$char_traits@D@std@@V?$allocator@D@2@@std@@QAEAAV12@QBDI@Z 00425b50 f i MainCharacter.obj
 0001:00024c10       ?capacity@?$vector@VSimpleImage@@V?$allocator@VSimpleImage@@@std@@@std@@QBEIXZ 00425c10 f i MainCharacter.obj
 0001:00024c40       ?checkRectangles@CollisionDetection@@SA_NHHHHHHHH@Z 00425c40 f i MainCharacter.obj
 0001:00024c90       ?deallocate@?$allocator@VSimpleImage@@@std@@QAEXQAVSimpleImage@@I@Z 00425c90 f i MainCharacter.obj
 0001:00024d90       ?max_size@?$_Default_allocator_traits@V?$allocator@VSimpleImage@@@std@@@std@@SAIABV?$allocator@VSimpleImage@@@2@@Z 00425d90 f i MainCharacter.obj
 0001:00024dd0       ?max_size@?$vector@VSimpleImage@@V?$allocator@VSimpleImage@@@std@@@std@@QBEIXZ 00425dd0 f i MainCharacter.obj
 0001:00024f50       ?to_string@std@@YA?AV?$basic_string@DU?$char_traits@D@std@@V?$allocator@D@2@@1@H@Z 00425f50 f i MainCharacter.obj
 0001:00025020       _SDL_main                  00426020 f   mainfunction.obj
 0001:00025060       ?doProgram@@YAHHQAPAD@Z    00426060 f   mainfunction.obj
 0001:000251a0       ??$_Erase_head@V?$allocator@U?$_Tree_node@U?$pair@$$CBV?$basic_string@DU?$char_traits@D@std@@V?$allocator@D@2@@std@@V?$shared_ptr@VRawImageData@@@2@@std@@PAX@std@@@std@@@?$_Tree_val@U?$_Tree_simple_types@U?$pair@$$CBV?$basic_string@DU?$char_traits@D@std@@V?$allocator@D@2@@std@@V?$shared_ptr@VRawImageData@@@2@@std@@@std@@@std@@QAEXAAV?$allocator@U?$_Tree_node@U?$pair@$$CBV?$basic_string@DU?$char_traits@D@std@@V?$allocator@D@2@@std@@V?$shared_ptr@VRawImageData@@@2@@std@@PAX@std@@@1@@Z 004261a0 f i mainfunction.obj
 0001:000251f0       ??$_Erase_tree@V?$allocator@U?$_Tree_node@U?$pair@$$CBV?$basic_string@DU?$char_traits@D@std@@V?$allocator@D@2@@std@@V?$shared_ptr@VRawImageData@@@2@@std@@PAX@std@@@std@@@?$_Tree_val@U?$_Tree_simple_types@U?$pair@$$CBV?$basic_string@DU?$char_traits@D@std@@V?$allocator@D@2@@std@@V?$shared_ptr@VRawImageData@@@2@@std@@@std@@@std@@QAEXAAV?$allocator@U?$_Tree_node@U?$pair@$$CBV?$basic_string@DU?$char_traits@D@std@@V?$allocator@D@2@@std@@V?$shared_ptr@VRawImageData@@@2@@std@@PAX@std@@@1@PAU?$_Tree_node@U?$pair@$$CBV?$basic_string@DU?$char_traits@D@std@@V?$allocator@D@2@@std@@V?$shared_ptr@VRawImageData@@@2@@std@@PAX@1@@Z 004261f0 f i mainfunction.obj
 0001:00025250       ??$_Freenode0@V?$allocator@U?$_Tree_node@U?$pair@$$CBV?$basic_string@DU?$char_traits@D@std@@V?$allocator@D@2@@std@@V?$shared_ptr@VRawImageData@@@2@@std@@PAX@std@@@std@@@?$_Tree_node@U?$pair@$$CBV?$basic_string@DU?$char_traits@D@std@@V?$allocator@D@2@@std@@V?$shared_ptr@VRawImageData@@@2@@std@@PAX@std@@SAXAAV?$allocator@U?$_Tree_node@U?$pair@$$CBV?$basic_string@DU?$char_traits@D@std@@V?$allocator@D@2@@std@@V?$shared_ptr@VRawImageData@@@2@@std@@PAX@std@@@1@PAU01@@Z 00426250 f i mainfunction.obj
 0001:000252b0       ??$_Freenode@V?$allocator@U?$_Tree_node@U?$pair@$$CBV?$basic_string@DU?$char_traits@D@std@@V?$allocator@D@2@@std@@V?$shared_ptr@VRawImageData@@@2@@std@@PAX@std@@@std@@@?$_Tree_node@U?$pair@$$CBV?$basic_string@DU?$char_traits@D@std@@V?$allocator@D@2@@std@@V?$shared_ptr@VRawImageData@@@2@@std@@PAX@std@@SAXAAV?$allocator@U?$_Tree_node@U?$pair@$$CBV?$basic_string@DU?$char_traits@D@std@@V?$allocator@D@2@@std@@V?$shared_ptr@VRawImageData@@@2@@std@@PAX@std@@@1@PAU01@@Z 004262b0 f i mainfunction.obj
 0001:00025330       ??$exchange@PAU?$_Tree_node@U?$pair@$$CBV?$basic_string@DU?$char_traits@D@std@@V?$allocator@D@2@@std@@V?$shared_ptr@VRawImageData@@@2@@std@@PAX@std@@AAPAU12@@std@@YAPAU?$_Tree_node@U?$pair@$$CBV?$basic_string@DU?$char_traits@D@std@@V?$allocator@D@2@@std@@V?$shared_ptr@VRawImageData@@@2@@std@@PAX@0@AAPAU10@0@Z 00426330 f i mainfunction.obj
 0001:00025360       ??1?$_Tree@V?$_Tmap_traits@V?$basic_string@DU?$char_traits@D@std@@V?$allocator@D@2@@std@@V?$shared_ptr@VRawImageData@@@2@U?$less@V?$basic_string@DU?$char_traits@D@std@@V?$allocator@D@2@@std@@@2@V?$allocator@U?$pair@$$CBV?$basic_string@DU?$char_traits@D@std@@V?$allocator@D@2@@std@@V?$shared_ptr@VRawImageData@@@2@@std@@@2@$0A@@std@@@std@@QAE@XZ 00426360 f i mainfunction.obj
 0001:000253d0       ??1?$map@V?$basic_string@DU?$char_traits@D@std@@V?$allocator@D@2@@std@@V?$shared_ptr@VRawImageData@@@2@U?$less@V?$basic_string@DU?$char_traits@D@std@@V?$allocator@D@2@@std@@@2@V?$allocator@U?$pair@$$CBV?$basic_string@DU?$char_traits@D@std@@V?$allocator@D@2@@std@@V?$shared_ptr@VRawImageData@@@2@@std@@@2@@std@@QAE@XZ 004263d0 f i mainfunction.obj
 0001:000253f0       ??1ImageManager@@QAE@XZ    004263f0 f i mainfunction.obj
 0001:00025420       ??1Psyeb10Engine@@UAE@XZ   00426420 f i mainfunction.obj
 0001:00025440       ??_GImageManager@@QAEPAXI@Z 00426440 f i mainfunction.obj
 0001:00025480       ?deallocate@?$_Default_allocator_traits@V?$allocator@U?$_Tree_node@U?$pair@$$CBV?$basic_string@DU?$char_traits@D@std@@V?$allocator@D@2@@std@@V?$shared_ptr@VRawImageData@@@2@@std@@PAX@std@@@std@@@std@@SAXAAV?$allocator@U?$_Tree_node@U?$pair@$$CBV?$basic_string@DU?$char_traits@D@std@@V?$allocator@D@2@@std@@V?$shared_ptr@VRawImageData@@@2@@std@@PAX@std@@@2@QAU?$_Tree_node@U?$pair@$$CBV?$basic_string@DU?$char_traits@D@std@@V?$allocator@D@2@@std@@V?$shared_ptr@VRawImageData@@@2@@std@@PAX@2@I@Z 00426480 f i mainfunction.obj
 0001:000254a0       ?destroyImageManager@ImageManager@@SAXXZ 004264a0 f i mainfunction.obj
 0001:00025500       __vsnprintf_l              00426500 f i mainfunction.obj
 0001:00025570       __vsprintf_l               00426570 f i mainfunction.obj
 0001:000255a0       _sprintf                   004265a0 f i mainfunction.obj
 0001:000255e0       ??0BaseEngine@@QAE@XZ      004265e0 f   BaseEngine.obj
 0001:00025820       ??1BaseEngine@@UAE@XZ      00426820 f   BaseEngine.obj
 0001:00025880       ?initialise@BaseEngine@@QAEHPBDHH0H@Z 00426880 f   BaseEngine.obj
 0001:000259b0       ?deinitialise@BaseEngine@@QAEXXZ 004269b0 f   BaseEngine.obj
 0001:00025a20       ?mainLoop@BaseEngine@@QAEHXZ 00426a20 f   BaseEngine.obj
 0001:00025b50       ?handleEvent@BaseEngine@@QAE_NPATSDL_Event@@@Z 00426b50 f   BaseEngine.obj
 0001:000261a0       ?isKeyPressed@BaseEngine@@QBE_NH@Z 004271a0 f   BaseEngine.obj
 0001:000261d0       ?virtKeyUp@BaseEngine@@UAEXH@Z 004271d0 f   BaseEngine.obj
 0001:000261e0       ?virtKeyDown@BaseEngine@@UAEXH@Z 004271e0 f   BaseEngine.obj
 0001:000261f0       ?virtMouseMoved@BaseEngine@@UAEXHH@Z 004271f0 f   BaseEngine.obj
 0001:00026200       ?virtMouseDown@BaseEngine@@UAEXHHH@Z 00427200 f   BaseEngine.obj
 0001:00026210       ?virtMouseUp@BaseEngine@@UAEXHHH@Z 00427210 f   BaseEngine.obj
 0001:00026220       ?virtInitialise@BaseEngine@@UAEHXZ 00427220 f   BaseEngine.obj
 0001:00026270       ?virtCreateWindows@BaseEngine@@UAEXPBD@Z 00427270 f   BaseEngine.obj
 0001:00026300       ?virtCreateSurfaces@BaseEngine@@UAEXXZ 00427300 f   BaseEngine.obj
 0001:00026350       ?virtCleanUp@BaseEngine@@UAEXXZ 00427350 f   BaseEngine.obj
 0001:00026360       ?virtSetupBackgroundBuffer@BaseEngine@@UAEXXZ 00427360 f   BaseEngine.obj
 0001:00026380       ?virtDrawStringsUnderneath@BaseEngine@@UAEXXZ 00427380 f   BaseEngine.obj
 0001:00026390       ?virtDrawStringsOnTop@BaseEngine@@UAEXXZ 00427390 f   BaseEngine.obj
 0001:000263a0       ?virtCheckForUpdateTime@BaseEngine@@UAE_NXZ 004273a0 f   BaseEngine.obj
 0001:000263f0       ?virtRenderScreen@BaseEngine@@UAEXXZ 004273f0 f   BaseEngine.obj
 0001:00026590       ?getColour@BaseEngine@@QBEIH@Z 00427590 f   BaseEngine.obj
 0001:000267d0       ?virtInitialiseObjects@BaseEngine@@UAEHXZ 004277d0 f   BaseEngine.obj
 0001:00026800       ?drawAllObjects@BaseEngine@@UAEXXZ 00427800 f   BaseEngine.obj
 0001:000269c0       ?updateAllObjects@BaseEngine@@UAEXH@Z 004279c0 f   BaseEngine.obj
 0001:00026b90       _mydebug                   00427b90 f   BaseEngine.obj
 0001:00026de0       ?seekpos@?$basic_filebuf@DU?$char_traits@D@std@@@std@@MAE?AV?$fpos@U_Mbstatet@@@2@V32@H@Z 00427de0 f i gameState.obj
 0001:00027060       ?seekoff@?$basic_stringbuf@DU?$char_traits@D@std@@V?$allocator@D@2@@std@@MAE?AV?$fpos@U_Mbstatet@@@2@_JHH@Z 00428060 f i gameState.obj
 0001:000273a0       ??$?0ABV?$allocator@PAVDisplayableObject@@@std@@$$V@?$_Compressed_pair@V?$allocator@PAVDisplayableObject@@@std@@V?$_Vector_val@U?$_Simple_types@PAVDisplayableObject@@@std@@@2@$00@std@@QAE@U_One_then_variadic_args_t@1@ABV?$allocator@PAVDisplayableObject@@@1@@Z 004283a0 f i BaseEngine.obj
 0001:000273d0       ??$?0PAVDisplayableObject@@@?$allocator@U_Container_proxy@std@@@std@@QAE@ABV?$allocator@PAVDisplayableObject@@@1@@Z 004283d0 f i BaseEngine.obj
 0001:000273f0       ??$_Adl_verify_range@V?$_Vector_iterator@V?$_Vector_val@U?$_Simple_types@PAVDisplayableObject@@@std@@@std@@@std@@V12@@std@@YAXABV?$_Vector_iterator@V?$_Vector_val@U?$_Simple_types@PAVDisplayableObject@@@std@@@std@@@0@0@Z 004283f0 f i BaseEngine.obj
 0001:00027410       ??$_Construct_n@$$V@?$vector@PAVDisplayableObject@@V?$allocator@PAVDisplayableObject@@@std@@@std@@AAEXI@Z 00428410 f i BaseEngine.obj
 0001:00027520       ??$_Get_unwrapped@AAV?$_Vector_iterator@V?$_Vector_val@U?$_Simple_types@PAVDisplayableObject@@@std@@@std@@@std@@@std@@YA?A_TAAV?$_Vector_iterator@V?$_Vector_val@U?$_Simple_types@PAVDisplayableObject@@@std@@@std@@@0@@Z 00428520 f i BaseEngine.obj
 0001:00027530       ??$_Unfancy_maybe_null@PAVDisplayableObject@@@std@@YAPAPAVDisplayableObject@@PAPAV1@@Z 00428530 f i BaseEngine.obj
 0001:00027540       ??$addressof@V?$_Vector_val@U?$_Simple_types@PAVDisplayableObject@@@std@@@std@@@std@@YAPAV?$_Vector_val@U?$_Simple_types@PAVDisplayableObject@@@std@@@0@AAV10@@Z 00428540 f i BaseEngine.obj
 0001:000279d0       ??$forward@ABV?$allocator@PAVDisplayableObject@@@std@@@std@@YAABV?$allocator@PAVDisplayableObject@@@0@ABV10@@Z 004289d0 f i BaseEngine.obj
 0001:000279e0       ??0?$_Vector_iterator@V?$_Vector_val@U?$_Simple_types@PAVDisplayableObject@@@std@@@std@@@std@@QAE@$$QAV01@@Z 004289e0 f i BaseEngine.obj
 0001:00027a10       ??0?$_Vector_iterator@V?$_Vector_val@U?$_Simple_types@PAVDisplayableObject@@@std@@@std@@@std@@QAE@ABV01@@Z 00428a10 f i BaseEngine.obj
 0001:00027a40       ??0?$_Vector_iterator@V?$_Vector_val@U?$_Simple_types@PAVDisplayableObject@@@std@@@std@@@std@@QAE@PAPAVDisplayableObject@@PBU_Container_base12@1@@Z 00428a40 f i BaseEngine.obj
 0001:00027a70       ??0?$_Vector_val@U?$_Simple_types@PAVDisplayableObject@@@std@@@std@@QAE@XZ 00428a70 f i BaseEngine.obj
 0001:00027ac0       ??0?$allocator@PAVDisplayableObject@@@std@@QAE@XZ 00428ac0 f i BaseEngine.obj
 0001:00027ae0       ??0?$vector@PAVDisplayableObject@@V?$allocator@PAVDisplayableObject@@@std@@@std@@QAE@IABV?$allocator@PAVDisplayableObject@@@1@@Z 00428ae0 f i BaseEngine.obj
 0001:00027b20       ??0DisplayableObjectContainer@@QAE@H@Z 00428b20 f i BaseEngine.obj
 0001:00027b80       ??0FilterPoints@@QAE@XZ    00428b80 f i BaseEngine.obj
 0001:00027ba0       ??1?$_Tidy_guard@V?$vector@PAVDisplayableObject@@V?$allocator@PAVDisplayableObject@@@std@@@std@@@std@@QAE@XZ 00428ba0 f i BaseEngine.obj
 0001:00027bd0       ??1?$_Vector_iterator@V?$_Vector_val@U?$_Simple_types@PAVDisplayableObject@@@std@@@std@@@std@@QAE@XZ 00428bd0 f i BaseEngine.obj
 0001:00027bf0       ??1?$vector@PAVDisplayableObject@@V?$allocator@PAVDisplayableObject@@@std@@@std@@QAE@XZ 00428bf0 f i BaseEngine.obj
 0001:00027c60       ??1DisplayableObjectContainer@@UAE@XZ 00428c60 f i BaseEngine.obj
 0001:00027cd0       ??D?$_Vector_iterator@V?$_Vector_val@U?$_Simple_types@PAVDisplayableObject@@@std@@@std@@@std@@QBEAAPAVDisplayableObject@@XZ 00428cd0 f i BaseEngine.obj
 0001:00027cf0       ??E?$_Vector_iterator@V?$_Vector_val@U?$_Simple_types@PAVDisplayableObject@@@std@@@std@@@std@@QAE?AV01@H@Z 00428cf0 f i BaseEngine.obj
 0001:00027d40       ??_EBaseEngine@@UAEPAXI@Z  00428d40 f i BaseEngine.obj
 0001:00027d40       ??_GBaseEngine@@UAEPAXI@Z  00428d40 f i BaseEngine.obj
 0001:00027d80       ??_EDisplayableObjectContainer@@UAEPAXI@Z 00428d80 f i BaseEngine.obj
 0001:00027d80       ??_GDisplayableObjectContainer@@UAEPAXI@Z 00428d80 f i BaseEngine.obj
 0001:00027dc0       ?_Buy_nonzero@?$vector@PAVDisplayableObject@@V?$allocator@PAVDisplayableObject@@@std@@@std@@AAEXI@Z 00428dc0 f i BaseEngine.obj
 0001:00027e00       ?_Buy_raw@?$vector@PAVDisplayableObject@@V?$allocator@PAVDisplayableObject@@@std@@@std@@AAEXI@Z 00428e00 f i BaseEngine.obj
 0001:00027e80       ?_Tidy@?$vector@PAVDisplayableObject@@V?$allocator@PAVDisplayableObject@@@std@@@std@@AAEXXZ 00428e80 f i BaseEngine.obj
 0001:00027f40       ?_Unwrapped@?$_Vector_iterator@V?$_Vector_val@U?$_Simple_types@PAVDisplayableObject@@@std@@@std@@@std@@QBEPAPAVDisplayableObject@@XZ 00428f40 f i BaseEngine.obj
 0001:00027f60       ?_Verify_range@std@@YAXABV?$_Vector_const_iterator@V?$_Vector_val@U?$_Simple_types@PAVDisplayableObject@@@std@@@std@@@1@0@Z 00428f60 f i BaseEngine.obj
 0001:00028060       ?begin@?$vector@PAVDisplayableObject@@V?$allocator@PAVDisplayableObject@@@std@@@std@@QAE?AV?$_Vector_iterator@V?$_Vector_val@U?$_Simple_types@PAVDisplayableObject@@@std@@@std@@@2@XZ 00429060 f i BaseEngine.obj
 0001:000280b0       ?end@?$vector@PAVDisplayableObject@@V?$allocator@PAVDisplayableObject@@@std@@@std@@QAE?AV?$_Vector_iterator@V?$_Vector_val@U?$_Simple_types@PAVDisplayableObject@@@std@@@std@@@2@XZ 004290b0 f i BaseEngine.obj
 0001:00028100       ?getHasActed@DisplayableObject@@QBE_NXZ 00429100 f i BaseEngine.obj
 0001:00028120       ?isTimeToAct@BaseEngine@@QBE_NXZ 00429120 f i BaseEngine.obj
 0001:00028160       ?mySDLUpdateTexture@DrawingSurface@@QAEXPAUSDL_Texture@@@Z 00429160 f i BaseEngine.obj
 0001:000281a0       ?setHasActed@DisplayableObject@@QAEX_N@Z 004291a0 f i BaseEngine.obj
 0001:000281c0       ?setTimeToAct@BaseEngine@@QAEXH@Z 004291c0 f i BaseEngine.obj
 0001:000281f0       ?symbolToKeycode@BaseEngine@@SAHH@Z 004291f0 f i BaseEngine.obj
 0001:000286e0       ?virtMainLoopDoBeforeUpdate@BaseEngine@@UAEXXZ 004296e0 f i BaseEngine.obj
 0001:000286f0       _fprintf                   004296f0 f i BaseEngine.obj
 0001:00028730       ??0DisplayableObject@@QAE@PAVBaseEngine@@HH_N@Z 00429730 f   DisplayableObject.obj
 0001:000287f0       ??0DisplayableObject@@QAE@HHPAVBaseEngine@@HH_N@Z 004297f0 f   DisplayableObject.obj
 0001:000288b0       ??1DisplayableObject@@UAE@XZ 004298b0 f   DisplayableObject.obj
 0001:000288d0       ?virtDraw@DisplayableObject@@UAEXXZ 004298d0 f   DisplayableObject.obj
 0001:00028980       ?virtDoUpdate@DisplayableObject@@UAEXH@Z 00429980 f   DisplayableObject.obj
 0001:00028990       ?redrawDisplay@DisplayableObject@@QAEXXZ 00429990 f   DisplayableObject.obj
 0001:000289b0       ?redrawRectangle@DisplayableObject@@QAEXXZ 004299b0 f   DisplayableObject.obj
 0001:000289f0       ?virtIsObjectInRedrawArea@DisplayableObject@@QAE_NXZ 004299f0 f   DisplayableObject.obj
 0001:00028a90       ?fixPosition@DisplayableObject@@QAEXXZ 00429a90 f   DisplayableObject.obj
 0001:00028c60       ??_EDisplayableObject@@UAEPAXI@Z 00429c60 f i DisplayableObject.obj
 0001:00028c60       ??_GDisplayableObject@@UAEPAXI@Z 00429c60 f i DisplayableObject.obj
 0001:00028ca0       ?convertVirtualPixelToClickedXPosition@BaseEngine@@QAEHH@Z 00429ca0 f i DisplayableObject.obj
 0001:00028cd0       ?convertVirtualPixelToClickedYPosition@BaseEngine@@QAEHH@Z 00429cd0 f i DisplayableObject.obj
 0001:00028d00       ?convertVirtualToRealXPosition@DrawingSurface@@QAEHH@Z 00429d00 f i DisplayableObject.obj
 0001:00028d40       ?convertVirtualToRealYPosition@DrawingSurface@@QAEHH@Z 00429d40 f i DisplayableObject.obj
 0001:00028d80       ?redrawRectangle@BaseEngine@@QAEXHHHH@Z 00429d80 f i DisplayableObject.obj
 0001:00028ef0       ?setForegroundPixel@BaseEngine@@QAEXHHI@Z 00429ef0 f i DisplayableObject.obj
 0001:00028f30       ??0FontManager@@QAE@XZ     00429f30 f   FontManager.obj
 0001:00028fa0       ??1FontManager@@QAE@XZ     00429fa0 f   FontManager.obj
 0001:00029010       ?getFont@FontManager@@QAEPAVFont@@PBDH@Z 0042a010 f   FontManager.obj
 0001:000291b0       ?loadFonts@FontManager@@QAEXXZ 0042a1b0 f   FontManager.obj
 0001:000292e0       ??$growArrayOfObjects@PAVFont@@@@YAPAPAVFont@@PAPAV0@AAHH@Z 0042a2e0 f i FontManager.obj
 0001:00029390       ??0Font@@QAE@PBDH@Z        0042a390 f i FontManager.obj
 0001:00029410       ??1Font@@QAE@XZ            0042a410 f i FontManager.obj
 0001:00029490       ??_GFont@@QAEPAXI@Z        0042a490 f i FontManager.obj
 0001:000294d0       ?getName@Font@@QAEPBDXZ    0042a4d0 f i FontManager.obj
 0001:000294f0       ?getSize@Font@@QAEHXZ      0042a4f0 f i FontManager.obj
 0001:00029510       ??1mainMenuState@@UAE@XZ   0042a510 f   mainMenuState.obj
 0001:00029570       ?enter@mainMenuState@@UAEXXZ 0042a570 f   mainMenuState.obj
 0001:00029660       ?foreGroundStrings@mainMenuState@@UAEXXZ 0042a660 f   mainMenuState.obj
 0001:00029790       ?initObjects@mainMenuState@@UAEXXZ 0042a790 f   mainMenuState.obj
 0001:000297a0       ?reset@mainMenuState@@UAEXXZ 0042a7a0 f   mainMenuState.obj
 0001:000297b0       ?mouseDown@mainMenuState@@UAEXHHH@Z 0042a7b0 f   mainMenuState.obj
 0001:000297c0       ?mainLoopPreUpdate@mainMenuState@@UAEXXZ 0042a7c0 f   mainMenuState.obj
 0001:00029800       ?reEntry@mainMenuState@@UAEXXZ 0042a800 f   mainMenuState.obj
 0001:00029810       ?copyAllBackgroundBuffer@mainMenuState@@UAEXXZ 0042a810 f   mainMenuState.obj
 0001:000298c0       ?keyPressed@mainMenuState@@UAEXH@Z 0042a8c0 f   mainMenuState.obj
 0001:00029950       ?loadAndPlayMusic@mainMenuState@@QAEXPBD@Z 0042a950 f   mainMenuState.obj
 0001:00029b20       ?cleanupAudio@mainMenuState@@QAEXXZ 0042ab20 f   mainMenuState.obj
 0001:00029d10       ??$?0$$V@?$_Compressed_pair@V?$allocator@PAVDrawingSurface@@@std@@V?$_Vector_val@U?$_Simple_types@PAVDrawingSurface@@@std@@@2@$00@std@@QAE@U_Zero_then_variadic_args_t@1@@Z 0042ad10 f i mainMenuState.obj
 0001:00029d40       ??0?$_Vector_val@U?$_Simple_types@PAVDrawingSurface@@@std@@@std@@QAE@XZ 0042ad40 f i mainMenuState.obj
 0001:00029d90       ??0?$allocator@PAVDrawingSurface@@@std@@QAE@XZ 0042ad90 f i mainMenuState.obj
 0001:00029db0       ??0?$vector@PAVDrawingSurface@@V?$allocator@PAVDrawingSurface@@@std@@@std@@QAE@XZ 0042adb0 f i mainMenuState.obj
 0001:00029e40       ??0gameSetupState@@QAE@PAVPsyeb10Engine@@@Z 0042ae40 f i mainMenuState.obj
 0001:00029f20       ??0thread@std@@QAE@XZ      0042af20 f i mainMenuState.obj
 0001:00029f40       ??_EmainMenuState@@UAEPAXI@Z 0042af40 f i mainMenuState.obj
 0001:00029f40       ??_GmainMenuState@@UAEPAXI@Z 0042af40 f i mainMenuState.obj
 0001:00029f80       ?virtDrawTileAt@menuTileManager@@UBEXPAVBaseEngine@@PAVDrawingSurface@@HHHH@Z 0042af80 f   menuTileManager.obj
 0001:0002a340       ?tileSelected@menuTileManager@@QAEXPAVBaseEngine@@PAVDrawingSurface@@HH@Z 0042b340 f   menuTileManager.obj
 0001:0002a380       ?drawTileBox@menuTileManager@@QBEXPAVBaseEngine@@PAVDrawingSurface@@HH_N@Z 0042b380 f   menuTileManager.obj
 0001:0002a700       ??$move@AAPAVRawImageData@@@std@@YA$$QAPAVRawImageData@@AAPAV1@@Z 0042b700 f i menuTileManager.obj
 0001:0002a710       ??$move@AAPAV_Ref_count_base@std@@@std@@YA$$QAPAV_Ref_count_base@0@AAPAV10@@Z 0042b710 f i menuTileManager.obj
 0001:0002a720       ??$swap@PAVRawImageData@@$0A@@std@@YAXAAPAVRawImageData@@0@Z 0042b720 f i menuTileManager.obj
 0001:0002a770       ??$swap@PAV_Ref_count_base@std@@$0A@@std@@YAXAAPAV_Ref_count_base@0@0@Z 0042b770 f i menuTileManager.obj
 0001:0002a7c0       ??4?$basic_string@DU?$char_traits@D@std@@V?$allocator@D@2@@std@@QAEAAV01@QBD@Z 0042b7c0 f i menuTileManager.obj
 0001:0002a7e0       ??4?$shared_ptr@VRawImageData@@@std@@QAEAAV01@ABV01@@Z 0042b7e0 f i menuTileManager.obj
 0001:0002a820       ??4SimpleImage@@QAEAAV0@ABV0@@Z 0042b820 f i menuTileManager.obj
 0001:0002a870       ?_Swap@?$_Ptr_base@VRawImageData@@@std@@IAEXAAV12@@Z 0042b870 f i menuTileManager.obj
 0001:0002a8b0       ?assign@?$basic_string@DU?$char_traits@D@std@@V?$allocator@D@2@@std@@QAEAAV12@QBD@Z 0042b8b0 f i menuTileManager.obj
 0001:0002a8f0       ?swap@?$shared_ptr@VRawImageData@@@std@@QAEXAAV12@@Z 0042b8f0 f i menuTileManager.obj
 0001:0002a910       ?virtSetupBackgroundBuffer@MyDemoA@@UAEXXZ 0042b910 f   MyDemoA.obj
 0001:0002ab60       ?virtMouseDown@MyDemoA@@UAEXHHH@Z 0042bb60 f   MyDemoA.obj
 0001:0002acb0       ?virtKeyDown@MyDemoA@@UAEXH@Z 0042bcb0 f   MyDemoA.obj
 0001:0002ad00       ?virtInitialiseObjects@MyDemoA@@UAEHXZ 0042bd00 f   MyDemoA.obj
 0001:0002aee0       ??0MyObjectB@@QAE@PAVBaseEngine@@@Z 0042bee0 f i MyDemoA.obj
 0001:0002af30       ??1MyObjectB@@UAE@XZ       0042bf30 f i MyDemoA.obj
 0001:0002af50       ??_EMyObjectB@@UAEPAXI@Z   0042bf50 f i MyDemoA.obj
 0001:0002af50       ??_GMyObjectB@@UAEPAXI@Z   0042bf50 f i MyDemoA.obj
 0001:0002af90       ?drawBackgroundOval@BaseEngine@@QAEXHHHHI@Z 0042bf90 f i MyDemoA.obj
 0001:0002afd0       ?setAndRedrawMapValueAt@TileManager@@QAEXHHHPAVBaseEngine@@PAVDrawingSurface@@@Z 0042bfd0 f i MyDemoA.obj
 0001:0002b070       ?virtDraw@MyObjectB@@UAEXXZ 0042c070 f   MyObjectB.obj
 0001:0002b0c0       ?virtDoUpdate@MyObjectB@@UAEXH@Z 0042c0c0 f   MyObjectB.obj
 0001:0002b280       ?drawForegroundRectangle@BaseEngine@@QAEXHHHHI@Z 0042c280 f i MyObjectB.obj
 0001:0002b2c0       ?virtDrawTileAt@MyTileManager@@UBEXPAVBaseEngine@@PAVDrawingSurface@@HHHH@Z 0042c2c0 f   MyTileManager.obj
 0001:0002b360       ?enter@pauseState@@UAEXXZ  0042c360 f   pauseState.obj
 0001:0002b3b0       ?foreGroundStrings@pauseState@@UAEXXZ 0042c3b0 f   pauseState.obj
 0001:0002b430       ?initObjects@pauseState@@UAEXXZ 0042c430 f   pauseState.obj
 0001:0002b440       ?reset@pauseState@@UAEXXZ  0042c440 f   pauseState.obj
 0001:0002b450       ?mouseDown@pauseState@@UAEXHHH@Z 0042c450 f   pauseState.obj
 0001:0002b5a0       ?mainLoopPreUpdate@pauseState@@UAEXXZ 0042c5a0 f   pauseState.obj
 0001:0002b660       ?reEntry@pauseState@@UAEXXZ 0042c660 f   pauseState.obj
 0001:0002b670       ?saveGame@pauseState@@AAEXXZ 0042c670 f   pauseState.obj
 0001:0002be20       ?unpause@BaseEngine@@QAEXXZ 0042ce20 f i pauseState.obj
 0001:0002be60       ?uflow@?$basic_filebuf@DU?$char_traits@D@std@@@std@@MAEHXZ 0042ce60 f i gameState.obj
 0001:0002c120       ??0Psyeb10Bike@@QAE@HHPAVBaseEngine@@HHH@Z 0042d120 f   Psyeb10Bike.obj
 0001:0002c220       ?virtDoUpdate@Psyeb10Bike@@UAEXH@Z 0042d220 f   Psyeb10Bike.obj
 0001:0002c390       ?virtKeyDown@Psyeb10Bike@@UAEXH@Z 0042d390 f   Psyeb10Bike.obj
 0001:0002c3a0       ?virtHandleDeath@Psyeb10Bike@@UAEXXZ 0042d3a0 f   Psyeb10Bike.obj
 0001:0002c3b0       ?virtPostMoveLogic@Psyeb10Bike@@UAEXXZ 0042d3b0 f   Psyeb10Bike.obj
 0001:0002c3c0       ?setPaused@Psyeb10Bike@@QAEX_N@Z 0042d3c0 f   Psyeb10Bike.obj
 0001:0002c3e0       ?virtDraw@Psyeb10Bike@@UAEXXZ 0042d3e0 f   Psyeb10Bike.obj
 0001:0002c4d0       ?getSpeedX@Psyeb10Bike@@QAEHXZ 0042d4d0 f   Psyeb10Bike.obj
 0001:0002c4f0       ?getSpeedY@Psyeb10Bike@@QAEHXZ 0042d4f0 f   Psyeb10Bike.obj
 0001:0002c510       ?setSpeed@Psyeb10Bike@@QAEXHH@Z 0042d510 f   Psyeb10Bike.obj
 0001:0002c530       ?getLastTileX@Psyeb10Bike@@QBEHXZ 0042d530 f   Psyeb10Bike.obj
 0001:0002c550       ?getLastTileY@Psyeb10Bike@@QBEHXZ 0042d550 f   Psyeb10Bike.obj
 0001:0002c570       ?setLastTiles@Psyeb10Bike@@QAEXHH@Z 0042d570 f   Psyeb10Bike.obj
 0001:0002c590       ?changeDirection@Psyeb10Bike@@QAEXH@Z 0042d590 f   Psyeb10Bike.obj
 0001:0002c660       ?getBikeValue@Psyeb10Bike@@QBEHXZ 0042d660 f   Psyeb10Bike.obj
 0001:0002c7b0       ??$?0$$V@?$_Compressed_pair@V?$allocator@VSimpleImage@@@std@@V?$_Vector_val@U?$_Simple_types@VSimpleImage@@@std@@@2@$00@std@@QAE@U_Zero_then_variadic_args_t@1@@Z 0042d7b0 f i Psyeb10Bike.obj
 0001:0002c7e0       ??0?$_Vector_val@U?$_Simple_types@VSimpleImage@@@std@@@std@@QAE@XZ 0042d7e0 f i Psyeb10Bike.obj
 0001:0002c830       ??0?$allocator@VSimpleImage@@@std@@QAE@XZ 0042d830 f i Psyeb10Bike.obj
 0001:0002c850       ??0?$vector@VSimpleImage@@V?$allocator@VSimpleImage@@@std@@@std@@QAE@XZ 0042d850 f i Psyeb10Bike.obj
 0001:0002c8e0       ??A?$vector@VSimpleImage@@V?$allocator@VSimpleImage@@@std@@@std@@QAEAAVSimpleImage@@I@Z 0042d8e0 f i Psyeb10Bike.obj
 0001:0002c990       ??_EPsyeb10Bike@@UAEPAXI@Z 0042d990 f i Psyeb10Bike.obj
 0001:0002c990       ??_GPsyeb10Bike@@UAEPAXI@Z 0042d990 f i Psyeb10Bike.obj
 0001:0002c9d0       ?size@?$vector@VSimpleImage@@V?$allocator@VSimpleImage@@@std@@@std@@QBEIXZ 0042d9d0 f i Psyeb10Bike.obj
 0001:0002ca00       ??0Psyeb10Enemy@@QAE@PAVBaseEngine@@HHH@Z 0042da00 f   Psyeb10Enemy.obj
 0001:0002cb80       ?isValidMove@Psyeb10Enemy@@QAE_NHH@Z 0042db80 f   Psyeb10Enemy.obj
 0001:0002cc00       ?virtHandleDeath@Psyeb10Enemy@@UAEXXZ 0042dc00 f   Psyeb10Enemy.obj
 0001:0002cc30       ?virtPostMoveLogic@Psyeb10Enemy@@UAEXXZ 0042dc30 f   Psyeb10Enemy.obj
 0001:0002cd60       ?decideStrategicDirection@Psyeb10Enemy@@AAEXHH@Z 0042dd60 f   Psyeb10Enemy.obj
 0001:0002d590       ?findBestDirection@Psyeb10Enemy@@AAEHXZ 0042e590 f   Psyeb10Enemy.obj
 0001:0002dc00       ?floodFill@Psyeb10Enemy@@AAEHHHHHHH@Z 0042ec00 f   Psyeb10Enemy.obj
 0001:0002e890       ??$?0$$V@?$_Compressed_pair@V?$allocator@U?$_Tree_node@U?$pair@HH@std@@PAX@std@@@std@@V?$_Tree_val@U?$_Tree_simple_types@U?$pair@HH@std@@@std@@@2@$00@std@@QAE@U_Zero_then_variadic_args_t@1@@Z 0042f890 f i Psyeb10Enemy.obj
 0001:0002e8c0       ??$?0$$V@?$_Compressed_pair@V?$allocator@U?$pair@HH@std@@@std@@V?$_Deque_val@U?$_Deque_simple_types@U?$pair@HH@std@@@std@@@2@$00@std@@QAE@U_Zero_then_variadic_args_t@1@@Z 0042f8c0 f i Psyeb10Enemy.obj
 0001:0002e8f0       ??$?0AAHAAH$0A@@?$pair@HH@std@@QAE@AAH0@Z 0042f8f0 f i Psyeb10Enemy.obj
 0001:0002e940       ??$?0AAPAU?$_Tree_node@U?$pair@HH@std@@PAX@std@@_N$0A@@?$pair@PAU?$_Tree_node@U?$pair@HH@std@@PAX@std@@_N@std@@QAE@AAPAU?$_Tree_node@U?$pair@HH@std@@PAX@1@$$QA_N@Z 0042f940 f i Psyeb10Enemy.obj
 0001:0002e990       ??$?0ABU?$less@U?$pair@HH@std@@@std@@U_Zero_then_variadic_args_t@1@@?$_Compressed_pair@U?$less@U?$pair@HH@std@@@std@@V?$_Compressed_pair@V?$allocator@U?$_Tree_node@U?$pair@HH@std@@PAX@std@@@std@@V?$_Tree_val@U?$_Tree_simple_types@U?$pair@HH@std@@@std@@@2@$00@2@$00@std@@QAE@U_One_then_variadic_args_t@1@ABU?$less@U?$pair@HH@std@@@1@$$QAU_Zero_then_variadic_args_t@1@@Z 0042f990 f i Psyeb10Enemy.obj
 0001:0002e9e0       ??$?0ABV?$allocator@H@std@@$$V@?$_Compressed_pair@V?$allocator@H@std@@V?$_Vector_val@U?$_Simple_types@H@std@@@2@$00@std@@QAE@U_One_then_variadic_args_t@1@ABV?$allocator@H@1@@Z 0042f9e0 f i Psyeb10Enemy.obj
 0001:0002ea10       ??$?0ABV?$allocator@I@std@@$$V@?$_Compressed_pair@V?$allocator@I@std@@V?$_Vector_val@U?$_Simple_types@I@std@@@2@$00@std@@QAE@U_One_then_variadic_args_t@1@ABV?$allocator@I@1@@Z 0042fa10 f i Psyeb10Enemy.obj
 0001:0002ea40       ??$?0ABV?$allocator@N@std@@$$V@?$_Compressed_pair@V?$allocator@N@std@@V?$_Vector_val@U?$_Simple_types@N@std@@@2@$00@std@@QAE@U_One_then_variadic_args_t@1@ABV?$allocator@N@1@@Z 0042fa40 f i Psyeb10Enemy.obj
 0001:0002ea70       ??$?0ABV?$allocator@U?$pair@HH@std@@@std@@$$V@?$_Compressed_pair@V?$allocator@U?$pair@HH@std@@@std@@V?$_Vector_val@U?$_Simple_types@U?$pair@HH@std@@@std@@@2@$00@std@@QAE@U_One_then_variadic_args_t@1@ABV?$allocator@U?$pair@HH@std@@@1@@Z 0042fa70 f i Psyeb10Enemy.obj
 0001:0002eaa0       ??$?0H@?$allocator@U_Container_proxy@std@@@std@@QAE@ABV?$allocator@H@1@@Z 0042faa0 f i Psyeb10Enemy.obj
 0001:0002eac0       ??$?0HH$0A@@?$pair@HH@std@@QAE@$$QAH0@Z 0042fac0 f i Psyeb10Enemy.obj
 0001:0002eb10       ??$?0I@?$allocator@U_Container_proxy@std@@@std@@QAE@ABV?$allocator@I@1@@Z 0042fb10 f i Psyeb10Enemy.obj
 0001:0002eb30       ??$?0N@?$allocator@U_Container_proxy@std@@@std@@QAE@ABV?$allocator@N@1@@Z 0042fb30 f i Psyeb10Enemy.obj
 0001:0002eb50       ??$?0PAU?$_Tree_node@U?$pair@HH@std@@PAX@std@@_N$0A@@?$pair@PAU?$_Tree_node@U?$pair@HH@std@@PAX@std@@_N@std@@QAE@$$QAPAU?$_Tree_node@U?$pair@HH@std@@PAX@1@$$QA_N@Z 0042fb50 f i Psyeb10Enemy.obj
 0001:0002eba0       ??$?0U?$_Tree_node@U?$pair@HH@std@@PAX@std@@@?$allocator@U_Container_proxy@std@@@std@@QAE@ABV?$allocator@U?$_Tree_node@U?$pair@HH@std@@PAX@std@@@1@@Z 0042fba0 f i Psyeb10Enemy.obj
 0001:0002ebc0       ??$?0U?$pair@HH@std@@@?$_Tree_temp_node@V?$allocator@U?$_Tree_node@U?$pair@HH@std@@PAX@std@@@std@@@std@@QAE@AAV?$allocator@U?$_Tree_node@U?$pair@HH@std@@PAX@std@@@1@PAU?$_Tree_node@U?$pair@HH@std@@PAX@1@$$QAU?$pair@HH@1@@Z 0042fbc0 f i Psyeb10Enemy.obj
 0001:0002ecd0       ??$?0U?$pair@HH@std@@@?$allocator@PAU?$pair@HH@std@@@std@@QAE@ABV?$allocator@U?$pair@HH@std@@@1@@Z 0042fcd0 f i Psyeb10Enemy.obj
 0001:0002ecf0       ??$?0U?$pair@HH@std@@@?$allocator@U_Container_proxy@std@@@std@@QAE@ABV?$allocator@U?$pair@HH@std@@@1@@Z 0042fcf0 f i Psyeb10Enemy.obj
 0001:0002ed10       ??$?0V?$_Tree_const_iterator@V?$_Tree_val@U?$_Tree_simple_types@U?$pair@HH@std@@@std@@@std@@@std@@AB_N$0A@@?$pair@V?$_Tree_const_iterator@V?$_Tree_val@U?$_Tree_simple_types@U?$pair@HH@std@@@std@@@std@@@std@@_N@std@@QAE@$$QAV?$_Tree_const_iterator@V?$_Tree_val@U?$_Tree_simple_types@U?$pair@HH@std@@@std@@@std@@@1@AB_N@Z 0042fd10 f i Psyeb10Enemy.obj
 0001:0002ed60       ??$?0_N@?$allocator@I@std@@QAE@ABV?$allocator@_N@1@@Z 0042fd60 f i Psyeb10Enemy.obj
 0001:0002ed80       ??$?MHHHH@std@@YA_NABU?$pair@HH@0@0@Z 0042fd80 f i Psyeb10Enemy.obj
 0001:0002ede0       ??$_Adl_verify_range@PAPAU?$pair@HH@std@@PAPAU12@@std@@YAXABQAPAU?$pair@HH@0@0@Z 0042fde0 f i Psyeb10Enemy.obj
 0001:0002ee60       ??$_Allocate_at_least_helper@V?$allocator@H@std@@@std@@YAPAHAAV?$allocator@H@0@AAI@Z 0042fe60 f i Psyeb10Enemy.obj
 0001:0002ee80       ??$_Allocate_at_least_helper@V?$allocator@I@std@@@std@@YAPAIAAV?$allocator@I@0@AAI@Z 0042fe80 f i Psyeb10Enemy.obj
 0001:0002eea0       ??$_Allocate_at_least_helper@V?$allocator@N@std@@@std@@YAPANAAV?$allocator@N@0@AAI@Z 0042fea0 f i Psyeb10Enemy.obj
 0001:0002eec0       ??$_Allocate_at_least_helper@V?$allocator@PAU?$pair@HH@std@@@std@@@std@@YAPAPAU?$pair@HH@0@AAV?$allocator@PAU?$pair@HH@std@@@0@AAI@Z 0042fec0 f i Psyeb10Enemy.obj
 0001:0002eee0       ??$_Allocate_at_least_helper@V?$allocator@U?$pair@HH@std@@@std@@@std@@YAPAU?$pair@HH@0@AAV?$allocator@U?$pair@HH@std@@@0@AAI@Z 0042fee0 f i Psyeb10Enemy.obj
 0001:0002ef00       ??$_Buyheadnode@V?$allocator@U?$_Tree_node@U?$pair@HH@std@@PAX@std@@@std@@@?$_Tree_node@U?$pair@HH@std@@PAX@std@@SAPAU01@AAV?$allocator@U?$_Tree_node@U?$pair@HH@std@@PAX@std@@@1@@Z 0042ff00 f i Psyeb10Enemy.obj
 0001:0002ef80       ??$_Construct_in_place@PAU?$_Tree_node@U?$pair@HH@std@@PAX@std@@AAPAU12@@std@@YAXAAPAU?$_Tree_node@U?$pair@HH@std@@PAX@0@0@Z 0042ff80 f i Psyeb10Enemy.obj
 0001:0002efd0       ??$_Construct_in_place@PAU?$_Tree_node@U?$pair@HH@std@@PAX@std@@ABQAU12@@std@@YAXAAPAU?$_Tree_node@U?$pair@HH@std@@PAX@0@ABQAU10@@Z 0042ffd0 f i Psyeb10Enemy.obj
 0001:0002f020       ??$_Construct_in_place@PAU?$pair@HH@std@@AAPAU12@@std@@YAXAAPAU?$pair@HH@0@0@Z 00430020 f i Psyeb10Enemy.obj
 0001:0002f070       ??$_Construct_n@ABH@?$vector@HV?$allocator@H@std@@@std@@AAEXIABH@Z 00430070 f i Psyeb10Enemy.obj
 0001:0002f190       ??$_Construct_n@ABI@?$vector@IV?$allocator@I@std@@@std@@AAEXIABI@Z 00430190 f i Psyeb10Enemy.obj
 0001:0002f2b0       ??$_Construct_n@ABN@?$vector@NV?$allocator@N@std@@@std@@AAEXIABN@Z 004302b0 f i Psyeb10Enemy.obj
 0001:0002f3d0       ??$_Construct_n@PBU?$pair@HH@std@@PBU12@@?$vector@U?$pair@HH@std@@V?$allocator@U?$pair@HH@std@@@2@@std@@AAEXI$$QAPBU?$pair@HH@1@0@Z 004303d0 f i Psyeb10Enemy.obj
 0001:0002f500       ??$_Copy_memmove@PAIPAI@std@@YAPAIPAI00@Z 00430500 f i Psyeb10Enemy.obj
 0001:0002f590       ??$_Copy_memmove@PAPAU?$pair@HH@std@@PAPAU12@@std@@YAPAPAU?$pair@HH@0@PAPAU10@00@Z 00430590 f i Psyeb10Enemy.obj
 0001:0002f620       ??$_Copy_memmove@PBU?$pair@HH@std@@PAU12@@std@@YAPAU?$pair@HH@0@PBU10@0PAU10@@Z 00430620 f i Psyeb10Enemy.obj
 0001:0002f6b0       ??$_Copy_memmove_tail@PAI@std@@YAPAIQBDQAIII@Z 004306b0 f i Psyeb10Enemy.obj
 0001:0002f700       ??$_Copy_memmove_tail@PAPAU?$pair@HH@std@@@std@@YAPAPAU?$pair@HH@0@QBDQAPAU10@II@Z 00430700 f i Psyeb10Enemy.obj
 0001:0002f750       ??$_Copy_memmove_tail@PAU?$pair@HH@std@@@std@@YAPAU?$pair@HH@0@QBDQAU10@II@Z 00430750 f i Psyeb10Enemy.obj
 0001:0002f7a0       ??$_Debug_lt_pred@ABU?$less@U?$pair@HH@std@@@std@@ABU?$pair@HH@2@ABU32@@std@@YA_NABU?$less@U?$pair@HH@std@@@0@ABU?$pair@HH@0@1@Z 004307a0 f i Psyeb10Enemy.obj
 0001:0002f860       ??$_Destroy_in_place@PAU?$_Tree_node@U?$pair@HH@std@@PAX@std@@@std@@YAXAAPAU?$_Tree_node@U?$pair@HH@std@@PAX@0@@Z 00430860 f i Psyeb10Enemy.obj
 0001:0002f870       ??$_Destroy_in_place@PAU?$pair@HH@std@@@std@@YAXAAPAU?$pair@HH@0@@Z 00430870 f i Psyeb10Enemy.obj
 0001:0002f880       ??$_Destroy_range@PAPAU?$pair@HH@std@@PAPAU12@@std@@YAXPAPAU?$pair@HH@0@QAPAU10@@Z 00430880 f i Psyeb10Enemy.obj
 0001:0002f890       ??$_Destroy_range@V?$allocator@H@std@@@std@@YAXPAHQAHAAV?$allocator@H@0@@Z 00430890 f i Psyeb10Enemy.obj
 0001:0002f8a0       ??$_Destroy_range@V?$allocator@I@std@@@std@@YAXPAIQAIAAV?$allocator@I@0@@Z 004308a0 f i Psyeb10Enemy.obj
 0001:0002f8b0       ??$_Destroy_range@V?$allocator@N@std@@@std@@YAXPANQANAAV?$allocator@N@0@@Z 004308b0 f i Psyeb10Enemy.obj
 0001:0002f8c0       ??$_Destroy_range@V?$allocator@U?$pair@HH@std@@@std@@@std@@YAXPAU?$pair@HH@0@QAU10@AAV?$allocator@U?$pair@HH@std@@@0@@Z 004308c0 f i Psyeb10Enemy.obj
 0001:0002f8d0       ??$_Emplace@U?$pair@HH@std@@@?$_Tree@V?$_Tset_traits@U?$pair@HH@std@@U?$less@U?$pair@HH@std@@@2@V?$allocator@U?$pair@HH@std@@@2@$0A@@std@@@std@@IAE?AU?$pair@PAU?$_Tree_node@U?$pair@HH@std@@PAX@std@@_N@1@$$QAU?$pair@HH@1@@Z 004308d0 f i Psyeb10Enemy.obj
 0001:0002fa00       ??$_Emplace_back@AAPAU?$pair@HH@std@@@?$_Uninitialized_backout@PAPAU?$pair@HH@std@@@std@@QAEXAAPAU?$pair@HH@1@@Z 00430a00 f i Psyeb10Enemy.obj
 0001:0002fa50       ??$_Emplace_back@ABH@?$_Uninitialized_backout_al@V?$allocator@H@std@@@std@@QAEXABH@Z 00430a50 f i Psyeb10Enemy.obj
 0001:0002fab0       ??$_Emplace_back@ABI@?$_Uninitialized_backout_al@V?$allocator@I@std@@@std@@QAEXABI@Z 00430ab0 f i Psyeb10Enemy.obj
 0001:0002fb10       ??$_Emplace_back@ABN@?$_Uninitialized_backout_al@V?$allocator@N@std@@@std@@QAEXABN@Z 00430b10 f i Psyeb10Enemy.obj
 0001:0002fb70       ??$_Emplace_back@ABU?$pair@HH@std@@@?$_Uninitialized_backout_al@V?$allocator@U?$pair@HH@std@@@std@@@std@@QAEXABU?$pair@HH@1@@Z 00430b70 f i Psyeb10Enemy.obj
 0001:0002fbd0       ??$_Emplace_back_internal@U?$pair@HH@std@@@?$deque@U?$pair@HH@std@@V?$allocator@U?$pair@HH@std@@@2@@std@@AAEX$$QAU?$pair@HH@1@@Z 00430bd0 f i Psyeb10Enemy.obj
 0001:0002fd50       ??$_Erase_head@V?$allocator@U?$_Tree_node@U?$pair@HH@std@@PAX@std@@@std@@@?$_Tree_val@U?$_Tree_simple_types@U?$pair@HH@std@@@std@@@std@@QAEXAAV?$allocator@U?$_Tree_node@U?$pair@HH@std@@PAX@std@@@1@@Z 00430d50 f i Psyeb10Enemy.obj
 0001:0002fda0       ??$_Erase_tree@V?$allocator@U?$_Tree_node@U?$pair@HH@std@@PAX@std@@@std@@@?$_Tree_val@U?$_Tree_simple_types@U?$pair@HH@std@@@std@@@std@@QAEXAAV?$allocator@U?$_Tree_node@U?$pair@HH@std@@PAX@std@@@1@PAU?$_Tree_node@U?$pair@HH@std@@PAX@1@@Z 00430da0 f i Psyeb10Enemy.obj
 0001:0002fe00       ??$_Fill_zero_memset@PAH@std@@YAXPAHI@Z 00430e00 f i Psyeb10Enemy.obj
 0001:0002fe30       ??$_Fill_zero_memset@PAI@std@@YAXPAII@Z 00430e30 f i Psyeb10Enemy.obj
 0001:0002fe60       ??$_Fill_zero_memset@PAN@std@@YAXPANI@Z 00430e60 f i Psyeb10Enemy.obj
 0001:0002fe90       ??$_Find@U?$pair@HH@std@@@?$_Tree@V?$_Tset_traits@U?$pair@HH@std@@U?$less@U?$pair@HH@std@@@2@V?$allocator@U?$pair@HH@std@@@2@$0A@@std@@@std@@ABEPAU?$_Tree_node@U?$pair@HH@std@@PAX@1@ABU?$pair@HH@1@@Z 00430e90 f i Psyeb10Enemy.obj
 0001:0002fef0       ??$_Find_lower_bound@U?$pair@HH@std@@@?$_Tree@V?$_Tset_traits@U?$pair@HH@std@@U?$less@U?$pair@HH@std@@@2@V?$allocator@U?$pair@HH@std@@@2@$0A@@std@@@std@@IBE?AU?$_Tree_find_result@PAU?$_Tree_node@U?$pair@HH@std@@PAX@std@@@1@ABU?$pair@HH@1@@Z 00430ef0 f i Psyeb10Enemy.obj
 0001:0002ffe0       ??$_Freenode0@V?$allocator@U?$_Tree_node@U?$pair@HH@std@@PAX@std@@@std@@@?$_Tree_node@U?$pair@HH@std@@PAX@std@@SAXAAV?$allocator@U?$_Tree_node@U?$pair@HH@std@@PAX@std@@@1@PAU01@@Z 00430fe0 f i Psyeb10Enemy.obj
 0001:00030040       ??$_Freenode@V?$allocator@U?$_Tree_node@U?$pair@HH@std@@PAX@std@@@std@@@?$_Tree_node@U?$pair@HH@std@@PAX@std@@SAXAAV?$allocator@U?$_Tree_node@U?$pair@HH@std@@PAX@std@@@1@PAU01@@Z 00431040 f i Psyeb10Enemy.obj
 0001:000300c0       ??$_Get_size_of_n@$0BI@@std@@YAII@Z 004310c0 f i Psyeb10Enemy.obj
 0001:00030100       ??$_Get_unwrapped@ABQAPAU?$pair@HH@std@@@std@@YA?A_TABQAPAU?$pair@HH@0@@Z 00431100 f i Psyeb10Enemy.obj
 0001:00030110       ??$_Get_unwrapped@PBU?$pair@HH@std@@@std@@YA?A_T$$QAPBU?$pair@HH@0@@Z 00431110 f i Psyeb10Enemy.obj
 0001:00030120       ??$_Get_unwrapped_n@AAPAPAU?$pair@HH@std@@H@std@@YA?A_TAAPAPAU?$pair@HH@0@H@Z 00431120 f i Psyeb10Enemy.obj
 0001:00030130       ??$_Idl_distance@PAPAU?$pair@HH@std@@PAPAU12@@std@@YA?A_PABQAPAU?$pair@HH@0@0@Z 00431130 f i Psyeb10Enemy.obj
 0001:00030150       ??$_Is_all_bits_zero@H@std@@YA_NABH@Z 00431150 f i Psyeb10Enemy.obj
 0001:000301a0       ??$_Is_all_bits_zero@I@std@@YA_NABI@Z 004311a0 f i Psyeb10Enemy.obj
 0001:000301f0       ??$_Is_all_bits_zero@N@std@@YA_NABN@Z 004311f0 f i Psyeb10Enemy.obj
 0001:00030240       ??$_Lower_bound_duplicate@U?$pair@HH@std@@@?$_Tree@V?$_Tset_traits@U?$pair@HH@std@@U?$less@U?$pair@HH@std@@@2@V?$allocator@U?$pair@HH@std@@@2@$0A@@std@@@std@@IBE_NQAU?$_Tree_node@U?$pair@HH@std@@PAX@1@ABU?$pair@HH@1@@Z 00431240 f i Psyeb10Enemy.obj
 0001:000302b0       ??$_Move_unchecked@PAIPAI@std@@YAPAIPAI00@Z 004312b0 f i Psyeb10Enemy.obj
 0001:00030320       ??$_Seek_wrapped@PAPAU?$pair@HH@std@@PAPAU12@@std@@YAXAAPAPAU?$pair@HH@0@$$QAPAPAU10@@Z 00431320 f i Psyeb10Enemy.obj
 0001:00030340       ??$_To_address@PAH@std@@YA?A_PABQAH@Z 00431340 f i Psyeb10Enemy.obj
 0001:00030350       ??$_To_address@PAI@std@@YA?A_PABQAI@Z 00431350 f i Psyeb10Enemy.obj
 0001:00030360       ??$_To_address@PAN@std@@YA?A_PABQAN@Z 00431360 f i Psyeb10Enemy.obj
 0001:00030370       ??$_To_address@PAPAU?$pair@HH@std@@@std@@YA?A_PABQAPAU?$pair@HH@0@@Z 00431370 f i Psyeb10Enemy.obj
 0001:00030380       ??$_To_address@PAU?$pair@HH@std@@@std@@YA?A_PABQAU?$pair@HH@0@@Z 00431380 f i Psyeb10Enemy.obj
 0001:00030390       ??$_To_address@PBU?$pair@HH@std@@@std@@YA?A_PABQBU?$pair@HH@0@@Z 00431390 f i Psyeb10Enemy.obj
 0001:000303a0       ??$_Unfancy@H@std@@YAPAHPAH@Z 004313a0 f i Psyeb10Enemy.obj
 0001:000303b0       ??$_Unfancy@I@std@@YAPAIPAI@Z 004313b0 f i Psyeb10Enemy.obj
 0001:000303c0       ??$_Unfancy@N@std@@YAPANPAN@Z 004313c0 f i Psyeb10Enemy.obj
 0001:000303d0       ??$_Unfancy@U?$pair@HH@std@@@std@@YAPAU?$pair@HH@0@PAU10@@Z 004313d0 f i Psyeb10Enemy.obj
 0001:000303e0       ??$_Unfancy_maybe_null@I@std@@YAPAIPAI@Z 004313e0 f i Psyeb10Enemy.obj
 0001:000303f0       ??$_Unfancy_maybe_null@U?$pair@HH@std@@@std@@YAPAU?$pair@HH@0@PAU10@@Z 004313f0 f i Psyeb10Enemy.obj
 0001:00030400       ??$_Uninitialized_copy@PBU?$pair@HH@std@@PBU12@V?$allocator@U?$pair@HH@std@@@2@@std@@YAPAU?$pair@HH@0@PBU10@0PAU10@AAV?$allocator@U?$pair@HH@std@@@0@@Z 00431400 f i Psyeb10Enemy.obj
 0001:00030550       ??$_Uninitialized_copy_unchecked@PAPAU?$pair@HH@std@@PAPAU12@@std@@YAPAPAU?$pair@HH@0@PAPAU10@QAPAU10@0@Z 00431550 f i Psyeb10Enemy.obj
 0001:00030620       ??$_Uninitialized_fill_n@V?$allocator@H@std@@@std@@YAPAHPAHIABHAAV?$allocator@H@0@@Z 00431620 f i Psyeb10Enemy.obj
 0001:00030710       ??$_Uninitialized_fill_n@V?$allocator@I@std@@@std@@YAPAIPAIIABIAAV?$allocator@I@0@@Z 00431710 f i Psyeb10Enemy.obj
 0001:00030800       ??$_Uninitialized_fill_n@V?$allocator@N@std@@@std@@YAPANPANIABNAAV?$allocator@N@0@@Z 00431800 f i Psyeb10Enemy.obj
 0001:000308f0       ??$_Uninitialized_value_construct_n_unchecked1@PAPAU?$pair@HH@std@@I@std@@YAPAPAU?$pair@HH@0@PAPAU10@I@Z 004318f0 f i Psyeb10Enemy.obj
 0001:00030920       ??$_Zero_range@PAPAU?$pair@HH@std@@@std@@YAPAPAU?$pair@HH@0@QAPAU10@0@Z 00431920 f i Psyeb10Enemy.obj
 0001:00030970       ??$addressof@$$CBV?$_Tree_val@U?$_Tree_simple_types@U?$pair@HH@std@@@std@@@std@@@std@@YAPBV?$_Tree_val@U?$_Tree_simple_types@U?$pair@HH@std@@@std@@@0@ABV10@@Z 00431970 f i Psyeb10Enemy.obj
 0001:00030980       ??$addressof@PAU?$_Tree_node@U?$pair@HH@std@@PAX@std@@@std@@YAPAPAU?$_Tree_node@U?$pair@HH@std@@PAX@0@AAPAU10@@Z 00431980 f i Psyeb10Enemy.obj
 0001:00030990       ??$addressof@PAU?$pair@HH@std@@@std@@YAPAPAU?$pair@HH@0@AAPAU10@@Z 00431990 f i Psyeb10Enemy.obj
 0001:000309a0       ??$addressof@U?$pair@HH@std@@@std@@YAPAU?$pair@HH@0@AAU10@@Z 004319a0 f i Psyeb10Enemy.obj
 0001:000309b0       ??$addressof@V?$_Tree_val@U?$_Tree_simple_types@U?$pair@HH@std@@@std@@@std@@@std@@YAPAV?$_Tree_val@U?$_Tree_simple_types@U?$pair@HH@std@@@std@@@0@AAV10@@Z 004319b0 f i Psyeb10Enemy.obj
 0001:000309c0       ??$addressof@V?$_Vector_val@U?$_Simple_types@I@std@@@std@@@std@@YAPAV?$_Vector_val@U?$_Simple_types@I@std@@@0@AAV10@@Z 004319c0 f i Psyeb10Enemy.obj
 0001:000309d0       ??$construct@HABH@?$_Default_allocator_traits@V?$allocator@H@std@@@std@@SAXAAV?$allocator@H@1@QAHABH@Z 004319d0 f i Psyeb10Enemy.obj
 0001:00030a10       ??$construct@IABI@?$_Default_allocator_traits@V?$allocator@I@std@@@std@@SAXAAV?$allocator@I@1@QAIABI@Z 00431a10 f i Psyeb10Enemy.obj
 0001:00030a50       ??$construct@NABN@?$_Default_allocator_traits@V?$allocator@N@std@@@std@@SAXAAV?$allocator@N@1@QANABN@Z 00431a50 f i Psyeb10Enemy.obj
 0001:00030a90       ??$construct@U?$pair@HH@std@@ABU12@@?$_Default_allocator_traits@V?$allocator@U?$pair@HH@std@@@std@@@std@@SAXAAV?$allocator@U?$pair@HH@std@@@1@QAU?$pair@HH@1@ABU31@@Z 00431a90 f i Psyeb10Enemy.obj
 0001:00030ad0       ??$construct@U?$pair@HH@std@@U12@@?$_Default_allocator_traits@V?$allocator@U?$_Tree_node@U?$pair@HH@std@@PAX@std@@@std@@@std@@SAXAAV?$allocator@U?$_Tree_node@U?$pair@HH@std@@PAX@std@@@1@QAU?$pair@HH@1@$$QAU31@@Z 00431ad0 f i Psyeb10Enemy.obj
 0001:00030b10       ??$construct@U?$pair@HH@std@@U12@@?$_Default_allocator_traits@V?$allocator@U?$pair@HH@std@@@std@@@std@@SAXAAV?$allocator@U?$pair@HH@std@@@1@QAU?$pair@HH@1@$$QAU31@@Z 00431b10 f i Psyeb10Enemy.obj
 0001:00030b50       ??$destroy@U?$pair@HH@std@@@?$_Default_allocator_traits@V?$allocator@U?$_Tree_node@U?$pair@HH@std@@PAX@std@@@std@@@std@@SAXAAV?$allocator@U?$_Tree_node@U?$pair@HH@std@@PAX@std@@@1@QAU?$pair@HH@1@@Z 00431b50 f i Psyeb10Enemy.obj
 0001:00030b60       ??$destroy@U?$pair@HH@std@@@?$_Default_allocator_traits@V?$allocator@U?$pair@HH@std@@@std@@@std@@SAXAAV?$allocator@U?$pair@HH@std@@@1@QAU?$pair@HH@1@@Z 00431b60 f i Psyeb10Enemy.obj
 0001:00030b70       ??$exchange@PAU?$_Tree_node@U?$pair@HH@std@@PAX@std@@$$T@std@@YAPAU?$_Tree_node@U?$pair@HH@std@@PAX@0@AAPAU10@$$QA$$T@Z 00431b70 f i Psyeb10Enemy.obj
 0001:00030ba0       ??$exchange@PAU?$_Tree_node@U?$pair@HH@std@@PAX@std@@AAPAU12@@std@@YAPAU?$_Tree_node@U?$pair@HH@std@@PAX@0@AAPAU10@0@Z 00431ba0 f i Psyeb10Enemy.obj
 0001:00030bd0       ??$forward@AAH@std@@YAAAHAAH@Z 00431bd0 f i Psyeb10Enemy.obj
 0001:00030be0       ??$forward@AAPAU?$_Tree_node@U?$pair@HH@std@@PAX@std@@@std@@YAAAPAU?$_Tree_node@U?$pair@HH@std@@PAX@0@AAPAU10@@Z 00431be0 f i Psyeb10Enemy.obj
 0001:00030bf0       ??$forward@AAPAU?$pair@HH@std@@@std@@YAAAPAU?$pair@HH@0@AAPAU10@@Z 00431bf0 f i Psyeb10Enemy.obj
 0001:00030c00       ??$forward@ABH@std@@YAABHABH@Z 00431c00 f i Psyeb10Enemy.obj
 0001:00030c10       ??$forward@ABI@std@@YAABIABI@Z 00431c10 f i Psyeb10Enemy.obj
 0001:00030c20       ??$forward@ABN@std@@YAABNABN@Z 00431c20 f i Psyeb10Enemy.obj
 0001:00030c30       ??$forward@ABQAU?$_Tree_node@U?$pair@HH@std@@PAX@std@@@std@@YAABQAU?$_Tree_node@U?$pair@HH@std@@PAX@0@ABQAU10@@Z 00431c30 f i Psyeb10Enemy.obj
 0001:00030c40       ??$forward@ABU?$less@U?$pair@HH@std@@@std@@@std@@YAABU?$less@U?$pair@HH@std@@@0@ABU10@@Z 00431c40 f i Psyeb10Enemy.obj
 0001:00030c50       ??$forward@ABU?$pair@HH@std@@@std@@YAABU?$pair@HH@0@ABU10@@Z 00431c50 f i Psyeb10Enemy.obj
 0001:00030c60       ??$forward@ABV?$allocator@H@std@@@std@@YAABV?$allocator@H@0@ABV10@@Z 00431c60 f i Psyeb10Enemy.obj
 0001:00030c70       ??$forward@ABV?$allocator@I@std@@@std@@YAABV?$allocator@I@0@ABV10@@Z 00431c70 f i Psyeb10Enemy.obj
 0001:00030c80       ??$forward@ABV?$allocator@N@std@@@std@@YAABV?$allocator@N@0@ABV10@@Z 00431c80 f i Psyeb10Enemy.obj
 0001:00030c90       ??$forward@ABV?$allocator@U?$pair@HH@std@@@std@@@std@@YAABV?$allocator@U?$pair@HH@std@@@0@ABV10@@Z 00431c90 f i Psyeb10Enemy.obj
 0001:00030ca0       ??$forward@H@std@@YA$$QAHAAH@Z 00431ca0 f i Psyeb10Enemy.obj
 0001:00030cb0       ??$forward@PAPAU?$pair@HH@std@@@std@@YA$$QAPAPAU?$pair@HH@0@AAPAPAU10@@Z 00431cb0 f i Psyeb10Enemy.obj
 0001:00030cc0       ??$forward@PAU?$_Tree_node@U?$pair@HH@std@@PAX@std@@@std@@YA$$QAPAU?$_Tree_node@U?$pair@HH@std@@PAX@0@AAPAU10@@Z 00431cc0 f i Psyeb10Enemy.obj
 0001:00030cd0       ??$forward@PBU?$pair@HH@std@@@std@@YA$$QAPBU?$pair@HH@0@AAPBU10@@Z 00431cd0 f i Psyeb10Enemy.obj
 0001:00030ce0       ??$forward@U?$pair@HH@std@@@std@@YA$$QAU?$pair@HH@0@AAU10@@Z 00431ce0 f i Psyeb10Enemy.obj
 0001:00030cf0       ??$forward@V?$_Tree_const_iterator@V?$_Tree_val@U?$_Tree_simple_types@U?$pair@HH@std@@@std@@@std@@@std@@@std@@YA$$QAV?$_Tree_const_iterator@V?$_Tree_val@U?$_Tree_simple_types@U?$pair@HH@std@@@std@@@std@@@0@AAV10@@Z 00431cf0 f i Psyeb10Enemy.obj
 0001:00030d00       ??$insert@$0A@$0A@@?$_Tree@V?$_Tset_traits@U?$pair@HH@std@@U?$less@U?$pair@HH@std@@@2@V?$allocator@U?$pair@HH@std@@@2@$0A@@std@@@std@@QAE?AU?$pair@V?$_Tree_const_iterator@V?$_Tree_val@U?$_Tree_simple_types@U?$pair@HH@std@@@std@@@std@@@std@@_N@1@$$QAU?$pair@HH@1@@Z 00431d00 f i Psyeb10Enemy.obj
 0001:00030d90       ??$max@H@std@@YAABHABH0@Z  00431d90 f i Psyeb10Enemy.obj
 0001:00030dd0       ??$min@H@std@@YAABHABH0@Z  00431dd0 f i Psyeb10Enemy.obj
 0001:00030e10       ??$move@AAI@std@@YA$$QAIAAI@Z 00431e10 f i Psyeb10Enemy.obj
 0001:00030e20       ??$move@AAPAI@std@@YA$$QAPAIAAPAI@Z 00431e20 f i Psyeb10Enemy.obj
 0001:00030e30       ??$move@AAPAPAU?$pair@HH@std@@@std@@YA$$QAPAPAU?$pair@HH@0@AAPAPAU10@@Z 00431e30 f i Psyeb10Enemy.obj
 0001:00030e40       ??$move@AAPAU?$pair@HH@std@@@std@@YA$$QAPAU?$pair@HH@0@AAPAU10@@Z 00431e40 f i Psyeb10Enemy.obj
 0001:00030e50       ??$move@AAPBU?$pair@HH@std@@@std@@YA$$QAPBU?$pair@HH@0@AAPBU10@@Z 00431e50 f i Psyeb10Enemy.obj
 0001:00030e60       ??$move@AAU?$pair@HH@std@@@std@@YA$$QAU?$pair@HH@0@AAU10@@Z 00431e60 f i Psyeb10Enemy.obj
 0001:00030e70       ??$sqrt@H$0A@@@YANH@Z      00431e70 f i Psyeb10Enemy.obj
 0001:00030e90       ??$uninitialized_copy@PAPAU?$pair@HH@std@@PAPAU12@@std@@YAPAPAU?$pair@HH@0@QAPAU10@0PAPAU10@@Z 00431e90 f i Psyeb10Enemy.obj
 0001:00030f40       ??0?$_Alloc_construct_ptr@V?$allocator@U?$_Tree_node@U?$pair@HH@std@@PAX@std@@@std@@@std@@QAE@AAV?$allocator@U?$_Tree_node@U?$pair@HH@std@@PAX@std@@@1@@Z 00431f40 f i Psyeb10Enemy.obj
 0001:00030f70       ??0?$_Deque_val@U?$_Deque_simple_types@U?$pair@HH@std@@@std@@@std@@QAE@XZ 00431f70 f i Psyeb10Enemy.obj
 0001:00030fc0       ??0?$_Tree@V?$_Tset_traits@U?$pair@HH@std@@U?$less@U?$pair@HH@std@@@2@V?$allocator@U?$pair@HH@std@@@2@$0A@@std@@@std@@QAE@ABU?$less@U?$pair@HH@std@@@1@@Z 00431fc0 f i Psyeb10Enemy.obj
 0001:00031000       ??0?$_Tree_const_iterator@V?$_Tree_val@U?$_Tree_simple_types@U?$pair@HH@std@@@std@@@std@@@std@@QAE@$$QAV01@@Z 00432000 f i Psyeb10Enemy.obj
 0001:00031030       ??0?$_Tree_const_iterator@V?$_Tree_val@U?$_Tree_simple_types@U?$pair@HH@std@@@std@@@std@@@std@@QAE@PAU?$_Tree_node@U?$pair@HH@std@@PAX@1@PBV?$_Tree_val@U?$_Tree_simple_types@U?$pair@HH@std@@@std@@@1@@Z 00432030 f i Psyeb10Enemy.obj
 0001:00031060       ??0?$_Tree_temp_node_alloc@V?$allocator@U?$_Tree_node@U?$pair@HH@std@@PAX@std@@@std@@@std@@QAE@AAV?$allocator@U?$_Tree_node@U?$pair@HH@std@@PAX@std@@@1@@Z 00432060 f i Psyeb10Enemy.obj
 0001:000310e0       ??0?$_Tree_unchecked_const_iterator@V?$_Tree_val@U?$_Tree_simple_types@U?$pair@HH@std@@@std@@@std@@U_Iterator_base12@2@@std@@QAE@$$QAV01@@Z 004320e0 f i Psyeb10Enemy.obj
 0001:00031120       ??0?$_Tree_unchecked_const_iterator@V?$_Tree_val@U?$_Tree_simple_types@U?$pair@HH@std@@@std@@@std@@U_Iterator_base12@2@@std@@QAE@PAU?$_Tree_node@U?$pair@HH@std@@PAX@1@PBV?$_Tree_val@U?$_Tree_simple_types@U?$pair@HH@std@@@std@@@1@@Z 00432120 f i Psyeb10Enemy.obj
 0001:00031160       ??0?$_Tree_val@U?$_Tree_simple_types@U?$pair@HH@std@@@std@@@std@@QAE@XZ 00432160 f i Psyeb10Enemy.obj
 0001:000311a0       ??0?$_Uninitialized_backout@PAPAU?$pair@HH@std@@@std@@QAE@PAPAU?$pair@HH@1@@Z 004321a0 f i Psyeb10Enemy.obj
 0001:000311d0       ??0?$_Uninitialized_backout_al@V?$allocator@H@std@@@std@@QAE@PAHAAV?$allocator@H@1@@Z 004321d0 f i Psyeb10Enemy.obj
 0001:00031210       ??0?$_Uninitialized_backout_al@V?$allocator@I@std@@@std@@QAE@PAIAAV?$allocator@I@1@@Z 00432210 f i Psyeb10Enemy.obj
 0001:00031250       ??0?$_Uninitialized_backout_al@V?$allocator@N@std@@@std@@QAE@PANAAV?$allocator@N@1@@Z 00432250 f i Psyeb10Enemy.obj
 0001:00031290       ??0?$_Uninitialized_backout_al@V?$allocator@U?$pair@HH@std@@@std@@@std@@QAE@PAU?$pair@HH@1@AAV?$allocator@U?$pair@HH@std@@@1@@Z 00432290 f i Psyeb10Enemy.obj
 0001:000312d0       ??0?$_Vb_const_iterator@U?$_Wrap_alloc@V?$allocator@I@std@@@std@@@std@@QAE@PBIPBU_Container_base12@1@@Z 004322d0 f i Psyeb10Enemy.obj
 0001:00031300       ??0?$_Vb_iter_base@U?$_Wrap_alloc@V?$allocator@I@std@@@std@@@std@@QAE@PBIIPBU_Container_base12@1@@Z 00432300 f i Psyeb10Enemy.obj
 0001:00031350       ??0?$_Vb_iterator@U?$_Wrap_alloc@V?$allocator@I@std@@@std@@@std@@QAE@PBIPBU_Container_base12@1@@Z 00432350 f i Psyeb10Enemy.obj
 0001:00031380       ??0?$_Vb_reference@U?$_Wrap_alloc@V?$allocator@I@std@@@std@@@std@@QAE@ABV?$_Vb_iter_base@U?$_Wrap_alloc@V?$allocator@I@std@@@std@@@1@@Z 00432380 f i Psyeb10Enemy.obj
 0001:000313c0       ??0?$_Vb_val@V?$allocator@_N@std@@@std@@QAE@IAB_NABV?$allocator@_N@1@@Z 004323c0 f i Psyeb10Enemy.obj
 0001:000314c0       ??0?$_Vector_const_iterator@V?$_Vector_val@U?$_Simple_types@I@std@@@std@@@std@@QAE@$$QAV01@@Z 004324c0 f i Psyeb10Enemy.obj
 0001:00031500       ??0?$_Vector_const_iterator@V?$_Vector_val@U?$_Simple_types@I@std@@@std@@@std@@QAE@ABV01@@Z 00432500 f i Psyeb10Enemy.obj
 0001:00031540       ??0?$_Vector_const_iterator@V?$_Vector_val@U?$_Simple_types@I@std@@@std@@@std@@QAE@PAIPBU_Container_base12@1@@Z 00432540 f i Psyeb10Enemy.obj
 0001:00031580       ??0?$_Vector_iterator@V?$_Vector_val@U?$_Simple_types@I@std@@@std@@@std@@QAE@$$QAV01@@Z 00432580 f i Psyeb10Enemy.obj
 0001:000315b0       ??0?$_Vector_iterator@V?$_Vector_val@U?$_Simple_types@I@std@@@std@@@std@@QAE@ABV01@@Z 004325b0 f i Psyeb10Enemy.obj
 0001:000315e0       ??0?$_Vector_iterator@V?$_Vector_val@U?$_Simple_types@I@std@@@std@@@std@@QAE@PAIPBU_Container_base12@1@@Z 004325e0 f i Psyeb10Enemy.obj
 0001:00031610       ??0?$_Vector_val@U?$_Simple_types@H@std@@@std@@QAE@XZ 00432610 f i Psyeb10Enemy.obj
 0001:00031660       ??0?$_Vector_val@U?$_Simple_types@I@std@@@std@@QAE@XZ 00432660 f i Psyeb10Enemy.obj
 0001:000316b0       ??0?$_Vector_val@U?$_Simple_types@N@std@@@std@@QAE@XZ 004326b0 f i Psyeb10Enemy.obj
 0001:00031700       ??0?$_Vector_val@U?$_Simple_types@U?$pair@HH@std@@@std@@@std@@QAE@XZ 00432700 f i Psyeb10Enemy.obj
 0001:00031750       ??0?$allocator@H@std@@QAE@XZ 00432750 f i Psyeb10Enemy.obj
 0001:00031770       ??0?$allocator@N@std@@QAE@XZ 00432770 f i Psyeb10Enemy.obj
 0001:00031790       ??0?$allocator@U?$_Tree_node@U?$pair@HH@std@@PAX@std@@@std@@QAE@XZ 00432790 f i Psyeb10Enemy.obj
 0001:000317b0       ??0?$allocator@U?$pair@HH@std@@@std@@QAE@XZ 004327b0 f i Psyeb10Enemy.obj
 0001:000317d0       ??0?$allocator@_N@std@@QAE@XZ 004327d0 f i Psyeb10Enemy.obj
 0001:000317f0       ??0?$deque@U?$pair@HH@std@@V?$allocator@U?$pair@HH@std@@@2@@std@@QAE@XZ 004327f0 f i Psyeb10Enemy.obj
 0001:00031840       ??0?$initializer_list@U?$pair@HH@std@@@std@@QAE@PBU?$pair@HH@1@0@Z 00432840 f i Psyeb10Enemy.obj
 0001:00031870       ??0?$queue@U?$pair@HH@std@@V?$deque@U?$pair@HH@std@@V?$allocator@U?$pair@HH@std@@@2@@2@@std@@QAE@XZ 00432870 f i Psyeb10Enemy.obj
 0001:00031890       ??0?$set@U?$pair@HH@std@@U?$less@U?$pair@HH@std@@@2@V?$allocator@U?$pair@HH@std@@@2@@std@@QAE@XZ 00432890 f i Psyeb10Enemy.obj
 0001:000318c0       ??0?$vector@HV?$allocator@H@std@@@std@@QAE@IABHABV?$allocator@H@1@@Z 004328c0 f i Psyeb10Enemy.obj
 0001:00031910       ??0?$vector@IV?$allocator@I@std@@@std@@QAE@IABIABV?$allocator@I@1@@Z 00432910 f i Psyeb10Enemy.obj
 0001:00031960       ??0?$vector@NV?$allocator@N@std@@@std@@QAE@IABNABV?$allocator@N@1@@Z 00432960 f i Psyeb10Enemy.obj
 0001:000319b0       ??0?$vector@U?$pair@HH@std@@V?$allocator@U?$pair@HH@std@@@2@@std@@QAE@V?$initializer_list@U?$pair@HH@std@@@1@ABV?$allocator@U?$pair@HH@std@@@1@@Z 004329b0 f i Psyeb10Enemy.obj
 0001:00031a30       ??0?$vector@_NV?$allocator@_N@std@@@std@@QAE@IAB_NABV?$allocator@_N@1@@Z 00432a30 f i Psyeb10Enemy.obj
 0001:00031ac0       ??1?$_Alloc_construct_ptr@V?$allocator@U?$_Tree_node@U?$pair@HH@std@@PAX@std@@@std@@@std@@QAE@XZ 00432ac0 f i Psyeb10Enemy.obj
 0001:00031b00       ??1?$_Tidy_guard@V?$vector@HV?$allocator@H@std@@@std@@@std@@QAE@XZ 00432b00 f i Psyeb10Enemy.obj
 0001:00031b30       ??1?$_Tidy_guard@V?$vector@IV?$allocator@I@std@@@std@@@std@@QAE@XZ 00432b30 f i Psyeb10Enemy.obj
 0001:00031b60       ??1?$_Tidy_guard@V?$vector@NV?$allocator@N@std@@@std@@@std@@QAE@XZ 00432b60 f i Psyeb10Enemy.obj
 0001:00031b90       ??1?$_Tidy_guard@V?$vector@U?$pair@HH@std@@V?$allocator@U?$pair@HH@std@@@2@@std@@@std@@QAE@XZ 00432b90 f i Psyeb10Enemy.obj
 0001:00031bc0       ??1?$_Tree@V?$_Tset_traits@U?$pair@HH@std@@U?$less@U?$pair@HH@std@@@2@V?$allocator@U?$pair@HH@std@@@2@$0A@@std@@@std@@QAE@XZ 00432bc0 f i Psyeb10Enemy.obj
 0001:00031c30       ??1?$_Tree_const_iterator@V?$_Tree_val@U?$_Tree_simple_types@U?$pair@HH@std@@@std@@@std@@@std@@QAE@XZ 00432c30 f i Psyeb10Enemy.obj
 0001:00031c50       ??1?$_Tree_temp_node@V?$allocator@U?$_Tree_node@U?$pair@HH@std@@PAX@std@@@std@@@std@@QAE@XZ 00432c50 f i Psyeb10Enemy.obj
 0001:00031d20       ??1?$_Tree_temp_node_alloc@V?$allocator@U?$_Tree_node@U?$pair@HH@std@@PAX@std@@@std@@@std@@QAE@XZ 00432d20 f i Psyeb10Enemy.obj
 0001:00031d40       ??1?$_Tree_unchecked_const_iterator@V?$_Tree_val@U?$_Tree_simple_types@U?$pair@HH@std@@@std@@@std@@U_Iterator_base12@2@@std@@QAE@XZ 00432d40 f i Psyeb10Enemy.obj
 0001:00031d60       ??1?$_Uninitialized_backout@PAPAU?$pair@HH@std@@@std@@QAE@XZ 00432d60 f i Psyeb10Enemy.obj
 0001:00031d90       ??1?$_Uninitialized_backout_al@V?$allocator@H@std@@@std@@QAE@XZ 00432d90 f i Psyeb10Enemy.obj
 0001:00031dc0       ??1?$_Uninitialized_backout_al@V?$allocator@I@std@@@std@@QAE@XZ 00432dc0 f i Psyeb10Enemy.obj
 0001:00031df0       ??1?$_Uninitialized_backout_al@V?$allocator@N@std@@@std@@QAE@XZ 00432df0 f i Psyeb10Enemy.obj
 0001:00031e20       ??1?$_Uninitialized_backout_al@V?$allocator@U?$pair@HH@std@@@std@@@std@@QAE@XZ 00432e20 f i Psyeb10Enemy.obj
 0001:00031e50       ??1?$_Vb_const_iterator@U?$_Wrap_alloc@V?$allocator@I@std@@@std@@@std@@QAE@XZ 00432e50 f i Psyeb10Enemy.obj
 0001:00031e70       ??1?$_Vb_iter_base@U?$_Wrap_alloc@V?$allocator@I@std@@@std@@@std@@QAE@XZ 00432e70 f i Psyeb10Enemy.obj
 0001:00031e90       ??1?$_Vb_iterator@U?$_Wrap_alloc@V?$allocator@I@std@@@std@@@std@@QAE@XZ 00432e90 f i Psyeb10Enemy.obj
 0001:00031eb0       ??1?$_Vb_reference@U?$_Wrap_alloc@V?$allocator@I@std@@@std@@@std@@QAE@XZ 00432eb0 f i Psyeb10Enemy.obj
 0001:00031ed0       ??1?$_Vb_val@V?$allocator@_N@std@@@std@@QAE@XZ 00432ed0 f i Psyeb10Enemy.obj
 0001:00031f50       ??1?$_Vector_const_iterator@V?$_Vector_val@U?$_Simple_types@I@std@@@std@@@std@@QAE@XZ 00432f50 f i Psyeb10Enemy.obj
 0001:00031f70       ??1?$_Vector_iterator@V?$_Vector_val@U?$_Simple_types@I@std@@@std@@@std@@QAE@XZ 00432f70 f i Psyeb10Enemy.obj
 0001:00031f90       ??1?$deque@U?$pair@HH@std@@V?$allocator@U?$pair@HH@std@@@2@@std@@QAE@XZ 00432f90 f i Psyeb10Enemy.obj
 0001:00032000       ??1?$pair@V?$_Tree_const_iterator@V?$_Tree_val@U?$_Tree_simple_types@U?$pair@HH@std@@@std@@@std@@@std@@_N@std@@QAE@XZ 00433000 f i Psyeb10Enemy.obj
 0001:00032020       ??1?$queue@U?$pair@HH@std@@V?$deque@U?$pair@HH@std@@V?$allocator@U?$pair@HH@std@@@2@@2@@std@@QAE@XZ 00433020 f i Psyeb10Enemy.obj
 0001:00032040       ??1?$set@U?$pair@HH@std@@U?$less@U?$pair@HH@std@@@2@V?$allocator@U?$pair@HH@std@@@2@@std@@QAE@XZ 00433040 f i Psyeb10Enemy.obj
 0001:00032060       ??1?$vector@HV?$allocator@H@std@@@std@@QAE@XZ 00433060 f i Psyeb10Enemy.obj
 0001:000320d0       ??1?$vector@IV?$allocator@I@std@@@std@@QAE@XZ 004330d0 f i Psyeb10Enemy.obj
 0001:00032140       ??1?$vector@NV?$allocator@N@std@@@std@@QAE@XZ 00433140 f i Psyeb10Enemy.obj
 0001:000321b0       ??1?$vector@U?$pair@HH@std@@V?$allocator@U?$pair@HH@std@@@2@@std@@QAE@XZ 004331b0 f i Psyeb10Enemy.obj
 0001:00032220       ??1?$vector@_NV?$allocator@_N@std@@@std@@QAE@XZ 00433220 f i Psyeb10Enemy.obj
 0001:00032240       ??1Psyeb10Enemy@@UAE@XZ    00433240 f i Psyeb10Enemy.obj
 0001:00032260       ??4?$_Vb_reference@U?$_Wrap_alloc@V?$allocator@I@std@@@std@@@std@@QAEAAV01@_N@Z 00433260 f i Psyeb10Enemy.obj
 0001:000322d0       ??8?$_Tree_const_iterator@V?$_Tree_val@U?$_Tree_simple_types@U?$pair@HH@std@@@std@@@std@@@std@@QBE_NABV01@@Z 004332d0 f i Psyeb10Enemy.obj
 0001:00032390       ??9?$_Tree_const_iterator@V?$_Tree_val@U?$_Tree_simple_types@U?$pair@HH@std@@@std@@@std@@@std@@QBE_NABV01@@Z 00433390 f i Psyeb10Enemy.obj
 0001:000323e0       ??A?$vector@HV?$allocator@H@std@@@std@@QAEAAHI@Z 004333e0 f i Psyeb10Enemy.obj
 0001:00032490       ??A?$vector@IV?$allocator@I@std@@@std@@QAEAAII@Z 00433490 f i Psyeb10Enemy.obj
 0001:00032540       ??A?$vector@NV?$allocator@N@std@@@std@@QAEAANI@Z 00433540 f i Psyeb10Enemy.obj
 0001:000325f0       ??A?$vector@U?$pair@HH@std@@V?$allocator@U?$pair@HH@std@@@2@@std@@QAEAAU?$pair@HH@1@I@Z 004335f0 f i Psyeb10Enemy.obj
 0001:000326a0       ??A?$vector@_NV?$allocator@_N@std@@@std@@QAE?AV?$_Vb_reference@U?$_Wrap_alloc@V?$allocator@I@std@@@std@@@1@I@Z 004336a0 f i Psyeb10Enemy.obj
 0001:00032760       ??B?$_Vb_reference@U?$_Wrap_alloc@V?$allocator@I@std@@@std@@@std@@QBE_NXZ 00433760 f i Psyeb10Enemy.obj
 0001:000327b0       ??D?$_Vb_iterator@U?$_Wrap_alloc@V?$allocator@I@std@@@std@@@std@@QBE?AV?$_Vb_reference@U?$_Wrap_alloc@V?$allocator@I@std@@@std@@@1@XZ 004337b0 f i Psyeb10Enemy.obj
 0001:000328d0       ??H?$_Vector_iterator@V?$_Vector_val@U?$_Simple_types@I@std@@@std@@@std@@QBE?AV01@H@Z 004338d0 f i Psyeb10Enemy.obj
 0001:00032920       ??R?$less@U?$pair@HH@std@@@std@@QBE_NABU?$pair@HH@1@0@Z 00433920 f i Psyeb10Enemy.obj
 0001:00032950       ??Y?$_Vector_const_iterator@V?$_Vector_val@U?$_Simple_types@I@std@@@std@@@std@@QAEAAV01@H@Z 00433950 f i Psyeb10Enemy.obj
 0001:00032990       ??Y?$_Vector_iterator@V?$_Vector_val@U?$_Simple_types@I@std@@@std@@@std@@QAEAAV01@H@Z 00433990 f i Psyeb10Enemy.obj
 0001:000329c0       ??_EPsyeb10Enemy@@UAEPAXI@Z 004339c0 f i Psyeb10Enemy.obj
 0001:000329c0       ??_GPsyeb10Enemy@@UAEPAXI@Z 004339c0 f i Psyeb10Enemy.obj
 0001:00032a00       ?_Address_subscript@?$_Deque_val@U?$_Deque_simple_types@U?$pair@HH@std@@@std@@@std@@QAEPAU?$pair@HH@2@I@Z 00433a00 f i Psyeb10Enemy.obj
 0001:00032a60       ?_Advance@?$_Vb_iter_base@U?$_Wrap_alloc@V?$allocator@I@std@@@std@@@std@@QAEXI@Z 00433a60 f i Psyeb10Enemy.obj
 0001:00032ac0       ?_Alloc_sentinel_and_proxy@?$_Tree@V?$_Tset_traits@U?$pair@HH@std@@U?$less@U?$pair@HH@std@@@2@V?$allocator@U?$pair@HH@std@@@2@$0A@@std@@@std@@IAEXXZ 00433ac0 f i Psyeb10Enemy.obj
 0001:00032b90       ?_Allocate@?$_Alloc_construct_ptr@V?$allocator@U?$_Tree_node@U?$pair@HH@std@@PAX@std@@@std@@@std@@QAEXXZ 00433b90 f i Psyeb10Enemy.obj
 0001:00032bc0       ?_Buy_nonzero@?$vector@HV?$allocator@H@std@@@std@@AAEXI@Z 00433bc0 f i Psyeb10Enemy.obj
 0001:00032c00       ?_Buy_nonzero@?$vector@IV?$allocator@I@std@@@std@@AAEXI@Z 00433c00 f i Psyeb10Enemy.obj
 0001:00032c40       ?_Buy_nonzero@?$vector@NV?$allocator@N@std@@@std@@AAEXI@Z 00433c40 f i Psyeb10Enemy.obj
 0001:00032c80       ?_Buy_nonzero@?$vector@U?$pair@HH@std@@V?$allocator@U?$pair@HH@std@@@2@@std@@AAEXI@Z 00433c80 f i Psyeb10Enemy.obj
 0001:00032cc0       ?_Buy_raw@?$vector@HV?$allocator@H@std@@@std@@AAEXI@Z 00433cc0 f i Psyeb10Enemy.obj
 0001:00032d40       ?_Buy_raw@?$vector@IV?$allocator@I@std@@@std@@AAEXI@Z 00433d40 f i Psyeb10Enemy.obj
 0001:00032dc0       ?_Buy_raw@?$vector@NV?$allocator@N@std@@@std@@AAEXI@Z 00433dc0 f i Psyeb10Enemy.obj
 0001:00032e40       ?_Buy_raw@?$vector@U?$pair@HH@std@@V?$allocator@U?$pair@HH@std@@@2@@std@@AAEXI@Z 00433e40 f i Psyeb10Enemy.obj
 0001:00032ec0       ?_Check_grow_by_1@?$_Tree@V?$_Tset_traits@U?$pair@HH@std@@U?$less@U?$pair@HH@std@@@2@V?$allocator@U?$pair@HH@std@@@2@$0A@@std@@@std@@IAEXXZ 00433ec0 f i Psyeb10Enemy.obj
 0001:00032f00       ?_Extract@?$_In_place_key_extract_set_impl@U?$pair@HH@std@@U12@@std@@SAABU?$pair@HH@2@ABU32@@Z 00433f00 f i Psyeb10Enemy.obj
 0001:00032f10       ?_Get_data@?$deque@U?$pair@HH@std@@V?$allocator@U?$pair@HH@std@@@2@@std@@AAEAAV?$_Deque_val@U?$_Deque_simple_types@U?$pair@HH@std@@@std@@@2@XZ 00433f10 f i Psyeb10Enemy.obj
 0001:00032f30       ?_Get_data@?$deque@U?$pair@HH@std@@V?$allocator@U?$pair@HH@std@@@2@@std@@ABEABV?$_Deque_val@U?$_Deque_simple_types@U?$pair@HH@std@@@std@@@2@XZ 00433f30 f i Psyeb10Enemy.obj
 0001:00032f50       ?_Get_first@?$_Compressed_pair@U?$less@U?$pair@HH@std@@@std@@V?$_Compressed_pair@V?$allocator@U?$_Tree_node@U?$pair@HH@std@@PAX@std@@@std@@V?$_Tree_val@U?$_Tree_simple_types@U?$pair@HH@std@@@std@@@2@$00@2@$00@std@@QBEABU?$less@U?$pair@HH@std@@@2@XZ 00433f50 f i Psyeb10Enemy.obj
 0001:00032f70       ?_Get_first@?$_Compressed_pair@V?$allocator@H@std@@V?$_Vector_val@U?$_Simple_types@H@std@@@2@$00@std@@QAEAAV?$allocator@H@2@XZ 00433f70 f i Psyeb10Enemy.obj
 0001:00032f90       ?_Get_first@?$_Compressed_pair@V?$allocator@H@std@@V?$_Vector_val@U?$_Simple_types@H@std@@@2@$00@std@@QBEABV?$allocator@H@2@XZ 00433f90 f i Psyeb10Enemy.obj
 0001:00032fb0       ?_Get_first@?$_Compressed_pair@V?$allocator@I@std@@V?$_Vector_val@U?$_Simple_types@I@std@@@2@$00@std@@QAEAAV?$allocator@I@2@XZ 00433fb0 f i Psyeb10Enemy.obj
 0001:00032fd0       ?_Get_first@?$_Compressed_pair@V?$allocator@I@std@@V?$_Vector_val@U?$_Simple_types@I@std@@@2@$00@std@@QBEABV?$allocator@I@2@XZ 00433fd0 f i Psyeb10Enemy.obj
 0001:00032ff0       ?_Get_first@?$_Compressed_pair@V?$allocator@N@std@@V?$_Vector_val@U?$_Simple_types@N@std@@@2@$00@std@@QAEAAV?$allocator@N@2@XZ 00433ff0 f i Psyeb10Enemy.obj
 0001:00033010       ?_Get_first@?$_Compressed_pair@V?$allocator@N@std@@V?$_Vector_val@U?$_Simple_types@N@std@@@2@$00@std@@QBEABV?$allocator@N@2@XZ 00434010 f i Psyeb10Enemy.obj
 0001:00033030       ?_Get_first@?$_Compressed_pair@V?$allocator@U?$_Tree_node@U?$pair@HH@std@@PAX@std@@@std@@V?$_Tree_val@U?$_Tree_simple_types@U?$pair@HH@std@@@std@@@2@$00@std@@QAEAAV?$allocator@U?$_Tree_node@U?$pair@HH@std@@PAX@std@@@2@XZ 00434030 f i Psyeb10Enemy.obj
 0001:00033050       ?_Get_first@?$_Compressed_pair@V?$allocator@U?$_Tree_node@U?$pair@HH@std@@PAX@std@@@std@@V?$_Tree_val@U?$_Tree_simple_types@U?$pair@HH@std@@@std@@@2@$00@std@@QBEABV?$allocator@U?$_Tree_node@U?$pair@HH@std@@PAX@std@@@2@XZ 00434050 f i Psyeb10Enemy.obj
 0001:00033070       ?_Get_first@?$_Compressed_pair@V?$allocator@U?$pair@HH@std@@@std@@V?$_Deque_val@U?$_Deque_simple_types@U?$pair@HH@std@@@std@@@2@$00@std@@QAEAAV?$allocator@U?$pair@HH@std@@@2@XZ 00434070 f i Psyeb10Enemy.obj
 0001:00033090       ?_Get_first@?$_Compressed_pair@V?$allocator@U?$pair@HH@std@@@std@@V?$_Deque_val@U?$_Deque_simple_types@U?$pair@HH@std@@@std@@@2@$00@std@@QBEABV?$allocator@U?$pair@HH@std@@@2@XZ 00434090 f i Psyeb10Enemy.obj
 0001:000330b0       ?_Get_first@?$_Compressed_pair@V?$allocator@U?$pair@HH@std@@@std@@V?$_Vector_val@U?$_Simple_types@U?$pair@HH@std@@@std@@@2@$00@std@@QAEAAV?$allocator@U?$pair@HH@std@@@2@XZ 004340b0 f i Psyeb10Enemy.obj
 0001:000330d0       ?_Get_first@?$_Compressed_pair@V?$allocator@U?$pair@HH@std@@@std@@V?$_Vector_val@U?$_Simple_types@U?$pair@HH@std@@@std@@@2@$00@std@@QBEABV?$allocator@U?$pair@HH@std@@@2@XZ 004340d0 f i Psyeb10Enemy.obj
 0001:000330f0       ?_Get_scary@?$_Tree@V?$_Tset_traits@U?$pair@HH@std@@U?$less@U?$pair@HH@std@@@2@V?$allocator@U?$pair@HH@std@@@2@$0A@@std@@@std@@IAEPAV?$_Tree_val@U?$_Tree_simple_types@U?$pair@HH@std@@@std@@@2@XZ 004340f0 f i Psyeb10Enemy.obj
 0001:00033110       ?_Get_scary@?$_Tree@V?$_Tset_traits@U?$pair@HH@std@@U?$less@U?$pair@HH@std@@@2@V?$allocator@U?$pair@HH@std@@@2@$0A@@std@@@std@@IBEPBV?$_Tree_val@U?$_Tree_simple_types@U?$pair@HH@std@@@std@@@2@XZ 00434110 f i Psyeb10Enemy.obj
 0001:00033130       ?_Getal@?$_Tree@V?$_Tset_traits@U?$pair@HH@std@@U?$less@U?$pair@HH@std@@@2@V?$allocator@U?$pair@HH@std@@@2@$0A@@std@@@std@@IAEAAV?$allocator@U?$_Tree_node@U?$pair@HH@std@@PAX@std@@@2@XZ 00434130 f i Psyeb10Enemy.obj
 0001:00033150       ?_Getal@?$_Tree@V?$_Tset_traits@U?$pair@HH@std@@U?$less@U?$pair@HH@std@@@2@V?$allocator@U?$pair@HH@std@@@2@$0A@@std@@@std@@IBEABV?$allocator@U?$_Tree_node@U?$pair@HH@std@@PAX@std@@@2@XZ 00434150 f i Psyeb10Enemy.obj
 0001:00033170       ?_Getal@?$_Vb_val@V?$allocator@_N@std@@@std@@QAEAAV?$allocator@I@2@XZ 00434170 f i Psyeb10Enemy.obj
 0001:00033190       ?_Getal@?$deque@U?$pair@HH@std@@V?$allocator@U?$pair@HH@std@@@2@@std@@AAEAAV?$allocator@U?$pair@HH@std@@@2@XZ 00434190 f i Psyeb10Enemy.obj
 0001:000331b0       ?_Getal@?$deque@U?$pair@HH@std@@V?$allocator@U?$pair@HH@std@@@2@@std@@ABEABV?$allocator@U?$pair@HH@std@@@2@XZ 004341b0 f i Psyeb10Enemy.obj
 0001:000331d0       ?_Getal@?$vector@HV?$allocator@H@std@@@std@@AAEAAV?$allocator@H@2@XZ 004341d0 f i Psyeb10Enemy.obj
 0001:000331f0       ?_Getal@?$vector@HV?$allocator@H@std@@@std@@ABEABV?$allocator@H@2@XZ 004341f0 f i Psyeb10Enemy.obj
 0001:00033210       ?_Getal@?$vector@IV?$allocator@I@std@@@std@@AAEAAV?$allocator@I@2@XZ 00434210 f i Psyeb10Enemy.obj
 0001:00033230       ?_Getal@?$vector@IV?$allocator@I@std@@@std@@ABEABV?$allocator@I@2@XZ 00434230 f i Psyeb10Enemy.obj
 0001:00033250       ?_Getal@?$vector@NV?$allocator@N@std@@@std@@AAEAAV?$allocator@N@2@XZ 00434250 f i Psyeb10Enemy.obj
 0001:00033270       ?_Getal@?$vector@NV?$allocator@N@std@@@std@@ABEABV?$allocator@N@2@XZ 00434270 f i Psyeb10Enemy.obj
 0001:00033290       ?_Getal@?$vector@U?$pair@HH@std@@V?$allocator@U?$pair@HH@std@@@2@@std@@AAEAAV?$allocator@U?$pair@HH@std@@@2@XZ 00434290 f i Psyeb10Enemy.obj
 0001:000332b0       ?_Getal@?$vector@U?$pair@HH@std@@V?$allocator@U?$pair@HH@std@@@2@@std@@ABEABV?$allocator@U?$pair@HH@std@@@2@XZ 004342b0 f i Psyeb10Enemy.obj
 0001:000332d0       ?_Getblock@?$_Deque_val@U?$_Deque_simple_types@U?$pair@HH@std@@@std@@@std@@QBEHI@Z 004342d0 f i Psyeb10Enemy.obj
 0001:00033300       ?_Getblock@?$deque@U?$pair@HH@std@@V?$allocator@U?$pair@HH@std@@@2@@std@@ABEHI@Z 00434300 f i Psyeb10Enemy.obj
 0001:00033330       ?_Getcomp@?$_Tree@V?$_Tset_traits@U?$pair@HH@std@@U?$less@U?$pair@HH@std@@@2@V?$allocator@U?$pair@HH@std@@@2@$0A@@std@@@std@@IBEABU?$less@U?$pair@HH@std@@@2@XZ 00434330 f i Psyeb10Enemy.obj
 0001:00033350       ?_Getptr@?$_Vb_reference@U?$_Wrap_alloc@V?$allocator@I@std@@@std@@@std@@QBEPBIXZ 00434350 f i Psyeb10Enemy.obj
 0001:00033460       ?_Growmap@?$deque@U?$pair@HH@std@@V?$allocator@U?$pair@HH@std@@@2@@std@@AAEXI@Z 00434460 f i Psyeb10Enemy.obj
 0001:000337d0       ?_Insert_node@?$_Tree_val@U?$_Tree_simple_types@U?$pair@HH@std@@@std@@@std@@QAEPAU?$_Tree_node@U?$pair@HH@std@@PAX@2@U?$_Tree_id@PAU?$_Tree_node@U?$pair@HH@std@@PAX@std@@@2@QAU32@@Z 004347d0 f i Psyeb10Enemy.obj
 0001:00033a60       ?_Kfn@?$_Tset_traits@U?$pair@HH@std@@U?$less@U?$pair@HH@std@@@2@V?$allocator@U?$pair@HH@std@@@2@$0A@@std@@SAABU?$pair@HH@2@ABU32@@Z 00434a60 f i Psyeb10Enemy.obj
 0001:00033a70       ?_Lrotate@?$_Tree_val@U?$_Tree_simple_types@U?$pair@HH@std@@@std@@@std@@QAEXPAU?$_Tree_node@U?$pair@HH@std@@PAX@2@@Z 00434a70 f i Psyeb10Enemy.obj
 0001:00033b30       ?_Map@?$deque@U?$pair@HH@std@@V?$allocator@U?$pair@HH@std@@@2@@std@@AAEAAPAPAU?$pair@HH@2@XZ 00434b30 f i Psyeb10Enemy.obj
 0001:00033b50       ?_Map_distance@?$deque@U?$pair@HH@std@@V?$allocator@U?$pair@HH@std@@@2@@std@@ABEHXZ 00434b50 f i Psyeb10Enemy.obj
 0001:00033b70       ?_Mapsize@?$deque@U?$pair@HH@std@@V?$allocator@U?$pair@HH@std@@@2@@std@@AAEAAIXZ 00434b70 f i Psyeb10Enemy.obj
 0001:00033b90       ?_Mask@?$_Vb_reference@U?$_Wrap_alloc@V?$allocator@I@std@@@std@@@std@@IBEIXZ 00434b90 f i Psyeb10Enemy.obj
 0001:00033bb0       ?_Myoff@?$deque@U?$pair@HH@std@@V?$allocator@U?$pair@HH@std@@@2@@std@@AAEAAIXZ 00434bb0 f i Psyeb10Enemy.obj
 0001:00033bd0       ?_Myoff@?$deque@U?$pair@HH@std@@V?$allocator@U?$pair@HH@std@@@2@@std@@ABEABIXZ 00434bd0 f i Psyeb10Enemy.obj
 0001:00033bf0       ?_Mysize@?$deque@U?$pair@HH@std@@V?$allocator@U?$pair@HH@std@@@2@@std@@AAEAAIXZ 00434bf0 f i Psyeb10Enemy.obj
 0001:00033c10       ?_Mysize@?$deque@U?$pair@HH@std@@V?$allocator@U?$pair@HH@std@@@2@@std@@ABEABIXZ 00434c10 f i Psyeb10Enemy.obj
 0001:00033c30       ?_Nw@?$_Vb_val@V?$allocator@_N@std@@@std@@SAII@Z 00434c30 f i Psyeb10Enemy.obj
 0001:00033c50       ?_Orphan_all@?$deque@U?$pair@HH@std@@V?$allocator@U?$pair@HH@std@@@2@@std@@AAEXXZ 00434c50 f i Psyeb10Enemy.obj
 0001:00033c80       ?_Orphan_off@?$deque@U?$pair@HH@std@@V?$allocator@U?$pair@HH@std@@@2@@std@@ABEXI@Z 00434c80 f i Psyeb10Enemy.obj
 0001:00033d80       ?_Orphan_range@?$vector@IV?$allocator@I@std@@@std@@ABEXPAI0@Z 00434d80 f i Psyeb10Enemy.obj
 0001:00033db0       ?_Orphan_range_locked@?$vector@IV?$allocator@I@std@@@std@@ABEXPAI0@Z 00434db0 f i Psyeb10Enemy.obj
 0001:00033e40       ?_Orphan_range_unlocked@?$vector@IV?$allocator@I@std@@@std@@ABEXPAI0@Z 00434e40 f i Psyeb10Enemy.obj
 0001:00033ec0       ?_Release@?$_Alloc_construct_ptr@V?$allocator@U?$_Tree_node@U?$pair@HH@std@@PAX@std@@@std@@@std@@QAEPAU?$_Tree_node@U?$pair@HH@std@@PAX@2@XZ 00434ec0 f i Psyeb10Enemy.obj
 0001:00033ef0       ?_Release@?$_Uninitialized_backout@PAPAU?$pair@HH@std@@@std@@QAEPAPAU?$pair@HH@2@XZ 00434ef0 f i Psyeb10Enemy.obj
 0001:00033f20       ?_Release@?$_Uninitialized_backout_al@V?$allocator@H@std@@@std@@QAEPAHXZ 00434f20 f i Psyeb10Enemy.obj
 0001:00033f50       ?_Release@?$_Uninitialized_backout_al@V?$allocator@I@std@@@std@@QAEPAIXZ 00434f50 f i Psyeb10Enemy.obj
 0001:00033f80       ?_Release@?$_Uninitialized_backout_al@V?$allocator@N@std@@@std@@QAEPANXZ 00434f80 f i Psyeb10Enemy.obj
 0001:00033fb0       ?_Release@?$_Uninitialized_backout_al@V?$allocator@U?$pair@HH@std@@@std@@@std@@QAEPAU?$pair@HH@2@XZ 00434fb0 f i Psyeb10Enemy.obj
 0001:00033fe0       ?_Reset_map@?$deque@U?$pair@HH@std@@V?$allocator@U?$pair@HH@std@@@2@@std@@AAEXXZ 00434fe0 f i Psyeb10Enemy.obj
 0001:000340c0       ?_Rrotate@?$_Tree_val@U?$_Tree_simple_types@U?$pair@HH@std@@@std@@@std@@QAEXPAU?$_Tree_node@U?$pair@HH@std@@PAX@2@@Z 004350c0 f i Psyeb10Enemy.obj
 0001:00034190       ?_Subscript@?$_Deque_val@U?$_Deque_simple_types@U?$pair@HH@std@@@std@@@std@@QAEAAU?$pair@HH@2@I@Z 00435190 f i Psyeb10Enemy.obj
 0001:000341e0       ?_Subscript@?$deque@U?$pair@HH@std@@V?$allocator@U?$pair@HH@std@@@2@@std@@AAEAAU?$pair@HH@2@I@Z 004351e0 f i Psyeb10Enemy.obj
 0001:00034220       ?_Tidy@?$deque@U?$pair@HH@std@@V?$allocator@U?$pair@HH@std@@@2@@std@@AAEXXZ 00435220 f i Psyeb10Enemy.obj
 0001:00034280       ?_Tidy@?$vector@HV?$allocator@H@std@@@std@@AAEXXZ 00435280 f i Psyeb10Enemy.obj
 0001:00034340       ?_Tidy@?$vector@IV?$allocator@I@std@@@std@@AAEXXZ 00435340 f i Psyeb10Enemy.obj
 0001:00034400       ?_Tidy@?$vector@NV?$allocator@N@std@@@std@@AAEXXZ 00435400 f i Psyeb10Enemy.obj
 0001:000344c0       ?_Tidy@?$vector@U?$pair@HH@std@@V?$allocator@U?$pair@HH@std@@@2@@std@@AAEXXZ 004354c0 f i Psyeb10Enemy.obj
 0001:00034580       ?_Total_off@?$_Vb_iter_base@U?$_Wrap_alloc@V?$allocator@I@std@@@std@@@std@@QBEHPBV?$vector@_NV?$allocator@_N@std@@@2@@Z 00435580 f i Psyeb10Enemy.obj
 0001:000345c0       ?_Trim@?$vector@_NV?$allocator@_N@std@@@std@@QAEXI@Z 004355c0 f i Psyeb10Enemy.obj
 0001:00034730       ?_Unchecked_begin@?$vector@U?$pair@HH@std@@V?$allocator@U?$pair@HH@std@@@2@@std@@QAEPAU?$pair@HH@2@XZ 00435730 f i Psyeb10Enemy.obj
 0001:00034750       ?_Unchecked_end@?$vector@U?$pair@HH@std@@V?$allocator@U?$pair@HH@std@@@2@@std@@QAEPAU?$pair@HH@2@XZ 00435750 f i Psyeb10Enemy.obj
 0001:00034770       ?_Verify_offset@?$_Vector_const_iterator@V?$_Vector_val@U?$_Simple_types@I@std@@@std@@@std@@QBEXH@Z 00435770 f i Psyeb10Enemy.obj
 0001:00034970       ?_Xlen@?$deque@U?$pair@HH@std@@V?$allocator@U?$pair@HH@std@@@2@@std@@CAXXZ 00435970 f i Psyeb10Enemy.obj
 0001:00034990       ?_Xlen@?$vector@_NV?$allocator@_N@std@@@std@@SAXXZ 00435990 f i Psyeb10Enemy.obj
 0001:000349b0       ?_Xlength@?$vector@HV?$allocator@H@std@@@std@@CAXXZ 004359b0 f i Psyeb10Enemy.obj
 0001:000349d0       ?_Xlength@?$vector@IV?$allocator@I@std@@@std@@CAXXZ 004359d0 f i Psyeb10Enemy.obj
 0001:000349f0       ?_Xlength@?$vector@NV?$allocator@N@std@@@std@@CAXXZ 004359f0 f i Psyeb10Enemy.obj
 0001:00034a10       ?_Xlength@?$vector@U?$pair@HH@std@@V?$allocator@U?$pair@HH@std@@@2@@std@@CAXXZ 00435a10 f i Psyeb10Enemy.obj
 0001:00034a30       ?allocate@?$allocator@H@std@@QAEPAHI@Z 00435a30 f i Psyeb10Enemy.obj
 0001:00034a60       ?allocate@?$allocator@I@std@@QAEPAII@Z 00435a60 f i Psyeb10Enemy.obj
 0001:00034a90       ?allocate@?$allocator@N@std@@QAEPANI@Z 00435a90 f i Psyeb10Enemy.obj
 0001:00034ac0       ?allocate@?$allocator@PAU?$pair@HH@std@@@std@@QAEPAPAU?$pair@HH@2@I@Z 00435ac0 f i Psyeb10Enemy.obj
 0001:00034af0       ?allocate@?$allocator@U?$_Tree_node@U?$pair@HH@std@@PAX@std@@@std@@QAEPAU?$_Tree_node@U?$pair@HH@std@@PAX@2@I@Z 00435af0 f i Psyeb10Enemy.obj
 0001:00034b20       ?allocate@?$allocator@U?$pair@HH@std@@@std@@QAEPAU?$pair@HH@2@I@Z 00435b20 f i Psyeb10Enemy.obj
 0001:00034b50       ?begin@?$initializer_list@U?$pair@HH@std@@@std@@QBEPBU?$pair@HH@2@XZ 00435b50 f i Psyeb10Enemy.obj
 0001:00034b70       ?begin@?$vector@IV?$allocator@I@std@@@std@@QAE?AV?$_Vector_iterator@V?$_Vector_val@U?$_Simple_types@I@std@@@std@@@2@XZ 00435b70 f i Psyeb10Enemy.obj
 0001:00034bc0       ?begin@?$vector@_NV?$allocator@_N@std@@@std@@QAE?AV?$_Vb_iterator@U?$_Wrap_alloc@V?$allocator@I@std@@@std@@@2@XZ 00435bc0 f i Psyeb10Enemy.obj
 0001:00034c00       ?data@?$vector@IV?$allocator@I@std@@@std@@QAEPAIXZ 00435c00 f i Psyeb10Enemy.obj
 0001:00034c20       ?data@?$vector@IV?$allocator@I@std@@@std@@QBEPBIXZ 00435c20 f i Psyeb10Enemy.obj
 0001:00034c40       ?deallocate@?$_Default_allocator_traits@V?$allocator@U?$_Tree_node@U?$pair@HH@std@@PAX@std@@@std@@@std@@SAXAAV?$allocator@U?$_Tree_node@U?$pair@HH@std@@PAX@std@@@2@QAU?$_Tree_node@U?$pair@HH@std@@PAX@2@I@Z 00435c40 f i Psyeb10Enemy.obj
 0001:00034c60       ?deallocate@?$allocator@H@std@@QAEXQAHI@Z 00435c60 f i Psyeb10Enemy.obj
 0001:00034d00       ?deallocate@?$allocator@I@std@@QAEXQAII@Z 00435d00 f i Psyeb10Enemy.obj
 0001:00034da0       ?deallocate@?$allocator@N@std@@QAEXQANI@Z 00435da0 f i Psyeb10Enemy.obj
 0001:00034e40       ?deallocate@?$allocator@PAU?$pair@HH@std@@@std@@QAEXQAPAU?$pair@HH@2@I@Z 00435e40 f i Psyeb10Enemy.obj
 0001:00034ee0       ?deallocate@?$allocator@U?$_Tree_node@U?$pair@HH@std@@PAX@std@@@std@@QAEXQAU?$_Tree_node@U?$pair@HH@std@@PAX@2@I@Z 00435ee0 f i Psyeb10Enemy.obj
 0001:00034f80       ?deallocate@?$allocator@U?$pair@HH@std@@@std@@QAEXQAU?$pair@HH@2@I@Z 00435f80 f i Psyeb10Enemy.obj
 0001:00035020       ?empty@?$deque@U?$pair@HH@std@@V?$allocator@U?$pair@HH@std@@@2@@std@@QBE_NXZ 00436020 f i Psyeb10Enemy.obj
 0001:00035060       ?empty@?$queue@U?$pair@HH@std@@V?$deque@U?$pair@HH@std@@V?$allocator@U?$pair@HH@std@@@2@@2@@std@@QBE_NXZ 00436060 f i Psyeb10Enemy.obj
 0001:00035080       ?end@?$_Tree@V?$_Tset_traits@U?$pair@HH@std@@U?$less@U?$pair@HH@std@@@2@V?$allocator@U?$pair@HH@std@@@2@$0A@@std@@@std@@QAE?AV?$_Tree_const_iterator@V?$_Tree_val@U?$_Tree_simple_types@U?$pair@HH@std@@@std@@@std@@@2@XZ 00436080 f i Psyeb10Enemy.obj
 0001:000350c0       ?end@?$initializer_list@U?$pair@HH@std@@@std@@QBEPBU?$pair@HH@2@XZ 004360c0 f i Psyeb10Enemy.obj
 0001:000350e0       ?end@?$vector@IV?$allocator@I@std@@@std@@QAE?AV?$_Vector_iterator@V?$_Vector_val@U?$_Simple_types@I@std@@@std@@@2@XZ 004360e0 f i Psyeb10Enemy.obj
 0001:00035130       ?erase@?$vector@IV?$allocator@I@std@@@std@@QAE?AV?$_Vector_iterator@V?$_Vector_val@U?$_Simple_types@I@std@@@std@@@2@V?$_Vector_const_iterator@V?$_Vector_val@U?$_Simple_types@I@std@@@std@@@2@0@Z 00436130 f i Psyeb10Enemy.obj
 0001:00035320       ?find@?$_Tree@V?$_Tset_traits@U?$pair@HH@std@@U?$less@U?$pair@HH@std@@@2@V?$allocator@U?$pair@HH@std@@@2@$0A@@std@@@std@@QAE?AV?$_Tree_const_iterator@V?$_Tree_val@U?$_Tree_simple_types@U?$pair@HH@std@@@std@@@std@@@2@ABU?$pair@HH@2@@Z 00436320 f i Psyeb10Enemy.obj
 0001:00035370       ?front@?$deque@U?$pair@HH@std@@V?$allocator@U?$pair@HH@std@@@2@@std@@QAEAAU?$pair@HH@2@XZ 00436370 f i Psyeb10Enemy.obj
 0001:00035410       ?front@?$queue@U?$pair@HH@std@@V?$deque@U?$pair@HH@std@@V?$allocator@U?$pair@HH@std@@@2@@2@@std@@QAEAAU?$pair@HH@2@XZ 00436410 f i Psyeb10Enemy.obj
 0001:00035430       ?max_size@?$_Default_allocator_traits@V?$allocator@H@std@@@std@@SAIABV?$allocator@H@2@@Z 00436430 f i Psyeb10Enemy.obj
 0001:00035440       ?max_size@?$_Default_allocator_traits@V?$allocator@I@std@@@std@@SAIABV?$allocator@I@2@@Z 00436440 f i Psyeb10Enemy.obj
 0001:00035450       ?max_size@?$_Default_allocator_traits@V?$allocator@N@std@@@std@@SAIABV?$allocator@N@2@@Z 00436450 f i Psyeb10Enemy.obj
 0001:00035460       ?max_size@?$_Default_allocator_traits@V?$allocator@U?$_Tree_node@U?$pair@HH@std@@PAX@std@@@std@@@std@@SAIABV?$allocator@U?$_Tree_node@U?$pair@HH@std@@PAX@std@@@2@@Z 00436460 f i Psyeb10Enemy.obj
 0001:00035470       ?max_size@?$_Default_allocator_traits@V?$allocator@U?$pair@HH@std@@@std@@@std@@SAIABV?$allocator@U?$pair@HH@std@@@2@@Z 00436470 f i Psyeb10Enemy.obj
 0001:00035480       ?max_size@?$_Tree@V?$_Tset_traits@U?$pair@HH@std@@U?$less@U?$pair@HH@std@@@2@V?$allocator@U?$pair@HH@std@@@2@$0A@@std@@@std@@QBEIXZ 00436480 f i Psyeb10Enemy.obj
 0001:000354d0       ?max_size@?$deque@U?$pair@HH@std@@V?$allocator@U?$pair@HH@std@@@2@@std@@QBEIXZ 004364d0 f i Psyeb10Enemy.obj
 0001:00035520       ?max_size@?$vector@HV?$allocator@H@std@@@std@@QBEIXZ 00436520 f i Psyeb10Enemy.obj
 0001:00035570       ?max_size@?$vector@IV?$allocator@I@std@@@std@@QBEIXZ 00436570 f i Psyeb10Enemy.obj
 0001:000355c0       ?max_size@?$vector@NV?$allocator@N@std@@@std@@QBEIXZ 004365c0 f i Psyeb10Enemy.obj
 0001:00035610       ?max_size@?$vector@U?$pair@HH@std@@V?$allocator@U?$pair@HH@std@@@2@@std@@QBEIXZ 00436610 f i Psyeb10Enemy.obj
 0001:00035660       ?max_size@?$vector@_NV?$allocator@_N@std@@@std@@QBEIXZ 00436660 f i Psyeb10Enemy.obj
 0001:000356b0       ?pop@?$queue@U?$pair@HH@std@@V?$deque@U?$pair@HH@std@@V?$allocator@U?$pair@HH@std@@@2@@2@@std@@QAEXXZ 004366b0 f i Psyeb10Enemy.obj
 0001:000356d0       ?pop_back@?$deque@U?$pair@HH@std@@V?$allocator@U?$pair@HH@std@@@2@@std@@QAEXXZ 004366d0 f i Psyeb10Enemy.obj
 0001:00035830       ?pop_front@?$deque@U?$pair@HH@std@@V?$allocator@U?$pair@HH@std@@@2@@std@@QAEXXZ 00436830 f i Psyeb10Enemy.obj
 0001:000359a0       ?push@?$queue@U?$pair@HH@std@@V?$deque@U?$pair@HH@std@@V?$allocator@U?$pair@HH@std@@@2@@2@@std@@QAEX$$QAU?$pair@HH@2@@Z 004369a0 f i Psyeb10Enemy.obj
 0001:000359d0       ?push_back@?$deque@U?$pair@HH@std@@V?$allocator@U?$pair@HH@std@@@2@@std@@QAEX$$QAU?$pair@HH@2@@Z 004369d0 f i Psyeb10Enemy.obj
 0001:00035a10       ?size@?$initializer_list@U?$pair@HH@std@@@std@@QBEIXZ 00436a10 f i Psyeb10Enemy.obj
 0001:00035a30       ?size@?$vector@IV?$allocator@I@std@@@std@@QBEIXZ 00436a30 f i Psyeb10Enemy.obj
 0001:00035a60       ??0Psyeb10Engine@@QAE@XZ   00436a60 f   Psyeb10Engine.obj
 0001:00035b30       ?virtSetupBackgroundBuffer@Psyeb10Engine@@UAEXXZ 00436b30 f   Psyeb10Engine.obj
 0001:00035b60       ?virtDrawStringsOnTop@Psyeb10Engine@@UAEXXZ 00436b60 f   Psyeb10Engine.obj
 0001:00035b90       ?virtInitialiseObjects@Psyeb10Engine@@UAEHXZ 00436b90 f   Psyeb10Engine.obj
 0001:00035bc0       ?virtMouseDown@Psyeb10Engine@@UAEXHHH@Z 00436bc0 f   Psyeb10Engine.obj
 0001:00035c00       ?resetGame@Psyeb10Engine@@QAEXXZ 00436c00 f   Psyeb10Engine.obj
 0001:00035c30       ?virtMainLoopDoBeforeUpdate@Psyeb10Engine@@UAEXXZ 00436c30 f   Psyeb10Engine.obj
 0001:00035c60       ?virtCleanUp@Psyeb10Engine@@UAEXXZ 00436c60 f   Psyeb10Engine.obj
 0001:00035ce0       ?setState@Psyeb10Engine@@QAEXPAVPsyeb10States@@_N1@Z 00436ce0 f   Psyeb10Engine.obj
 0001:00035de0       ?setState@Psyeb10Engine@@QAEXXZ 00436de0 f   Psyeb10Engine.obj
 0001:00035e80       ?getTileManager@Psyeb10Engine@@QAEPAVPsyeb10TileManager@@XZ 00436e80 f   Psyeb10Engine.obj
 0001:00035ec0       ?getState@Psyeb10Engine@@QAEPAVPsyeb10States@@H@Z 00436ec0 f   Psyeb10Engine.obj
 0001:00035f00       ?copyAllBackgroundBuffer@Psyeb10Engine@@UAEXXZ 00436f00 f   Psyeb10Engine.obj
 0001:00035f30       ?virtKeyDown@Psyeb10Engine@@UAEXH@Z 00436f30 f   Psyeb10Engine.obj
 0001:00035f60       ?setBackgroundSurface@Psyeb10Engine@@QAEXPAVDrawingSurface@@@Z 00436f60 f   Psyeb10Engine.obj
 0001:00035f80       ?virtKeyUp@Psyeb10Engine@@UAEXH@Z 00436f80 f   Psyeb10Engine.obj
 0001:000360f0       ??0mainMenuState@@QAE@PAVPsyeb10Engine@@@Z 004370f0 f i Psyeb10Engine.obj
 0001:000361b0       ??_EPsyeb10Engine@@UAEPAXI@Z 004371b0 f i Psyeb10Engine.obj
 0001:000361b0       ??_GPsyeb10Engine@@UAEPAXI@Z 004371b0 f i Psyeb10Engine.obj
 0001:000361f0       ?clear@?$vector@PAVDisplayableObject@@V?$allocator@PAVDisplayableObject@@@std@@@std@@QAEXXZ 004371f0 f i Psyeb10Engine.obj
 0001:00036270       ?clearContents@DisplayableObjectContainer@@QAEXXZ 00437270 f i Psyeb10Engine.obj
 0001:000362b0       ?enter@Psyeb10States@@UAEXXZ 004372b0 f   Psyeb10States.obj
 0001:000362c0       ?reEntry@Psyeb10States@@UAEXXZ 004372c0 f   Psyeb10States.obj
 0001:000362d0       ?foreGroundStrings@Psyeb10States@@UAEXXZ 004372d0 f   Psyeb10States.obj
 0001:000362e0       ?initObjects@Psyeb10States@@UAEXXZ 004372e0 f   Psyeb10States.obj
 0001:000362f0       ?reset@Psyeb10States@@UAEXXZ 004372f0 f   Psyeb10States.obj
 0001:00036300       ?mouseDown@Psyeb10States@@UAEXHHH@Z 00437300 f   Psyeb10States.obj
 0001:00036310       ?mainLoopPreUpdate@Psyeb10States@@UAEXXZ 00437310 f   Psyeb10States.obj
 0001:00036320       ?keyPressed@Psyeb10States@@UAEXH@Z 00437320 f   Psyeb10States.obj
 0001:00036330       ?getTileManager@Psyeb10States@@QAEPAVPsyeb10TileManager@@XZ 00437330 f   Psyeb10States.obj
 0001:00036350       ?keyUp@Psyeb10States@@UAEXH@Z 00437350 f   Psyeb10States.obj
 0001:00036360       ?copyAllBackgroundBuffer@Psyeb10States@@UAEXXZ 00437360 f   Psyeb10States.obj
 0001:000363c0       ?virtDrawTileAt@Psyeb10TileManager@@UBEXPAVBaseEngine@@PAVDrawingSurface@@HHHH@Z 004373c0 f   Psyeb10TileManager.obj
 0001:00036460       ?enter@scoreBoardState@@UAEXXZ 00437460 f   scoreBoardState.obj
 0001:000365a0       ?foreGroundStrings@scoreBoardState@@UAEXXZ 004375a0 f   scoreBoardState.obj
 0001:00036600       ?keyPressed@scoreBoardState@@UAEXH@Z 00437600 f   scoreBoardState.obj
 0001:00036750       ?drawBackgroundLine@BaseEngine@@QAEXHHHHI@Z 00437750 f i scoreBoardState.obj
 0001:000367c0       ?length@?$basic_string@DU?$char_traits@D@std@@V?$allocator@D@2@@std@@QBEIXZ 004377c0 f i scoreBoardState.obj
 0001:000367e0       ?pop_back@?$basic_string@DU?$char_traits@D@std@@V?$allocator@D@2@@std@@QAEXXZ 004377e0 f i scoreBoardState.obj
 0001:00036880       ?scroll@scoreBoardFilterPoints@@QAEXNN@Z 00437880 f i scoreBoardState.obj
 0001:000368d0       ?setZoom@scoreBoardFilterPoints@@QAEXN@Z 004378d0 f i scoreBoardState.obj
 0001:000368f0       ?mapCoordinates@CroppedImagePixelMapping@@UAE_NAAN0ABVSimpleImage@@@Z 004378f0 f i SimpleImage.obj
 0001:00036990       ??0SimpleImage@@QAE@XZ     00437990 f   SimpleImage.obj
 0001:000369c0       ??0SimpleImage@@QAE@V?$shared_ptr@VRawImageData@@@std@@@Z 004379c0 f   SimpleImage.obj
 0001:00036a00       ?exists@SimpleImage@@QBE_NXZ 00437a00 f   SimpleImage.obj
 0001:00036a20       ?renderImage@SimpleImage@@QBEXPAVDrawingSurface@@HHHHHH@Z 00437a20 f   SimpleImage.obj
 0001:00036b30       ?renderImageWithMask@SimpleImage@@QBEXPAVDrawingSurface@@HHHHHHH@Z 00437b30 f   SimpleImage.obj
 0001:00036c70       ?renderImageWithMaskAndTransparency@SimpleImage@@QBEXPAVDrawingSurface@@HHHHHHHH@Z 00437c70 f   SimpleImage.obj
 0001:00036e40       ?renderImageBlit@SimpleImage@@QAEXPAVBaseEngine@@PAVDrawingSurface@@HHHHHHHH@Z 00437e40 f   SimpleImage.obj
 0001:000370f0       ?adjustXYWidthHeight@SimpleImage@@SA_NPAVDrawingSurface@@AAH11111@Z 004380f0 f   SimpleImage.obj
 0001:000372f0       ?renderImageApplyingMapping@SimpleImage@@QBEXPAVBaseEngine@@PAVDrawingSurface@@HHHHPAVImagePixelMapping@@@Z 004382f0 f   SimpleImage.obj
 0001:00037900       ??BDrawingSurface@@QAEPAUSDL_Surface@@XZ 00438900 f i SimpleImage.obj
 0001:00037920       ?convertClickedToVirtualPixelXPosition@BaseEngine@@QAEHH@Z 00438920 f i SimpleImage.obj
 0001:00037950       ?convertClickedToVirtualPixelYPosition@BaseEngine@@QAEHH@Z 00438950 f i SimpleImage.obj
 0001:00037980       ?getSurface@RawImageData@@QAEPAUSDL_Surface@@XZ 00438980 f i SimpleImage.obj
 0001:000379a0       ?rawGetPixel@DrawingSurface@@QBEIHH@Z 004389a0 f i SimpleImage.obj
 0001:00037a10       ?virtSetupBackgroundBuffer@SimpleDemo@@UAEXXZ 00438a10 f   SimpleDemo.obj
 0001:00037b50       ?virtInitialiseObjects@SimpleDemo@@UAEHXZ 00438b50 f   SimpleDemo.obj
 0001:00037ce0       ?virtDrawStringsUnderneath@SimpleDemo@@UAEXXZ 00438ce0 f   SimpleDemo.obj
 0001:00037d60       ?virtDrawStringsOnTop@SimpleDemo@@UAEXXZ 00438d60 f   SimpleDemo.obj
 0001:00037e20       ?virtMouseDown@SimpleDemo@@UAEXHHH@Z 00438e20 f   SimpleDemo.obj
 0001:00037e40       ?virtKeyDown@SimpleDemo@@UAEXH@Z 00438e40 f   SimpleDemo.obj
 0001:00037fc0       ??0BouncingObject@@QAE@PAVBaseEngine@@HHNNNN@Z 00438fc0 f i SimpleDemo.obj
 0001:00038090       ??1BouncingObject@@UAE@XZ  00439090 f i SimpleDemo.obj
 0001:000380b0       ??_EBouncingObject@@UAEPAXI@Z 004390b0 f i SimpleDemo.obj
 0001:000380b0       ??_GBouncingObject@@UAEPAXI@Z 004390b0 f i SimpleDemo.obj
 0001:000380f0       ?isPaused@BaseEngine@@QAE_NXZ 004390f0 f i SimpleDemo.obj
 0001:00038130       ?lockAndSetupBackground@BaseEngine@@QAEXXZ 00439130 f i SimpleDemo.obj
 0001:00038170       ?virtDoUpdate@BouncingObject@@UAEXH@Z 00439170 f i SimpleDemo.obj
 0001:00038570       ?virtDraw@BouncingObject@@UAEXXZ 00439570 f i SimpleDemo.obj
 0001:00038610       ??0StarfieldDemo@@QAE@XZ   00439610 f   StarfieldDemo.obj
 0001:00038650       ??1StarfieldDemo@@UAE@XZ   00439650 f   StarfieldDemo.obj
 0001:00038680       ?virtSetupBackgroundBuffer@StarfieldDemo@@UAEXXZ 00439680 f   StarfieldDemo.obj
 0001:000387c0       ?virtMainLoopDoBeforeUpdate@StarfieldDemo@@UAEXXZ 004397c0 f   StarfieldDemo.obj
 0001:00038800       ?copyAllBackgroundBuffer@StarfieldDemo@@UAEXXZ 00439800 f   StarfieldDemo.obj
 0001:00038940       ??_EStarfieldDemo@@UAEPAXI@Z 00439940 f i StarfieldDemo.obj
 0001:00038940       ??_GStarfieldDemo@@UAEPAXI@Z 00439940 f i StarfieldDemo.obj
 0001:00038980       ?drawAllTiles@TileManager@@QBEXPAVBaseEngine@@PAVDrawingSurface@@@Z 00439980 f   TileManager.obj
 0001:00038a30       ?drawSomeTiles@TileManager@@QBEXPAVBaseEngine@@PAVDrawingSurface@@HHHH@Z 00439a30 f   TileManager.obj
 0001:00038ae0       ?virtDrawTileAt@TileManager@@UBEXPAVBaseEngine@@PAVDrawingSurface@@HHHH@Z 00439ae0 f   TileManager.obj
 0001:00038bd0       ??0BouncingBall@@QAE@PAVBouncingBallMain@@HHHHPBDHH@Z 00439bd0 f   BouncingBall.obj
 0001:00038ca0       ??1BouncingBall@@UAE@XZ    00439ca0 f   BouncingBall.obj
 0001:00038cc0       ?virtDraw@BouncingBall@@UAEXXZ 00439cc0 f   BouncingBall.obj
 0001:00038f90       ?virtDoUpdate@BouncingBall@@UAEXH@Z 00439f90 f   BouncingBall.obj
 0001:00038fb0       ??0BouncingBall1@@QAE@PAVBouncingBallMain@@HHHHPBDHHPAVTileManager@@@Z 00439fb0 f   BouncingBall.obj
 0001:00039050       ?setMovement@BouncingBall1@@QAEXHHHHHHH@Z 0043a050 f   BouncingBall.obj
 0001:000390c0       ?virtDoUpdate@BouncingBall1@@UAEXH@Z 0043a0c0 f   BouncingBall.obj
 0001:00039240       ??0BouncingBall2@@QAE@PAVBouncingBallMain@@HHHHPBDHH@Z 0043a240 f   BouncingBall.obj
 0001:000392c0       ?setPosition@BouncingBall2@@QAEXNN@Z 0043a2c0 f   BouncingBall.obj
 0001:000392f0       ?setSpeed@BouncingBall2@@QAEXNN@Z 0043a2f0 f   BouncingBall.obj
 0001:00039320       ?virtDoUpdate@BouncingBall2@@UAEXH@Z 0043a320 f   BouncingBall.obj
 0001:00039910       ??0MovementPosition@@QAE@XZ 0043a910 f i BouncingBall.obj
 0001:00039990       ??1BouncingBall1@@UAE@XZ   0043a990 f i BouncingBall.obj
 0001:000399b0       ??1BouncingBall2@@UAE@XZ   0043a9b0 f i BouncingBall.obj
 0001:000399d0       ??_EBouncingBall1@@UAEPAXI@Z 0043a9d0 f i BouncingBall.obj
 0001:000399d0       ??_GBouncingBall1@@UAEPAXI@Z 0043a9d0 f i BouncingBall.obj
 0001:00039a10       ??_EBouncingBall2@@UAEPAXI@Z 0043aa10 f i BouncingBall.obj
 0001:00039a10       ??_GBouncingBall2@@UAEPAXI@Z 0043aa10 f i BouncingBall.obj
 0001:00039a50       ??_EBouncingBall@@UAEPAXI@Z 0043aa50 f i BouncingBall.obj
 0001:00039a50       ??_GBouncingBall@@UAEPAXI@Z 0043aa50 f i BouncingBall.obj
 0001:00039a90       ?calculate@MovementPosition@@QAEXH@Z 0043aa90 f i BouncingBall.obj
 0001:00039b80       ?getX@MovementPosition@@QBEHXZ 0043ab80 f i BouncingBall.obj
 0001:00039ba0       ?getY@MovementPosition@@QBEHXZ 0043aba0 f i BouncingBall.obj
 0001:00039bc0       ?hasMovementFinished@MovementPosition@@QBE_NH@Z 0043abc0 f i BouncingBall.obj
 0001:00039c00       ?reverse@MovementPosition@@QAEXXZ 0043ac00 f i BouncingBall.obj
 0001:00039c90       ?setup@MovementPosition@@QAEXHHHHHH@Z 0043ac90 f i BouncingBall.obj
 0001:00039d00       ?virtMouseDown@BouncingBall@@UAEXHHH@Z 0043ad00 f i BouncingBall.obj
 0001:00039d40       ?virtSetupBackgroundBuffer@BouncingBallMain@@UAEXXZ 0043ad40 f   BouncingBallMain.obj
 0001:0003a580       ?virtInitialiseObjects@BouncingBallMain@@UAEHXZ 0043b580 f   BouncingBallMain.obj
 0001:0003a850       ?virtDrawStringsUnderneath@BouncingBallMain@@UAEXXZ 0043b850 f   BouncingBallMain.obj
 0001:0003a890       ?virtMouseDown@BouncingBallMain@@UAEXHHH@Z 0043b890 f   BouncingBallMain.obj
 0001:0003a8d0       ?virtKeyDown@BouncingBallMain@@UAEXH@Z 0043b8d0 f   BouncingBallMain.obj
 0001:0003abf0       ?drawBackgroundPolygon@BaseEngine@@QAEXNNNNNNNNI@Z 0043bbf0 f i BouncingBallMain.obj
 0001:0003acb0       ?drawBackgroundPolygon@BaseEngine@@QAEXNNNNNNNNNNI@Z 0043bcb0 f i BouncingBallMain.obj
 0001:0003ad80       ?drawBackgroundPolygon@BaseEngine@@QAEXNNNNNNNNNNNNI@Z 0043bd80 f i BouncingBallMain.obj
 0001:0003ae70       ?drawBackgroundPolygon@BaseEngine@@QAEXNNNNNNNNNNNNNNI@Z 0043be70 f i BouncingBallMain.obj
 0001:0003af70       ?drawBackgroundPolygon@BaseEngine@@QAEXNNNNNNNNNNNNNNNNI@Z 0043bf70 f i BouncingBallMain.obj
 0001:0003b0b0       ?drawBackgroundTriangle@BaseEngine@@QAEXHHHHHHI@Z 0043c0b0 f i BouncingBallMain.obj
 0001:0003b140       ?drawBackgroundVerticalSidedRegion@BaseEngine@@QAEXNNNNNNI@Z 0043c140 f i BouncingBallMain.obj
 0001:0003b1d0       ?getFont@BaseEngine@@QAEPAVFont@@PBDH@Z 0043c1d0 f i BouncingBallMain.obj
 0001:0003b200       ?virtInitialise@ZoomingDemo@@UAEHXZ 0043c200 f   ZoomingDemo.obj
 0001:0003b250       ?virtSetupBackgroundBuffer@ZoomingDemo@@UAEXXZ 0043c250 f   ZoomingDemo.obj
 0001:0003b270       ?virtInitialiseObjects@ZoomingDemo@@UAEHXZ 0043c270 f   ZoomingDemo.obj
 0001:0003b430       ?virtDrawStringsUnderneath@ZoomingDemo@@UAEXXZ 0043c430 f   ZoomingDemo.obj
 0001:0003b4f0       ?virtDrawStringsOnTop@ZoomingDemo@@UAEXXZ 0043c4f0 f   ZoomingDemo.obj
 0001:0003b580       ?virtMouseDown@ZoomingDemo@@UAEXHHH@Z 0043c580 f   ZoomingDemo.obj
 0001:0003b5d0       ?virtKeyDown@ZoomingDemo@@UAEXH@Z 0043c5d0 f   ZoomingDemo.obj
 0001:0003b6d0       ?virtMouseWheel@ZoomingDemo@@UAEXHHHH@Z 0043c6d0 f   ZoomingDemo.obj
 0001:0003b8e0       ??0SimpleFlashingDragableImageObject@@QAE@HHPAVBaseEngine@@V?$basic_string@DU?$char_traits@D@std@@V?$allocator@D@2@@std@@1_N2@Z 0043c8e0 f i ZoomingDemo.obj
 0001:0003baf0       ??1SimpleFlashingDragableImageObject@@UAE@XZ 0043caf0 f i ZoomingDemo.obj
 0001:0003bb30       ??_ESimpleFlashingDragableImageObject@@UAEPAXI@Z 0043cb30 f i ZoomingDemo.obj
 0001:0003bb30       ??_GSimpleFlashingDragableImageObject@@UAEPAXI@Z 0043cb30 f i ZoomingDemo.obj
 0001:0003bb70       ?changeOffset@FilterPointsTranslation@@QAEXHH@Z 0043cb70 f i ZoomingDemo.obj
 0001:0003bbb0       ?compress@FilterPointsScaling@@QAEXXZ 0043cbb0 f i ZoomingDemo.obj
 0001:0003bbe0       ?compressX@FilterPointsScaling@@QAEXXZ 0043cbe0 f i ZoomingDemo.obj
 0001:0003bc30       ?compressY@FilterPointsScaling@@QAEXXZ 0043cc30 f i ZoomingDemo.obj
 0001:0003bc80       ?setOffset@FilterPointsTranslation@@QAEXHH@Z 0043cc80 f i ZoomingDemo.obj
 0001:0003bcb0       ?stretch@FilterPointsScaling@@QAEXXZ 0043ccb0 f i ZoomingDemo.obj
 0001:0003bce0       ?stretchX@FilterPointsScaling@@QAEXXZ 0043cce0 f i ZoomingDemo.obj
 0001:0003bd30       ?stretchY@FilterPointsScaling@@QAEXXZ 0043cd30 f i ZoomingDemo.obj
 0001:0003bd80       ?virtDoUpdate@SimpleFlashingDragableImageObject@@UAEXH@Z 0043cd80 f i ZoomingDemo.obj
 0001:0003bde0       ?virtDraw@SimpleFlashingDragableImageObject@@UAEXXZ 0043cde0 f i ZoomingDemo.obj
 0001:0003bee0       ?virtMouseDown@SimpleFlashingDragableImageObject@@UAEXHHH@Z 0043cee0 f i ZoomingDemo.obj
 0001:0003bf50       ?virtMouseMoved@SimpleFlashingDragableImageObject@@UAEXHH@Z 0043cf50 f i ZoomingDemo.obj
 0001:0003bfb0       ?virtMouseUp@SimpleFlashingDragableImageObject@@UAEXHHH@Z 0043cfb0 f i ZoomingDemo.obj
 0001:0003bfd0       ??0MazeDemoMain@@QAE@XZ    0043cfd0 f   MazeDemoMain.obj
 0001:0003c050       ??1MazeDemoMain@@UAE@XZ    0043d050 f   MazeDemoMain.obj
 0001:0003c090       ?virtSetupBackgroundBuffer@MazeDemoMain@@UAEXXZ 0043d090 f   MazeDemoMain.obj
 0001:0003c290       ?virtInitialiseObjects@MazeDemoMain@@UAEHXZ 0043d290 f   MazeDemoMain.obj
 0001:0003c490       ?virtDrawStringsUnderneath@MazeDemoMain@@UAEXXZ 0043d490 f   MazeDemoMain.obj
 0001:0003c520       ?virtMouseDown@MazeDemoMain@@UAEXHHH@Z 0043d520 f   MazeDemoMain.obj
 0001:0003c530       ?virtKeyDown@MazeDemoMain@@UAEXH@Z 0043d530 f   MazeDemoMain.obj
 0001:0003c790       ??0MazeDemoTileManager@@QAE@XZ 0043d790 f i MazeDemoMain.obj
 0001:0003c7c0       ??0TileManager@@QAE@HH@Z   0043d7c0 f i MazeDemoMain.obj
 0001:0003c840       ??1MazeDemoTileManager@@UAE@XZ 0043d840 f i MazeDemoMain.obj
 0001:0003c870       ??_EMazeDemoMain@@UAEPAXI@Z 0043d870 f i MazeDemoMain.obj
 0001:0003c870       ??_GMazeDemoMain@@UAEPAXI@Z 0043d870 f i MazeDemoMain.obj
 0001:0003c8b0       ??_EMazeDemoTileManager@@UAEPAXI@Z 0043d8b0 f i MazeDemoMain.obj
 0001:0003c8b0       ??_GMazeDemoTileManager@@UAEPAXI@Z 0043d8b0 f i MazeDemoMain.obj
 0001:0003c8f0       ??0MazeDemoObject@@QAE@PAVMazeDemoMain@@HH@Z 0043d8f0 f   MazeDemoObject.obj
 0001:0003c9d0       ??1MazeDemoObject@@UAE@XZ  0043d9d0 f   MazeDemoObject.obj
 0001:0003c9f0       ?virtDraw@MazeDemoObject@@UAEXXZ 0043d9f0 f   MazeDemoObject.obj
 0001:0003caa0       ?virtDoUpdate@MazeDemoObject@@UAEXH@Z 0043daa0 f   MazeDemoObject.obj
 0001:0003d150       ??_EMazeDemoObject@@UAEPAXI@Z 0043e150 f i MazeDemoObject.obj
 0001:0003d150       ??_GMazeDemoObject@@UAEPAXI@Z 0043e150 f i MazeDemoObject.obj
 0001:0003d190       ?GetTileManager@MazeDemoMain@@QAEAAVMazeDemoTileManager@@XZ 0043e190 f i MazeDemoObject.obj
 0001:0003d1b0       ?checkCircles@CollisionDetection@@SA_NHHHHH@Z 0043e1b0 f i MazeDemoObject.obj
 0001:0003d210       ?drawForegroundOval@BaseEngine@@QAEXHHHHI@Z 0043e210 f i MazeDemoObject.obj
 0001:0003d250       ?getXDiffForDirection@MazeDemoObject@@QAEHH@Z 0043e250 f i MazeDemoObject.obj
 0001:0003d2c0       ?getYDiffForDirection@MazeDemoObject@@QAEHH@Z 0043e2c0 f i MazeDemoObject.obj
 0001:0003d330       ?virtDrawTileAt@MazeDemoTileManager@@UBEXPAVBaseEngine@@PAVDrawingSurface@@HHHH@Z 0043e330 f   MazeDemoTileManager.obj
 0001:0003d515       _SDL_CreateRGBSurface      0043e515 f   SDL2:SDL2.dll
 0001:0003d51b       _SDL_FreeSurface           0043e51b f   SDL2:SDL2.dll
 0001:0003d521       _SDL_UpperBlit             0043e521 f   SDL2:SDL2.dll
 0001:0003d527       _SDL_LockSurface           0043e527 f   SDL2:SDL2.dll
 0001:0003d52d       _SDL_UnlockSurface         0043e52d f   SDL2:SDL2.dll
 0001:0003d533       _SDL_FillRect              0043e533 f   SDL2:SDL2.dll
 0001:0003d539       _SDL_GetError              0043e539 f   SDL2:SDL2.dll
 0001:0003d53f       _SDL_CreateWindow          0043e53f f   SDL2:SDL2.dll
 0001:0003d545       _SDL_DestroyWindow         0043e545 f   SDL2:SDL2.dll
 0001:0003d54b       _SDL_PollEvent             0043e54b f   SDL2:SDL2.dll
 0001:0003d551       _SDL_WaitEvent             0043e551 f   SDL2:SDL2.dll
 0001:0003d557       _SDL_CreateRenderer        0043e557 f   SDL2:SDL2.dll
 0001:0003d55d       _SDL_CreateTexture         0043e55d f   SDL2:SDL2.dll
 0001:0003d563       _SDL_UpdateTexture         0043e563 f   SDL2:SDL2.dll
 0001:0003d569       _SDL_RenderCopy            0043e569 f   SDL2:SDL2.dll
 0001:0003d56f       _SDL_RenderPresent         0043e56f f   SDL2:SDL2.dll
 0001:0003d575       _SDL_DestroyTexture        0043e575 f   SDL2:SDL2.dll
 0001:0003d57b       _SDL_DestroyRenderer       0043e57b f   SDL2:SDL2.dll
 0001:0003d581       _SDL_GetTicks              0043e581 f   SDL2:SDL2.dll
 0001:0003d587       _SDL_Init                  0043e587 f   SDL2:SDL2.dll
 0001:0003d58d       _SDL_Quit                  0043e58d f   SDL2:SDL2.dll
 0001:0003d593       _SDL_RWFromFile            0043e593 f   SDL2:SDL2.dll
 0001:0003d599       _SDL_GetCurrentAudioDriver 0043e599 f   SDL2:SDL2.dll
 0001:0003d59f       _SDL_OpenAudioDevice       0043e59f f   SDL2:SDL2.dll
 0001:0003d5a5       _SDL_PauseAudioDevice      0043e5a5 f   SDL2:SDL2.dll
 0001:0003d5ab       _SDL_LoadWAV_RW            0043e5ab f   SDL2:SDL2.dll
 0001:0003d5b1       _SDL_FreeWAV               0043e5b1 f   SDL2:SDL2.dll
 0001:0003d5b7       _SDL_QueueAudio            0043e5b7 f   SDL2:SDL2.dll
 0001:0003d5bd       _SDL_CloseAudioDevice      0043e5bd f   SDL2:SDL2.dll
 0001:0003d5c3       _SDL_InitSubSystem         0043e5c3 f   SDL2:SDL2.dll
 0001:0003d5c9       _SDL_SetClipRect           0043e5c9 f   SDL2:SDL2.dll
 0001:0003d5cf       _SDL_UpperBlitScaled       0043e5cf f   SDL2:SDL2.dll
 0001:0003d5d5       _IMG_Load                  0043e5d5 f   SDL2_image:SDL2_image.dll
 0001:0003d5db       _TTF_RenderText_Solid      0043e5db f   SDL2_ttf:SDL2_ttf.dll
 0001:0003d5e1       _TTF_Init                  0043e5e1 f   SDL2_ttf:SDL2_ttf.dll
 0001:0003d5e7       _TTF_Quit                  0043e5e7 f   SDL2_ttf:SDL2_ttf.dll
 0001:0003d5ed       _TTF_OpenFont              0043e5ed f   SDL2_ttf:SDL2_ttf.dll
 0001:0003d5f3       _TTF_CloseFont             0043e5f3 f   SDL2_ttf:SDL2_ttf.dll
 0001:0003d5f9       ??0_Lockit@std@@QAE@H@Z    0043e5f9 f   msvcprtd:MSVCP140D.dll
 0001:0003d5ff       ??1_Lockit@std@@QAE@XZ     0043e5ff f   msvcprtd:MSVCP140D.dll
 0001:0003d605       ?_Xlength_error@std@@YAXPBD@Z 0043e605 f   msvcprtd:MSVCP140D.dll
 0001:0003d60b       ?uncaught_exception@std@@YA_NXZ 0043e60b f   msvcprtd:MSVCP140D.dll
 0001:0003d611       ?good@ios_base@std@@QBE_NXZ 0043e611 f   msvcprtd:MSVCP140D.dll
 0001:0003d617       ?flags@ios_base@std@@QBEHXZ 0043e617 f   msvcprtd:MSVCP140D.dll
 0001:0003d61d       ?width@ios_base@std@@QBE_JXZ 0043e61d f   msvcprtd:MSVCP140D.dll
 0001:0003d623       ?width@ios_base@std@@QAE_J_J@Z 0043e623 f   msvcprtd:MSVCP140D.dll
 0001:0003d629       ?sputc@?$basic_streambuf@DU?$char_traits@D@std@@@std@@QAEHD@Z 0043e629 f   msvcprtd:MSVCP140D.dll
 0001:0003d62f       ?sputn@?$basic_streambuf@DU?$char_traits@D@std@@@std@@QAE_JPBD_J@Z 0043e62f f   msvcprtd:MSVCP140D.dll
 0001:0003d635       ?setstate@?$basic_ios@DU?$char_traits@D@std@@@std@@QAEXH_N@Z 0043e635 f   msvcprtd:MSVCP140D.dll
 0001:0003d63b       ?tie@?$basic_ios@DU?$char_traits@D@std@@@std@@QBEPAV?$basic_ostream@DU?$char_traits@D@std@@@2@XZ 0043e63b f   msvcprtd:MSVCP140D.dll
 0001:0003d641       ?rdbuf@?$basic_ios@DU?$char_traits@D@std@@@std@@QBEPAV?$basic_streambuf@DU?$char_traits@D@std@@@2@XZ 0043e641 f   msvcprtd:MSVCP140D.dll
 0001:0003d647       ?fill@?$basic_ios@DU?$char_traits@D@std@@@std@@QBEDXZ 0043e647 f   msvcprtd:MSVCP140D.dll
 0001:0003d64d       ?widen@?$basic_ios@DU?$char_traits@D@std@@@std@@QBEDD@Z 0043e64d f   msvcprtd:MSVCP140D.dll
 0001:0003d653       ?_Osfx@?$basic_ostream@DU?$char_traits@D@std@@@std@@QAEXXZ 0043e653 f   msvcprtd:MSVCP140D.dll
 0001:0003d659       ??6?$basic_ostream@DU?$char_traits@D@std@@@std@@QAEAAV01@P6AAAV01@AAV01@@Z@Z 0043e659 f   msvcprtd:MSVCP140D.dll
 0001:0003d65f       ?put@?$basic_ostream@DU?$char_traits@D@std@@@std@@QAEAAV12@D@Z 0043e65f f   msvcprtd:MSVCP140D.dll
 0001:0003d665       ?flush@?$basic_ostream@DU?$char_traits@D@std@@@std@@QAEAAV12@XZ 0043e665 f   msvcprtd:MSVCP140D.dll
 0001:0003d66b       __Thrd_join                0043e66b f   msvcprtd:MSVCP140D.dll
 0001:0003d671       __Thrd_id                  0043e671 f   msvcprtd:MSVCP140D.dll
 0001:0003d677       __Cnd_do_broadcast_at_thread_exit 0043e677 f   msvcprtd:MSVCP140D.dll
 0001:0003d67d       ?_Throw_Cpp_error@std@@YAXH@Z 0043e67d f   msvcprtd:MSVCP140D.dll
 0001:0007b330       ___std_bitset_from_string_1@28 0047c330 f   msvcprtd:vector_algorithms.obj
 0001:0007b370       ___std_bitset_from_string_2@28 0047c370 f   msvcprtd:vector_algorithms.obj
 0001:0007b3b0       ___std_bitset_to_string_1@20 0047c3b0 f   msvcprtd:vector_algorithms.obj
 0001:0007b3e0       ___std_bitset_to_string_2@20 0047c3e0 f   msvcprtd:vector_algorithms.obj
 0001:0007b410       ___std_count_trivial_1@12  0047c410 f   msvcprtd:vector_algorithms.obj
 0001:0007b430       ___std_count_trivial_2@12  0047c430 f   msvcprtd:vector_algorithms.obj
 0001:0007b450       ___std_count_trivial_4@12  0047c450 f   msvcprtd:vector_algorithms.obj
 0001:0007b470       ___std_count_trivial_8@16  0047c470 f   msvcprtd:vector_algorithms.obj
 0001:0007b4a0       ___std_find_end_1@16       0047c4a0 f   msvcprtd:vector_algorithms.obj
 0001:0007b4d0       ___std_find_end_2@16       0047c4d0 f   msvcprtd:vector_algorithms.obj
 0001:0007b500       ___std_find_first_of_trivial_1@16 0047c500 f   msvcprtd:vector_algorithms.obj
 0001:0007b530       ___std_find_first_of_trivial_2@16 0047c530 f   msvcprtd:vector_algorithms.obj
 0001:0007b560       ___std_find_first_of_trivial_4@16 0047c560 f   msvcprtd:vector_algorithms.obj
 0001:0007b590       ___std_find_first_of_trivial_8@16 0047c590 f   msvcprtd:vector_algorithms.obj
 0001:0007b5c0       ___std_find_last_of_trivial_pos_1@16 0047c5c0 f   msvcprtd:vector_algorithms.obj
 0001:0007b5f0       ___std_find_last_of_trivial_pos_2@16 0047c5f0 f   msvcprtd:vector_algorithms.obj
 0001:0007b620       ___std_find_last_trivial_1@12 0047c620 f   msvcprtd:vector_algorithms.obj
 0001:0007b640       ___std_find_last_trivial_2@12 0047c640 f   msvcprtd:vector_algorithms.obj
 0001:0007b660       ___std_find_last_trivial_4@12 0047c660 f   msvcprtd:vector_algorithms.obj
 0001:0007b680       ___std_find_last_trivial_8@16 0047c680 f   msvcprtd:vector_algorithms.obj
 0001:0007b6b0       ___std_find_trivial_1@12   0047c6b0 f   msvcprtd:vector_algorithms.obj
 0001:0007b6d0       ___std_find_trivial_2@12   0047c6d0 f   msvcprtd:vector_algorithms.obj
 0001:0007b6f0       ___std_find_trivial_4@12   0047c6f0 f   msvcprtd:vector_algorithms.obj
 0001:0007b710       ___std_find_trivial_8@16   0047c710 f   msvcprtd:vector_algorithms.obj
 0001:0007b740       ___std_find_trivial_unsized_1@8 0047c740 f   msvcprtd:vector_algorithms.obj
 0001:0007b760       ___std_find_trivial_unsized_2@8 0047c760 f   msvcprtd:vector_algorithms.obj
 0001:0007b780       ___std_find_trivial_unsized_4@8 0047c780 f   msvcprtd:vector_algorithms.obj
 0001:0007b7a0       ___std_find_trivial_unsized_8@12 0047c7a0 f   msvcprtd:vector_algorithms.obj
 0001:0007b7d0       ___std_max_1i@8            0047c7d0 f   msvcprtd:vector_algorithms.obj
 0001:0007b7f0       ___std_max_1u@8            0047c7f0 f   msvcprtd:vector_algorithms.obj
 0001:0007b810       ___std_max_2i@8            0047c810 f   msvcprtd:vector_algorithms.obj
 0001:0007b830       ___std_max_2u@8            0047c830 f   msvcprtd:vector_algorithms.obj
 0001:0007b850       ___std_max_4i@8            0047c850 f   msvcprtd:vector_algorithms.obj
 0001:0007b870       ___std_max_4u@8            0047c870 f   msvcprtd:vector_algorithms.obj
 0001:0007b890       ___std_max_8i@8            0047c890 f   msvcprtd:vector_algorithms.obj
 0001:0007b8b0       ___std_max_8u@8            0047c8b0 f   msvcprtd:vector_algorithms.obj
 0001:0007b8d0       ___std_max_d@8             0047c8d0 f   msvcprtd:vector_algorithms.obj
 0001:0007b8f0       ___std_max_element_1@12    0047c8f0 f   msvcprtd:vector_algorithms.obj
 0001:0007b920       ___std_max_element_2@12    0047c920 f   msvcprtd:vector_algorithms.obj
 0001:0007b950       ___std_max_element_4@12    0047c950 f   msvcprtd:vector_algorithms.obj
 0001:0007b980       ___std_max_element_8@12    0047c980 f   msvcprtd:vector_algorithms.obj
 0001:0007b9b0       ___std_max_element_d@12    0047c9b0 f   msvcprtd:vector_algorithms.obj
 0001:0007b9d0       ___std_max_element_f@12    0047c9d0 f   msvcprtd:vector_algorithms.obj
 0001:0007b9f0       ___std_max_f@8             0047c9f0 f   msvcprtd:vector_algorithms.obj
 0001:0007ba10       ___std_min_1i@8            0047ca10 f   msvcprtd:vector_algorithms.obj
 0001:0007ba30       ___std_min_1u@8            0047ca30 f   msvcprtd:vector_algorithms.obj
 0001:0007ba50       ___std_min_2i@8            0047ca50 f   msvcprtd:vector_algorithms.obj
 0001:0007ba70       ___std_min_2u@8            0047ca70 f   msvcprtd:vector_algorithms.obj
 0001:0007ba90       ___std_min_4i@8            0047ca90 f   msvcprtd:vector_algorithms.obj
 0001:0007bab0       ___std_min_4u@8            0047cab0 f   msvcprtd:vector_algorithms.obj
 0001:0007bad0       ___std_min_8i@8            0047cad0 f   msvcprtd:vector_algorithms.obj
 0001:0007baf0       ___std_min_8u@8            0047caf0 f   msvcprtd:vector_algorithms.obj
 0001:0007bb10       ___std_min_d@8             0047cb10 f   msvcprtd:vector_algorithms.obj
 0001:0007bb30       ___std_min_element_1@12    0047cb30 f   msvcprtd:vector_algorithms.obj
 0001:0007bb60       ___std_min_element_2@12    0047cb60 f   msvcprtd:vector_algorithms.obj
 0001:0007bb90       ___std_min_element_4@12    0047cb90 f   msvcprtd:vector_algorithms.obj
 0001:0007bbc0       ___std_min_element_8@12    0047cbc0 f   msvcprtd:vector_algorithms.obj
 0001:0007bbf0       ___std_min_element_d@12    0047cbf0 f   msvcprtd:vector_algorithms.obj
 0001:0007bc10       ___std_min_element_f@12    0047cc10 f   msvcprtd:vector_algorithms.obj
 0001:0007bc30       ___std_min_f@8             0047cc30 f   msvcprtd:vector_algorithms.obj
 0001:0007bc50       ___std_minmax_1i@8         0047cc50 f   msvcprtd:vector_algorithms.obj
 0001:0007bc80       ___std_minmax_1u@8         0047cc80 f   msvcprtd:vector_algorithms.obj
 0001:0007bcb0       ___std_minmax_2i@8         0047ccb0 f   msvcprtd:vector_algorithms.obj
 0001:0007bce0       ___std_minmax_2u@8         0047cce0 f   msvcprtd:vector_algorithms.obj
 0001:0007bd10       ___std_minmax_4i@8         0047cd10 f   msvcprtd:vector_algorithms.obj
 0001:0007bd50       ___std_minmax_4u@8         0047cd50 f   msvcprtd:vector_algorithms.obj
 0001:0007bd90       ___std_minmax_8i@8         0047cd90 f   msvcprtd:vector_algorithms.obj
 0001:0007bde0       ___std_minmax_8u@8         0047cde0 f   msvcprtd:vector_algorithms.obj
 0001:0007be30       ___std_minmax_d@8          0047ce30 f   msvcprtd:vector_algorithms.obj
 0001:0007be80       ___std_minmax_element_1@12 0047ce80 f   msvcprtd:vector_algorithms.obj
 0001:0007bec0       ___std_minmax_element_2@12 0047cec0 f   msvcprtd:vector_algorithms.obj
 0001:0007bf00       ___std_minmax_element_4@12 0047cf00 f   msvcprtd:vector_algorithms.obj
 0001:0007bf40       ___std_minmax_element_8@12 0047cf40 f   msvcprtd:vector_algorithms.obj
 0001:0007bf80       ___std_minmax_element_d@12 0047cf80 f   msvcprtd:vector_algorithms.obj
 0001:0007bfc0       ___std_minmax_element_f@12 0047cfc0 f   msvcprtd:vector_algorithms.obj
 0001:0007c000       ___std_minmax_f@8          0047d000 f   msvcprtd:vector_algorithms.obj
 0001:0007c040       ___std_mismatch_1@12       0047d040 f   msvcprtd:vector_algorithms.obj
 0001:0007c060       ___std_mismatch_2@12       0047d060 f   msvcprtd:vector_algorithms.obj
 0001:0007c080       ___std_mismatch_4@12       0047d080 f   msvcprtd:vector_algorithms.obj
 0001:0007c0a0       ___std_mismatch_8@12       0047d0a0 f   msvcprtd:vector_algorithms.obj
 0001:0007c0c0       ___std_remove_1@12         0047d0c0 f   msvcprtd:vector_algorithms.obj
 0001:0007c280       ___std_remove_2@12         0047d280 f   msvcprtd:vector_algorithms.obj
 0001:0007c460       ___std_remove_4@12         0047d460 f   msvcprtd:vector_algorithms.obj
 0001:0007c7e0       ___std_remove_8@16         0047d7e0 f   msvcprtd:vector_algorithms.obj
 0001:0007cb70       ___std_replace_4@16        0047db70 f   msvcprtd:vector_algorithms.obj
 0001:0007cde0       ___std_replace_8@24        0047dde0 f   msvcprtd:vector_algorithms.obj
 0001:0007d070       ___std_reverse_copy_trivially_copyable_1 0047e070 f   msvcprtd:vector_algorithms.obj
 0001:0007d300       ___std_reverse_copy_trivially_copyable_2 0047e300 f   msvcprtd:vector_algorithms.obj
 0001:0007d590       ___std_reverse_copy_trivially_copyable_4 0047e590 f   msvcprtd:vector_algorithms.obj
 0001:0007d7c0       ___std_reverse_copy_trivially_copyable_8 0047e7c0 f   msvcprtd:vector_algorithms.obj
 0001:0007d9c0       ___std_reverse_trivially_swappable_1 0047e9c0 f   msvcprtd:vector_algorithms.obj
 0001:0007dd40       ___std_reverse_trivially_swappable_2 0047ed40 f   msvcprtd:vector_algorithms.obj
 0001:0007e0c0       ___std_reverse_trivially_swappable_4 0047f0c0 f   msvcprtd:vector_algorithms.obj
 0001:0007e3b0       ___std_reverse_trivially_swappable_8 0047f3b0 f   msvcprtd:vector_algorithms.obj
 0001:0007e670       ___std_search_1@16         0047f670 f   msvcprtd:vector_algorithms.obj
 0001:0007e6a0       ___std_search_2@16         0047f6a0 f   msvcprtd:vector_algorithms.obj
 0001:0007e6d0       ___std_swap_ranges_trivially_swappable 0047f6d0 f   msvcprtd:vector_algorithms.obj
 0001:0007e700       ___std_swap_ranges_trivially_swappable_noalias 0047f700 f   msvcprtd:vector_algorithms.obj
 0001:0007ea20       _wmemchr                   0047fa20 f i msvcprtd:vector_algorithms.obj
 0001:0007ea63       ?_Xbad_alloc@std@@YAXXZ    0047fa63 f   msvcprtd:MSVCP140D.dll
 0001:0007ea69       ?_Xinvalid_argument@std@@YAXPBD@Z 0047fa69 f   msvcprtd:MSVCP140D.dll
 0001:0007ea6f       ?_Xout_of_range@std@@YAXPBD@Z 0047fa6f f   msvcprtd:MSVCP140D.dll
 0001:0007ea80       ??0_Fac_node@std@@QAE@PAU01@PAV_Facet_base@1@@Z 0047fa80 f i msvcprtd:locale0_implib.obj
 0001:0007eab0       ??1_Fac_node@std@@QAE@XZ   0047fab0 f i msvcprtd:locale0_implib.obj
 0001:0007eb30       ??1_Fac_tidy_reg_t@std@@QAE@XZ 0047fb30 f i msvcprtd:locale0_implib.obj
 0001:0007eb90       ??2_Fac_node@std@@SAPAXI@Z 0047fb90 f i msvcprtd:locale0_implib.obj
 0001:0007ebf0       ??3_Fac_node@std@@SAXPAX@Z 0047fbf0 f i msvcprtd:locale0_implib.obj
 0001:0007ec10       ??_G_Fac_node@std@@QAEPAXI@Z 0047fc10 f i msvcprtd:locale0_implib.obj
 0001:0007ec70       ?_Facet_Register@std@@YAXPAV_Facet_base@1@@Z 0047fc70 f   msvcprtd:locale0_implib.obj
 0001:0007ed20       ?__empty_global_delete@@YAXPAXIW4align_val_t@std@@@Z 0047fd20 f i msvcprtd:locale0_implib.obj
 0001:0007ed30       ?__empty_global_delete@@YAXPAXW4align_val_t@std@@@Z 0047fd30 f i msvcprtd:locale0_implib.obj
 0001:0007ed35       ?_Getgloballocale@locale@std@@CAPAV_Locimp@12@XZ 0047fd35 f   msvcprtd:MSVCP140D.dll
 0001:0007ed3b       ?always_noconv@codecvt_base@std@@QBE_NXZ 0047fd3b f   msvcprtd:MSVCP140D.dll
 0001:0007ed41       ?is@?$ctype@D@std@@QBE_NFD@Z 0047fd41 f   msvcprtd:MSVCP140D.dll
 0001:0007ed47       ?_Getcat@?$ctype@D@std@@SAIPAPBVfacet@locale@2@PBV42@@Z 0047fd47 f   msvcprtd:MSVCP140D.dll
 0001:0007ed4d       ?in@?$codecvt@DDU_Mbstatet@@@std@@QBEHAAU_Mbstatet@@PBD1AAPBDPAD3AAPAD@Z 0047fd4d f   msvcprtd:MSVCP140D.dll
 0001:0007ed53       ?out@?$codecvt@DDU_Mbstatet@@@std@@QBEHAAU_Mbstatet@@PBD1AAPBDPAD3AAPAD@Z 0047fd53 f   msvcprtd:MSVCP140D.dll
 0001:0007ed59       ?unshift@?$codecvt@DDU_Mbstatet@@@std@@QBEHAAU_Mbstatet@@PAD1AAPAD@Z 0047fd59 f   msvcprtd:MSVCP140D.dll
 0001:0007ed5f       ?_Getcat@?$codecvt@DDU_Mbstatet@@@std@@SAIPAPBVfacet@locale@2@PBV42@@Z 0047fd5f f   msvcprtd:MSVCP140D.dll
 0001:0007ed65       ??Bios_base@std@@QBE_NXZ   0047fd65 f   msvcprtd:MSVCP140D.dll
 0001:0007ed6b       ?getloc@ios_base@std@@QBE?AVlocale@2@XZ 0047fd6b f   msvcprtd:MSVCP140D.dll
 0001:0007ed71       ??0?$basic_streambuf@DU?$char_traits@D@std@@@std@@IAE@XZ 0047fd71 f   msvcprtd:MSVCP140D.dll
 0001:0007ed77       ??1?$basic_streambuf@DU?$char_traits@D@std@@@std@@UAE@XZ 0047fd77 f   msvcprtd:MSVCP140D.dll
 0001:0007ed7d       ?getloc@?$basic_streambuf@DU?$char_traits@D@std@@@std@@QBE?AVlocale@2@XZ 0047fd7d f   msvcprtd:MSVCP140D.dll
 0001:0007ed83       ?sbumpc@?$basic_streambuf@DU?$char_traits@D@std@@@std@@QAEHXZ 0047fd83 f   msvcprtd:MSVCP140D.dll
 0001:0007ed89       ?sgetc@?$basic_streambuf@DU?$char_traits@D@std@@@std@@QAEHXZ 0047fd89 f   msvcprtd:MSVCP140D.dll
 0001:0007ed8f       ?snextc@?$basic_streambuf@DU?$char_traits@D@std@@@std@@QAEHXZ 0047fd8f f   msvcprtd:MSVCP140D.dll
 0001:0007ed95       ?eback@?$basic_streambuf@DU?$char_traits@D@std@@@std@@IBEPADXZ 0047fd95 f   msvcprtd:MSVCP140D.dll
 0001:0007ed9b       ?gptr@?$basic_streambuf@DU?$char_traits@D@std@@@std@@IBEPADXZ 0047fd9b f   msvcprtd:MSVCP140D.dll
 0001:0007eda1       ?pbase@?$basic_streambuf@DU?$char_traits@D@std@@@std@@IBEPADXZ 0047fda1 f   msvcprtd:MSVCP140D.dll
 0001:0007eda7       ?pptr@?$basic_streambuf@DU?$char_traits@D@std@@@std@@IBEPADXZ 0047fda7 f   msvcprtd:MSVCP140D.dll
 0001:0007edad       ?egptr@?$basic_streambuf@DU?$char_traits@D@std@@@std@@IBEPADXZ 0047fdad f   msvcprtd:MSVCP140D.dll
 0001:0007edb3       ?gbump@?$basic_streambuf@DU?$char_traits@D@std@@@std@@IAEXH@Z 0047fdb3 f   msvcprtd:MSVCP140D.dll
 0001:0007edb9       ?setg@?$basic_streambuf@DU?$char_traits@D@std@@@std@@IAEXPAD00@Z 0047fdb9 f   msvcprtd:MSVCP140D.dll
 0001:0007edbf       ?epptr@?$basic_streambuf@DU?$char_traits@D@std@@@std@@IBEPADXZ 0047fdbf f   msvcprtd:MSVCP140D.dll
 0001:0007edc5       ?_Gndec@?$basic_streambuf@DU?$char_traits@D@std@@@std@@IAEPADXZ 0047fdc5 f   msvcprtd:MSVCP140D.dll
 0001:0007edcb       ?_Gninc@?$basic_streambuf@DU?$char_traits@D@std@@@std@@IAEPADXZ 0047fdcb f   msvcprtd:MSVCP140D.dll
 0001:0007edd1       ?_Gnavail@?$basic_streambuf@DU?$char_traits@D@std@@@std@@IBE_JXZ 0047fdd1 f   msvcprtd:MSVCP140D.dll
 0001:0007edd7       ?pbump@?$basic_streambuf@DU?$char_traits@D@std@@@std@@IAEXH@Z 0047fdd7 f   msvcprtd:MSVCP140D.dll
 0001:0007eddd       ?setp@?$basic_streambuf@DU?$char_traits@D@std@@@std@@IAEXPAD0@Z 0047fddd f   msvcprtd:MSVCP140D.dll
 0001:0007ede3       ?setp@?$basic_streambuf@DU?$char_traits@D@std@@@std@@IAEXPAD00@Z 0047fde3 f   msvcprtd:MSVCP140D.dll
 0001:0007ede9       ?_Pninc@?$basic_streambuf@DU?$char_traits@D@std@@@std@@IAEPADXZ 0047fde9 f   msvcprtd:MSVCP140D.dll
 0001:0007edef       ?_Pnavail@?$basic_streambuf@DU?$char_traits@D@std@@@std@@IBE_JXZ 0047fdef f   msvcprtd:MSVCP140D.dll
 0001:0007edf5       ?_Init@?$basic_streambuf@DU?$char_traits@D@std@@@std@@IAEXXZ 0047fdf5 f   msvcprtd:MSVCP140D.dll
 0001:0007edfb       ?_Init@?$basic_streambuf@DU?$char_traits@D@std@@@std@@IAEXPAPAD0PAH001@Z 0047fdfb f   msvcprtd:MSVCP140D.dll
 0001:0007ee01       ?xsgetn@?$basic_streambuf@DU?$char_traits@D@std@@@std@@MAE_JPAD_J@Z 0047fe01 f   msvcprtd:MSVCP140D.dll
 0001:0007ee07       ?xsputn@?$basic_streambuf@DU?$char_traits@D@std@@@std@@MAE_JPBD_J@Z 0047fe07 f   msvcprtd:MSVCP140D.dll
 0001:0007ee0d       ??1?$basic_ios@DU?$char_traits@D@std@@@std@@UAE@XZ 0047fe0d f   msvcprtd:MSVCP140D.dll
 0001:0007ee13       ??0?$basic_ios@DU?$char_traits@D@std@@@std@@IAE@XZ 0047fe13 f   msvcprtd:MSVCP140D.dll
 0001:0007ee19       ??6?$basic_ostream@DU?$char_traits@D@std@@@std@@QAEAAV01@H@Z 0047fe19 f   msvcprtd:MSVCP140D.dll
 0001:0007ee1f       ??0?$basic_istream@DU?$char_traits@D@std@@@std@@QAE@PAV?$basic_streambuf@DU?$char_traits@D@std@@@1@_N@Z 0047fe1f f   msvcprtd:MSVCP140D.dll
 0001:0007ee25       ??1?$basic_istream@DU?$char_traits@D@std@@@std@@UAE@XZ 0047fe25 f   msvcprtd:MSVCP140D.dll
 0001:0007ee2b       ?_Ipfx@?$basic_istream@DU?$char_traits@D@std@@@std@@QAE_N_N@Z 0047fe2b f   msvcprtd:MSVCP140D.dll
 0001:0007ee31       ??5?$basic_istream@DU?$char_traits@D@std@@@std@@QAEAAV01@AAH@Z 0047fe31 f   msvcprtd:MSVCP140D.dll
 0001:0007ee37       ??0?$basic_iostream@DU?$char_traits@D@std@@@std@@QAE@PAV?$basic_streambuf@DU?$char_traits@D@std@@@1@@Z 0047fe37 f   msvcprtd:MSVCP140D.dll
 0001:0007ee3d       ??1?$basic_iostream@DU?$char_traits@D@std@@@std@@UAE@XZ 0047fe3d f   msvcprtd:MSVCP140D.dll
 0001:0007ee43       ?_Fiopen@std@@YAPAU_iobuf@@PBDHH@Z 0047fe43 f   msvcprtd:MSVCP140D.dll
 0001:0007ee49       ?imbue@?$basic_streambuf@DU?$char_traits@D@std@@@std@@MAEXABVlocale@2@@Z 0047fe49 f   msvcprtd:MSVCP140D.dll
 0001:0007ee4f       ?sync@?$basic_streambuf@DU?$char_traits@D@std@@@std@@MAEHXZ 0047fe4f f   msvcprtd:MSVCP140D.dll
 0001:0007ee55       ?setbuf@?$basic_streambuf@DU?$char_traits@D@std@@@std@@MAEPAV12@PAD_J@Z 0047fe55 f   msvcprtd:MSVCP140D.dll
 0001:0007ee5b       ?uflow@?$basic_streambuf@DU?$char_traits@D@std@@@std@@MAEHXZ 0047fe5b f   msvcprtd:MSVCP140D.dll
 0001:0007ee61       ?showmanyc@?$basic_streambuf@DU?$char_traits@D@std@@@std@@MAE_JXZ 0047fe61 f   msvcprtd:MSVCP140D.dll
 0001:0007ee67       ?_Unlock@?$basic_streambuf@DU?$char_traits@D@std@@@std@@UAEXXZ 0047fe67 f   msvcprtd:MSVCP140D.dll
 0001:0007ee6d       ?_Lock@?$basic_streambuf@DU?$char_traits@D@std@@@std@@UAEXXZ 0047fe6d f   msvcprtd:MSVCP140D.dll
 0001:0007ee73       ??0?$basic_ostream@DU?$char_traits@D@std@@@std@@QAE@PAV?$basic_streambuf@DU?$char_traits@D@std@@@1@_N@Z 0047fe73 f   msvcprtd:MSVCP140D.dll
 0001:0007ee79       ??1?$basic_ostream@DU?$char_traits@D@std@@@std@@UAE@XZ 0047fe79 f   msvcprtd:MSVCP140D.dll
 0001:0007ee7f       ??6?$basic_ostream@DU?$char_traits@D@std@@@std@@QAEAAV01@N@Z 0047fe7f f   msvcprtd:MSVCP140D.dll
 0001:0007f280       ?configure_argv@__scrt_narrow_argv_policy@@SAHXZ 00480280 f i MSVCRTD:exe_main.obj
 0001:0007f2a0       ?initialize_environment@__scrt_narrow_environment_policy@@SAHXZ 004802a0 f i MSVCRTD:exe_main.obj
 0001:0007f300       ?set_app_type@__scrt_main_policy@@SAXXZ 00480300 f i MSVCRTD:exe_main.obj
 0001:0007f320       ?set_commode@__scrt_file_policy@@SAXXZ 00480320 f i MSVCRTD:exe_main.obj
 0001:0007f340       ?set_fmode@__scrt_file_policy@@SAXXZ 00480340 f i MSVCRTD:exe_main.obj
 0001:0007f360       _mainCRTStartup            00480360 f   MSVCRTD:exe_main.obj
 0001:0007f370       ??2@YAPAXI@Z               00480370 f   MSVCRTD:new_scalar.obj
 0001:0007f3d0       ??3@YAXPAXI@Z              004803d0 f   MSVCRTD:delete_scalar_size.obj
 0001:0007f3f0       ??_V@YAXPAX@Z              004803f0 f   MSVCRTD:delete_array.obj
 0001:0007f410       @__security_check_cookie@4 00480410 f   MSVCRTD:secchk.obj
 0001:0007f430       ??1type_info@@UAE@XZ       00480430 f   MSVCRTD:std_type_info_static.obj
 0001:0007f450       ??_Etype_info@@UAEPAXI@Z   00480450 f i MSVCRTD:std_type_info_static.obj
 0001:0007f450       ??_Gtype_info@@UAEPAXI@Z   00480450 f i MSVCRTD:std_type_info_static.obj
 0001:0007f490       ??_U@YAPAXI@Z              00480490 f   MSVCRTD:new_array.obj
 0001:0007f5f0       _NtCurrentTeb              004805f0 f i MSVCRTD:utility.obj
 0001:0007f600       ___scrt_acquire_startup_lock 00480600 f   MSVCRTD:utility.obj
 0001:0007f660       ___scrt_dllmain_after_initialize_c 00480660 f   MSVCRTD:utility.obj
 0001:0007f6a0       ___scrt_dllmain_before_initialize_c 004806a0 f   MSVCRTD:utility.obj
 0001:0007f6d0       ___scrt_dllmain_crt_thread_attach 004806d0 f   MSVCRTD:utility.obj
 0001:0007f710       ___scrt_dllmain_crt_thread_detach 00480710 f   MSVCRTD:utility.obj
 0001:0007f730       ___scrt_dllmain_exception_filter 00480730 f   MSVCRTD:utility.obj
 0001:0007f790       ___scrt_dllmain_uninitialize_c 00480790 f   MSVCRTD:utility.obj
 0001:0007f7d0       ___scrt_dllmain_uninitialize_critical 004807d0 f   MSVCRTD:utility.obj
 0001:0007f7f0       ___scrt_initialize_crt     004807f0 f   MSVCRTD:utility.obj
 0001:0007f850       ___scrt_initialize_onexit_tables 00480850 f   MSVCRTD:utility.obj
 0001:0007f960       ___scrt_is_nonwritable_in_current_image 00480960 f   MSVCRTD:utility.obj
 0001:0007fae0       ___scrt_release_startup_lock 00480ae0 f   MSVCRTD:utility.obj
 0001:0007fb10       ___scrt_uninitialize_crt   00480b10 f   MSVCRTD:utility.obj
 0001:0007fb60       __onexit                   00480b60 f   MSVCRTD:utility.obj
 0001:0007fbe0       _at_quick_exit             00480be0 f   MSVCRTD:utility.obj
 0001:0007fc30       _atexit                    00480c30 f   MSVCRTD:utility.obj
 0001:0007fc70       ___isa_available_init      00480c70 f   MSVCRTD:cpu_disp.obj
 0001:00080230       @_guard_check_icall_nop@4  00481230 f i MSVCRTD:guard_support.obj
 0001:00080240       _ReadNoFence               00481240 f i MSVCRTD:guard_support.obj
 0001:00080260       _ReadPointerNoFence        00481260 f i MSVCRTD:guard_support.obj
 0001:00080280       __InlineInterlockedExchangePointer 00481280 f i MSVCRTD:guard_support.obj
 0001:00080290       ___castguard_check_failure_debugbreak 00481290 f i MSVCRTD:guard_support.obj
 0001:000802b0       ___castguard_check_failure_fastfail 004812b0 f i MSVCRTD:guard_support.obj
 0001:000802e0       ___castguard_check_failure_nop 004812e0 f i MSVCRTD:guard_support.obj
 0001:000802f0       ___castguard_check_failure_os_handled 004812f0 f i MSVCRTD:guard_support.obj
 0001:00080360       ___castguard_check_failure_user_handled 00481360 f i MSVCRTD:guard_support.obj
 0001:00080430       ___castguard_set_user_handler 00481430 f i MSVCRTD:guard_support.obj
 0001:00080460       ___castguard_slow_path_check_debugbreak 00481460 f i MSVCRTD:guard_support.obj
 0001:000804a0       ___castguard_slow_path_check_fastfail 004814a0 f i MSVCRTD:guard_support.obj
 0001:000804f0       ___castguard_slow_path_check_nop 004814f0 f i MSVCRTD:guard_support.obj
 0001:00080500       ___castguard_slow_path_check_os_handled 00481500 f i MSVCRTD:guard_support.obj
 0001:00080550       ___castguard_slow_path_check_user_handled 00481550 f i MSVCRTD:guard_support.obj
 0001:000805f0       __guard_icall_checks_enforced 004815f0 f i MSVCRTD:guard_support.obj
 0001:000806c0       ___security_init_cookie    004816c0 f   MSVCRTD:gs_support.obj
 0001:00080760       __matherr                  00481760 f   MSVCRTD:matherr.obj
 0001:00080770       __get_startup_argv_mode    00481770 f   MSVCRTD:argv_mode.obj
 0001:00080780       __get_startup_commit_mode  00481780 f   MSVCRTD:commit_mode.obj
 0001:00080790       __get_startup_file_mode    00481790 f   MSVCRTD:file_mode.obj
 0001:000807a0       __get_startup_new_mode     004817a0 f   MSVCRTD:new_mode.obj
 0001:000807b0       __get_startup_thread_locale_mode 004817b0 f   MSVCRTD:thread_locale.obj
 0001:000807c0       ?__scrt_initialize_type_info@@YAXXZ 004817c0 f   MSVCRTD:tncleanup.obj
 0001:000807e0       ?__scrt_uninitialize_type_info@@YAXXZ 004817e0 f   MSVCRTD:tncleanup.obj
 0001:00080800       __should_initialize_environment 00481800 f   MSVCRTD:env_mode.obj
 0001:00080810       __initialize_default_precision 00481810 f   MSVCRTD:default_precision.obj
 0001:00080840       __initialize_invalid_parameter_handler 00481840 f   MSVCRTD:invalid_parameter_handler.obj
 0001:00080850       __initialize_denormal_control 00481850 f   MSVCRTD:denormal_control.obj
 0001:00080860       ___local_stdio_scanf_options 00481860 f i MSVCRTD:default_local_stdio_options.obj
 0001:00080870       ___scrt_initialize_default_local_stdio_options 00481870 f   MSVCRTD:default_local_stdio_options.obj
 0001:000808c0       ___scrt_is_user_matherr_present 004818c0 f   MSVCRTD:matherr_detection.obj
 0001:000808f0       ___scrt_get_dyn_tls_init_callback 004818f0 f   MSVCRTD:dyn_tls_init.obj
 0001:00080900       ___scrt_get_dyn_tls_dtor_callback 00481900 f   MSVCRTD:dyn_tls_dtor.obj
 0001:00080910       ___scrt_fastfail           00481910 f   MSVCRTD:utility_desktop.obj
 0001:00080aa0       ___scrt_get_show_window_mode 00481aa0 f   MSVCRTD:utility_desktop.obj
 0001:00080af0       ___scrt_initialize_mta     00481af0 f   MSVCRTD:utility_desktop.obj
 0001:00080b00       ___scrt_initialize_winrt   00481b00 f   MSVCRTD:utility_desktop.obj
 0001:00080b10       ___scrt_is_managed_app     00481b10 f   MSVCRTD:utility_desktop.obj
 0001:00080bc0       ___scrt_set_unhandled_exception_filter 00481bc0 f   MSVCRTD:utility_desktop.obj
 0001:00080be0       ___scrt_exe_initialize_mta 00481be0 f   MSVCRTD:utility_desktop.obj
 0001:00080be0       ___scrt_stub_for_initialize_mta 00481be0 f   MSVCRTD:utility_desktop.obj
 0001:00080bf0       ___scrt_unhandled_exception_filter@4 00481bf0 f   MSVCRTD:utility_desktop.obj
 0001:00080c90       __crt_debugger_hook        00481c90 f   MSVCRTD:utility_desktop.obj
 0001:00080cb0       __RTC_Initialize           00481cb0 f   MSVCRTD:initsect.obj
 0001:00080cf0       __RTC_Terminate            00481cf0 f   MSVCRTD:initsect.obj
 0001:00080d30       __except_handler4          00481d30 f   MSVCRTD:chandler4gs.obj
 0001:00080d80       ??0bad_alloc@std@@QAE@XZ   00481d80 f i MSVCRTD:throw_bad_alloc.obj
 0001:00080db0       ?__scrt_throw_std_bad_alloc@@YAXXZ 00481db0 f   MSVCRTD:throw_bad_alloc.obj
 0001:00080de0       ?__scrt_throw_std_bad_array_new_length@@YAXXZ 00481de0 f   MSVCRTD:throw_bad_alloc.obj
 0001:00080e10       ??3@YAXPAX@Z               00481e10 f   MSVCRTD:delete_scalar.obj
 0001:00080e30       ___raise_securityfailure   00481e30 f   MSVCRTD:gs_report.obj
 0001:00080e70       ___report_gsfailure        00481e70 f   MSVCRTD:gs_report.obj
 0001:00080fc0       ___report_rangecheckfailure 00481fc0 f   MSVCRTD:gs_report.obj
 0001:00080fd0       ___report_securityfailure  00481fd0 f   MSVCRTD:gs_report.obj
 0001:000810e0       ___report_securityfailureEx 004820e0 f   MSVCRTD:gs_report.obj
 0001:00081250       ___scrt_is_ucrt_dll_in_use 00482250 f   MSVCRTD:ucrt_detection.obj
 0001:0008127d       _memcmp                    0048227d f   vcruntimed:VCRUNTIME140D.dll
 0001:00081283       _memcpy                    00482283 f   vcruntimed:VCRUNTIME140D.dll
 0001:00081289       _memmove                   00482289 f   vcruntimed:VCRUNTIME140D.dll
 0001:0008128f       _memset                    0048228f f   vcruntimed:VCRUNTIME140D.dll
 0001:00081295       ___std_exception_copy      00482295 f   vcruntimed:VCRUNTIME140D.dll
 0001:0008129b       ___std_exception_destroy   0048229b f   vcruntimed:VCRUNTIME140D.dll
 0001:000812a1       __CxxThrowException@8      004822a1 f   vcruntimed:VCRUNTIME140D.dll
 0001:000812a7       ___CxxFrameHandler3        004822a7 f   vcruntimed:VCRUNTIME140D.dll
 0001:000812ad       _memchr                    004822ad f   vcruntimed:VCRUNTIME140D.dll
 0001:000812b3       ___RTDynamicCast           004822b3 f   vcruntimed:VCRUNTIME140D.dll
 0001:000812b9       __purecall                 004822b9 f   vcruntimed:VCRUNTIME140D.dll
 0001:000812bf       ___std_type_info_destroy_list 004822bf f   vcruntimed:VCRUNTIME140D.dll
 0001:000812c5       ___current_exception       004822c5 f   vcruntimed:VCRUNTIME140D.dll
 0001:000812cb       ___current_exception_context 004822cb f   vcruntimed:VCRUNTIME140D.dll
 0001:000812d1       __except_handler4_common   004822d1 f   vcruntimed:VCRUNTIME140D.dll
 0001:000812d7       __invalid_parameter        004822d7 f   ucrtd:ucrtbased.dll
 0001:000812dd       __CrtDbgReport             004822dd f   ucrtd:ucrtbased.dll
 0001:000812e3       _rand                      004822e3 f   ucrtd:ucrtbased.dll
 0001:000812e9       ___acrt_iob_func           004822e9 f   ucrtd:ucrtbased.dll
 0001:000812ef       ___stdio_common_vfprintf   004822ef f   ucrtd:ucrtbased.dll
 0001:000812f5       _strlen                    004822f5 f   ucrtd:ucrtbased.dll
 0001:000812fb       _atan                      004822fb f   ucrtd:ucrtbased.dll
 0001:00081301       _cos                       00482301 f   ucrtd:ucrtbased.dll
 0001:00081307       _sin                       00482307 f   ucrtd:ucrtbased.dll
 0001:0008130d       _terminate                 0048230d f   ucrtd:ucrtbased.dll
 0001:00081313       __beginthreadex            00482313 f   ucrtd:ucrtbased.dll
 0001:00081319       __errno                    00482319 f   ucrtd:ucrtbased.dll
 0001:0008131f       _strtol                    0048231f f   ucrtd:ucrtbased.dll
 0001:00081325       __get_stream_buffer_pointers 00482325 f   ucrtd:ucrtbased.dll
 0001:0008132b       _fclose                    0048232b f   ucrtd:ucrtbased.dll
 0001:00081331       _fflush                    00482331 f   ucrtd:ucrtbased.dll
 0001:00081337       _fgetc                     00482337 f   ucrtd:ucrtbased.dll
 0001:0008133d       _fgetpos                   0048233d f   ucrtd:ucrtbased.dll
 0001:00081343       _fputc                     00482343 f   ucrtd:ucrtbased.dll
 0001:00081349       _fread                     00482349 f   ucrtd:ucrtbased.dll
 0001:0008134f       _fsetpos                   0048234f f   ucrtd:ucrtbased.dll
 0001:00081355       __fseeki64                 00482355 f   ucrtd:ucrtbased.dll
 0001:0008135b       _fwrite                    0048235b f   ucrtd:ucrtbased.dll
 0001:00081361       _setvbuf                   00482361 f   ucrtd:ucrtbased.dll
 0001:00081367       _ungetc                    00482367 f   ucrtd:ucrtbased.dll
 0001:0008136d       __lock_file                0048236d f   ucrtd:ucrtbased.dll
 0001:00081373       __unlock_file              00482373 f   ucrtd:ucrtbased.dll
 0001:00081379       _sqrt                      00482379 f   ucrtd:ucrtbased.dll
 0001:0008137f       __CrtDumpMemoryLeaks       0048237f f   ucrtd:ucrtbased.dll
 0001:00081385       _srand                     00482385 f   ucrtd:ucrtbased.dll
 0001:0008138b       ___stdio_common_vsprintf   0048238b f   ucrtd:ucrtbased.dll
 0001:00081391       __time64                   00482391 f   ucrtd:ucrtbased.dll
 0001:00081397       _puts                      00482397 f   ucrtd:ucrtbased.dll
 0001:0008139d       _strcmp                    0048239d f   ucrtd:ucrtbased.dll
 0001:000813a3       _strcpy                    004823a3 f   ucrtd:ucrtbased.dll
 0001:000813a9       _abs                       004823a9 f   ucrtd:ucrtbased.dll
 0001:000813af       __rotl                     004823af f   ucrtd:ucrtbased.dll
 0001:000813b5       __free_dbg                 004823b5 f   ucrtd:ucrtbased.dll
 0001:000813bb       __malloc_dbg               004823bb f   ucrtd:ucrtbased.dll
 0001:000813c1       __seh_filter_exe           004823c1 f   ucrtd:ucrtbased.dll
 0001:000813c7       __set_app_type             004823c7 f   ucrtd:ucrtbased.dll
 0001:000813cd       ___setusermatherr          004823cd f   ucrtd:ucrtbased.dll
 0001:000813d3       __configure_narrow_argv    004823d3 f   ucrtd:ucrtbased.dll
 0001:000813d9       __initialize_narrow_environment 004823d9 f   ucrtd:ucrtbased.dll
 0001:000813df       __get_initial_narrow_environment 004823df f   ucrtd:ucrtbased.dll
 0001:000813e5       __initterm                 004823e5 f   ucrtd:ucrtbased.dll
 0001:000813eb       __initterm_e               004823eb f   ucrtd:ucrtbased.dll
 0001:000813f1       _exit                      004823f1 f   ucrtd:ucrtbased.dll
 0001:000813f7       __exit                     004823f7 f   ucrtd:ucrtbased.dll
 0001:000813fd       __set_fmode                004823fd f   ucrtd:ucrtbased.dll
 0001:00081403       ___p___argc                00482403 f   ucrtd:ucrtbased.dll
 0001:00081409       ___p___argv                00482409 f   ucrtd:ucrtbased.dll
 0001:0008140f       __cexit                    0048240f f   ucrtd:ucrtbased.dll
 0001:00081415       __c_exit                   00482415 f   ucrtd:ucrtbased.dll
 0001:0008141b       __register_thread_local_exe_atexit_callback 0048241b f   ucrtd:ucrtbased.dll
 0001:00081421       __configthreadlocale       00482421 f   ucrtd:ucrtbased.dll
 0001:00081427       __set_new_mode             00482427 f   ucrtd:ucrtbased.dll
 0001:0008142d       ___p__commode              0048242d f   ucrtd:ucrtbased.dll
 0001:00081433       __callnewh                 00482433 f   ucrtd:ucrtbased.dll
 0001:00081439       _malloc                    00482439 f   ucrtd:ucrtbased.dll
 0001:0008143f       __seh_filter_dll           0048243f f   ucrtd:ucrtbased.dll
 0001:00081445       __initialize_onexit_table  00482445 f   ucrtd:ucrtbased.dll
 0001:0008144b       __register_onexit_function 0048244b f   ucrtd:ucrtbased.dll
 0001:00081451       __execute_onexit_table     00482451 f   ucrtd:ucrtbased.dll
 0001:00081457       __crt_atexit               00482457 f   ucrtd:ucrtbased.dll
 0001:0008145d       __crt_at_quick_exit        0048245d f   ucrtd:ucrtbased.dll
 0001:00081463       __controlfp_s              00482463 f   ucrtd:ucrtbased.dll
 0001:000815b0       _WinMain@16                004825b0 f   SDL2main:SDL_windows_main.obj
 0001:000815c0       _main                      004825c0 f   SDL2main:SDL_windows_main.obj
 0001:00081710       _wmain                     00482710 f   SDL2main:SDL_windows_main.obj
 0001:00081715       _IsProcessorFeaturePresent@4 00482715 f   kernel32:KERNEL32.dll
 0001:0008171b       _QueryPerformanceCounter@4 0048271b f   kernel32:KERNEL32.dll
 0001:00081721       _GetCurrentProcessId@0     00482721 f   kernel32:KERNEL32.dll
 0001:00081727       _GetCurrentThreadId@0      00482727 f   kernel32:KERNEL32.dll
 0001:0008172d       _GetSystemTimeAsFileTime@4 0048272d f   kernel32:KERNEL32.dll
 0001:00081733       _InitializeSListHead@4     00482733 f   kernel32:KERNEL32.dll
 0001:00081739       _IsDebuggerPresent@0       00482739 f   kernel32:KERNEL32.dll
 0001:0008173f       _UnhandledExceptionFilter@4 0048273f f   kernel32:KERNEL32.dll
 0001:00081745       _SetUnhandledExceptionFilter@4 00482745 f   kernel32:KERNEL32.dll
 0001:0008174b       _GetStartupInfoW@4         0048274b f   kernel32:KERNEL32.dll
 0001:00081751       _GetModuleHandleW@4        00482751 f   kernel32:KERNEL32.dll
 0001:00081757       _GetCurrentProcess@0       00482757 f   kernel32:KERNEL32.dll
 0001:0008175d       _TerminateProcess@8        0048275d f   kernel32:KERNEL32.dll
 0001:00081763       _GetCommandLineW@0         00482763 f   kernel32:KERNEL32.dll
 0001:00081769       _VirtualAlloc@16           00482769 f   kernel32:KERNEL32.dll
 0001:0008176f       _VirtualFree@12            0048276f f   kernel32:KERNEL32.dll
 0001:00081775       _WideCharToMultiByte@32    00482775 f   kernel32:KERNEL32.dll
 0001:0008177b       _SDL_SetMainReady          0048277b f   SDL2:SDL2.dll
 0001:00081781       _SDL_ShowSimpleMessageBox  00482781 f   SDL2:SDL2.dll
 0001:00081790       ___acrt_initialize         00482790 f   MSVCRTD:ucrt_stubs.obj
 0001:00081790       ___scrt_stub_for_acrt_initialize 00482790 f   MSVCRTD:ucrt_stubs.obj
 0001:00081790       ___vcrt_initialize         00482790 f   MSVCRTD:ucrt_stubs.obj
 0001:000817a0       ___acrt_thread_attach      004827a0 f   MSVCRTD:ucrt_stubs.obj
 0001:000817a0       ___scrt_stub_for_acrt_thread_attach 004827a0 f   MSVCRTD:ucrt_stubs.obj
 0001:000817a0       ___vcrt_thread_attach      004827a0 f   MSVCRTD:ucrt_stubs.obj
 0001:000817b0       ___acrt_thread_detach      004827b0 f   MSVCRTD:ucrt_stubs.obj
 0001:000817b0       ___scrt_stub_for_acrt_thread_detach 004827b0 f   MSVCRTD:ucrt_stubs.obj
 0001:000817b0       ___vcrt_thread_detach      004827b0 f   MSVCRTD:ucrt_stubs.obj
 0001:000817c0       ___acrt_uninitialize       004827c0 f   MSVCRTD:ucrt_stubs.obj
 0001:000817c0       ___scrt_stub_for_acrt_uninitialize 004827c0 f   MSVCRTD:ucrt_stubs.obj
 0001:000817c0       ___vcrt_uninitialize       004827c0 f   MSVCRTD:ucrt_stubs.obj
 0001:000817d0       ___acrt_uninitialize_critical 004827d0 f   MSVCRTD:ucrt_stubs.obj
 0001:000817d0       ___scrt_stub_for_acrt_uninitialize_critical 004827d0 f   MSVCRTD:ucrt_stubs.obj
 0001:000817d0       ___vcrt_uninitialize_critical 004827d0 f   MSVCRTD:ucrt_stubs.obj
 0001:000817e0       ___scrt_stub_for_is_c_termination_complete 004827e0 f   MSVCRTD:ucrt_stubs.obj
 0001:000817e0       __is_c_termination_complete 004827e0 f   MSVCRTD:ucrt_stubs.obj
 0001:000817f0       __filter_x86_sse2_floating_point_exception 004827f0 f   MSVCRTD:x86_exception_filter.obj
 0001:000817f0       __filter_x86_sse2_floating_point_exception_default 004827f0 f   MSVCRTD:x86_exception_filter.obj
 0001:00081930       ?enter@gameState@@UAEXXZ   00482930 f   gameState.obj
 0001:000819d0       ?foreGroundStrings@gameState@@UAEXXZ 004829d0 f   gameState.obj
 0001:00081b40       ?initObjects@gameState@@UAEXXZ 00482b40 f   gameState.obj
 0001:00081ca0       ?reset@gameState@@UAEXXZ   00482ca0 f   gameState.obj
 0001:00081d70       ?mouseDown@gameState@@UAEXHHH@Z 00482d70 f   gameState.obj
 0001:00081e70       ?mainLoopPreUpdate@gameState@@UAEXXZ 00482e70 f   gameState.obj
 0001:00081ec0       ?reEntry@gameState@@UAEXXZ 00482ec0 f   gameState.obj
 0001:00081f90       ?drawBackground@gameState@@QAEXXZ 00482f90 f   gameState.obj
 0001:00082160       ??1gameState@@UAE@XZ       00483160 f   gameState.obj
 0001:00082230       ?getmainChar@gameState@@QBEPAVMainCharacter@@XZ 00483230 f   gameState.obj
 0001:00082250       ?getEnemy@gameState@@QBEPAVPsyeb10Enemy@@XZ 00483250 f   gameState.obj
 0001:00082270       ?getGameScore@gameState@@QBEHXZ 00483270 f   gameState.obj
 0001:00082290       ?loadGame@gameState@@QAE_NXZ 00483290 f   gameState.obj
 0001:00082a60       ?saveGame@gameState@@QAEXXZ 00483a60 f   gameState.obj
 0002:00000000       ___xc_a                    0048b000     MSVCRTD:initializers.obj
 0002:0000030c       ___xc_z                    0048b30c     MSVCRTD:initializers.obj
 0002:00000410       ___xi_a                    0048b410     MSVCRTD:initializers.obj
 0002:0000071c       ___xi_z                    0048b71c     MSVCRTD:initializers.obj
 0002:00000820       ___xp_a                    0048b820     MSVCRTD:initializers.obj
 0002:00000924       ___xp_z                    0048b924     MSVCRTD:initializers.obj
 0002:00000a28       ___xt_a                    0048ba28     MSVCRTD:initializers.obj
 0002:00000b2c       ___xt_z                    0048bb2c     MSVCRTD:initializers.obj
 0002:00000fbc       ??_C@_0CM@MNNBKIBC@can?8t?5increment?5invalidated?5vec@ 0048bfbc     gameState.obj
 0002:00000fe8       ??_C@_0CJ@OAAAAGPM@can?8t?5increment?5vector?5iterator@ 0048bfe8     gameState.obj
 0002:00001014       ??_C@_0BP@PFIPNLNI@front?$CI?$CJ?5called?5on?5empty?5string@ 0048c014     gameState.obj
 0002:00001034       ??_C@_0BO@CAOBBIOC@vector?5iterators?5incompatible@ 0048c034     gameState.obj
 0002:00001054       ??_C@_0BI@CFPLBAOH@invalid?5string?5position@ 0048c054     gameState.obj
 0002:00001074       ??_7exception@std@@6B@     0048c074     DraggingDemo.obj
 0002:00001080       ??_C@_0BC@EOODALEL@Unknown?5exception@ 0048c080     DraggingDemo.obj
 0002:0000109c       ??_7bad_alloc@std@@6B@     0048c09c     DraggingDemo.obj
 0002:000010ac       ??_7bad_array_new_length@std@@6B@ 0048c0ac     DraggingDemo.obj
 0002:000010b8       ??_C@_0BF@KINCDENJ@bad?5array?5new?5length@ 0048c0b8     DraggingDemo.obj
 0002:000010d4       ??_C@_0BB@FCMFBGOM@invalid?5argument@ 0048c0d4     DraggingDemo.obj
 0002:000010e8       ??_C@_02DKCKIIND@?$CFs@    0048c0e8     DraggingDemo.obj
 0002:000010f0       ??_C@_0GC@KEOKOGAH@C?3?2Program?5Files?2Microsoft?5Visu@ 0048c0f0     DraggingDemo.obj
 0002:00001168       ??_C@_1ME@BCBBIONA@?$AAC?$AA?3?$AA?2?$AAP?$AAr?$AAo?$AAg?$AAr?$AAa?$AAm?$AA?5?$AAF?$AAi?$AAl?$AAe@ 0048c168     DraggingDemo.obj
 0002:00001254       ??_C@_11LOCGONAA@@         0048c254     DraggingDemo.obj
 0002:00001258       ??_C@_1CG@JNLFBNGN@?$AA?$CC?$AAi?$AAn?$AAv?$AAa?$AAl?$AAi?$AAd?$AA?5?$AAa?$AAr?$AAg?$AAu?$AAm?$AAe@ 0048c258     DraggingDemo.obj
 0002:00001288       ??_C@_0BJ@LFDBABJJ@ITERATOR?5LIST?5CORRUPTED?$CB@ 0048c288     DraggingDemo.obj
 0002:000012a8       ??_C@_1DG@PLBPCAEM@?$AA?$CC?$AAI?$AAT?$AAE?$AAR?$AAA?$AAT?$AAO?$AAR?$AA?5?$AAL?$AAI?$AAS?$AAT?$AA?5@ 0048c2a8     DraggingDemo.obj
 0002:000012e8       ??_C@_0BA@JFNIOLAK@string?5too?5long@ 0048c2e8     DraggingDemo.obj
 0002:000012fc       ??_C@_0CN@GHCLOPHF@Error?5in?5setting?5pixel?9?5should?5@ 0048c2fc     DraggingDemo.obj
 0002:00001338       ??_C@_0JM@GIEKPEHN@WARNING?3?5Attempted?5write?5to?5sur@ 0048c338     DraggingDemo.obj
 0002:000013f4       ??_C@_0BB@GCADKGJO@map?1set?5too?5long@ 0048c3f4     DraggingDemo.obj
 0002:00001408       ??_C@_0DC@BNOGMHFL@Error?5creating?5surface?5in?5RawIm@ 0048c408     DraggingDemo.obj
 0002:00001444       ??_C@_0BD@IFIGDDIC@?7?7?$CL?$CL?$CL?5Load?5image?3?5@ 0048c444     DraggingDemo.obj
 0002:0000145c       ??_C@_0DJ@OJEPJEDH@ImageManager?3?3getImagePtrbyURL?$CI@ 0048c45c     DraggingDemo.obj
 0002:000014a0       ??_C@_0BJ@LOCNEGOL@Failed?5to?5load?5image?5?$CFs?6@ 0048c4a0     DraggingDemo.obj
 0002:000014c4       ??_7DragableBaseClassObject@@6B@ 0048c4c4     DraggingDemo.obj
 0002:0000151c       ??_7DragableObject@@6B@    0048c51c     DraggingDemo.obj
 0002:00001574       ??_7DragableImageObject@@6B@ 0048c574     DraggingDemo.obj
 0002:000015cc       ??_7ImageObject@@6B@       0048c5cc     DraggingDemo.obj
 0002:00001610       ??_C@_0GB@MMGLHHL@C?3?2Program?5Files?2Microsoft?5Visu@ 0048c610     DraggingDemo.obj
 0002:00001688       ??_C@_1MC@IGFHIFCD@?$AAC?$AA?3?$AA?2?$AAP?$AAr?$AAo?$AAg?$AAr?$AAa?$AAm?$AA?5?$AAF?$AAi?$AAl?$AAe@ 0048c688     DraggingDemo.obj
 0002:00001770       ??_C@_0BO@PFKOHNJC@vector?5subscript?5out?5of?5range@ 0048c770     DraggingDemo.obj
 0002:00001798       ??_C@_1EA@LEKOKFNB@?$AA?$CC?$AAv?$AAe?$AAc?$AAt?$AAo?$AAr?$AA?5?$AAs?$AAu?$AAb?$AAs?$AAc?$AAr?$AAi@ 0048c798     DraggingDemo.obj
 0002:000017e4       ??_C@_0BP@OLDKBHLM@map?1set?5iterators?5incompatible@ 0048c7e4     DraggingDemo.obj
 0002:00001810       ??_C@_0GA@KGIDJNKO@C?3?2Program?5Files?2Microsoft?5Visu@ 0048c810     DraggingDemo.obj
 0002:00001888       ??_C@_1MA@MCMECMEA@?$AAC?$AA?3?$AA?2?$AAP?$AAr?$AAo?$AAg?$AAr?$AAa?$AAm?$AA?5?$AAF?$AAi?$AAl?$AAe@ 0048c888     DraggingDemo.obj
 0002:00001970       ??_C@_1EC@JLIDLCDH@?$AA?$CC?$AAm?$AAa?$AAp?$AA?1?$AAs?$AAe?$AAt?$AA?5?$AAi?$AAt?$AAe?$AAr?$AAa?$AAt@ 0048c970     DraggingDemo.obj
 0002:000019c0       ??_C@_0DG@LCFNIIPB@cannot?5dereference?5value?9initia@ 0048c9c0     DraggingDemo.obj
 0002:00001a00       ??_C@_1HA@ILGCNILF@?$AA?$CC?$AAc?$AAa?$AAn?$AAn?$AAo?$AAt?$AA?5?$AAd?$AAe?$AAr?$AAe?$AAf?$AAe?$AAr@ 0048ca00     DraggingDemo.obj
 0002:00001a88       ??_C@_0CI@OKFEHCEB@cannot?5dereference?5end?5map?1set?5@ 0048ca88     DraggingDemo.obj
 0002:00001ab8       ??_C@_1FE@NKHAAGMB@?$AA?$CC?$AAc?$AAa?$AAn?$AAn?$AAo?$AAt?$AA?5?$AAd?$AAe?$AAr?$AAe?$AAf?$AAe?$AAr@ 0048cab8     DraggingDemo.obj
 0002:00001b1c       ??_C@_0DG@KGHKKGBC@null?5pointer?5cannot?5point?5to?5a?5@ 0048cb1c     DraggingDemo.obj
 0002:00001b60       ??_C@_1HA@FACCKGGH@?$AA?$CC?$AAn?$AAu?$AAl?$AAl?$AA?5?$AAp?$AAo?$AAi?$AAn?$AAt?$AAe?$AAr?$AA?5?$AAc@ 0048cb60     DraggingDemo.obj
 0002:00001be8       ??_C@_0GD@FNDLHLBF@C?3?2Program?5Files?2Microsoft?5Visu@ 0048cbe8     DraggingDemo.obj
 0002:00001c60       ??_C@_1MG@IGPIFECL@?$AAC?$AA?3?$AA?2?$AAP?$AAr?$AAo?$AAg?$AAr?$AAa?$AAm?$AA?5?$AAF?$AAi?$AAl?$AAe@ 0048cc60     DraggingDemo.obj
 0002:00001d50       ??_C@_0DA@GGPHOHEL@map?1set?5erase?5iterator?5from?5inc@ 0048cd50     DraggingDemo.obj
 0002:00001d90       ??_C@_1GE@FENJBJJO@?$AA?$CC?$AAm?$AAa?$AAp?$AA?1?$AAs?$AAe?$AAt?$AA?5?$AAe?$AAr?$AAa?$AAs?$AAe?$AA?5@ 0048cd90     DraggingDemo.obj
 0002:00001e08       ??_C@_0CE@JAJNKOFK@cannot?5erase?5map?1set?5end?$CI?$CJ?5iter@ 0048ce08     DraggingDemo.obj
 0002:00001e38       ??_C@_1EM@MEAEPHLP@?$AA?$CC?$AAc?$AAa?$AAn?$AAn?$AAo?$AAt?$AA?5?$AAe?$AAr?$AAa?$AAs?$AAe?$AA?5?$AAm@ 0048ce38     DraggingDemo.obj
 0002:00001e98       ??_7?$_Ref_count@VRawImageData@@@std@@6B@ 0048ce98     DraggingDemo.obj
 0002:00001eac       ??_C@_0BA@FOIKENOD@vector?5too?5long@ 0048ceac     DraggingDemo.obj
 0002:00001ec0       ??_C@_0BD@FEEMDEPI@invalid?5comparator@ 0048cec0     DraggingDemo.obj
 0002:00001ed8       ??_C@_1CK@NDNHPKPI@?$AA?$CC?$AAi?$AAn?$AAv?$AAa?$AAl?$AAi?$AAd?$AA?5?$AAc?$AAo?$AAm?$AAp?$AAa?$AAr@ 0048ced8     DraggingDemo.obj
 0002:00001f10       ?MY_PI@DrawingSurface@@2NB 0048cf10     DrawingSurface.obj
 0002:00002330       ??_C@_0LN@HOLHFHJI@WARNING?3?5Attempted?5blit?5to?5lock@ 0048d330     DrawingSurface.obj
 0002:00002418       __real@3fe0000000000000    0048d418     DrawingSurface.obj
 0002:00002428       __real@3fe0c152382d7365    0048d428     DrawingSurface.obj
 0002:00002438       __real@3ff0000000000000    0048d438     DrawingSurface.obj
 0002:00002448       __real@3ff8000000000000    0048d448     DrawingSurface.obj
 0002:00002458       __real@3ff921fb54442d18    0048d458     DrawingSurface.obj
 0002:00002468       __real@4000000000000000    0048d468     DrawingSurface.obj
 0002:00002478       __real@4008000000000000    0048d478     DrawingSurface.obj
 0002:00002488       __real@400921fb54442d18    0048d488     DrawingSurface.obj
 0002:00002498       __real@400f6a7a2955385e    0048d498     DrawingSurface.obj
 0002:000024a8       __real@4010000000000000    0048d4a8     DrawingSurface.obj
 0002:000024b8       __real@401921fb54442d18    0048d4b8     DrawingSurface.obj
 0002:000028e0       ??_7FlashingDemo@@6BDisplayableObjectContainer@@@ 0048d8e0     FlashingDemo.obj
 0002:0000298c       ??_7FlashingDemo@@6BFilterPoints@@@ 0048d98c     FlashingDemo.obj
 0002:00002e5c       ??_7TileManager@@6B@       0048de5c     gameSetupState.obj
 0002:00002e6c       ??_7Psyeb10TileManager@@6B@ 0048de6c     gameSetupState.obj
 0002:00002e7c       ??_7Psyeb10States@@6B@     0048de7c     gameSetupState.obj
 0002:00002eb8       ??_7gameSetupState@@6B@    0048deb8     gameSetupState.obj
 0002:00002ef4       ??_7gameState@@6B@         0048def4     gameSetupState.obj
 0002:00002f2c       __real@3e4ccccd            0048df2c     gameSetupState.obj
 0002:00002f30       __real@3fc999999999999a    0048df30     gameSetupState.obj
 0002:00002f40       __real@3fe6666666666666    0048df40     gameSetupState.obj
 0002:00002f4c       __real@40c90fd0            0048df4c     gameSetupState.obj
 0002:00002f50       __real@41f00000            0048df50     gameSetupState.obj
 0002:000034a0       ??_7bad_cast@std@@6B@      0048e4a0     gameState.obj
 0002:000034ac       ??_C@_08EPJLHIJG@bad?5cast@ 0048e4ac     gameState.obj
 0002:000034b8       ??_C@_0BG@HGEDEDEC@invalid?5stoi?5argument@ 0048e4b8     gameState.obj
 0002:000034d4       ??_C@_0BL@MFFNMGGC@stoi?5argument?5out?5of?5range@ 0048e4d4     gameState.obj
 0002:000034f8       ??_7menuTileManager@@6B@   0048e4f8     gameState.obj
 0002:00003508       ??_7pauseState@@6B@        0048e508     gameState.obj
 0002:00003544       ??_7?$basic_stringbuf@DU?$char_traits@D@std@@V?$allocator@D@2@@std@@6B@ 0048e544     gameState.obj
 0002:00003590       ??_7?$basic_stringstream@DU?$char_traits@D@std@@V?$allocator@D@2@@std@@6B@ 0048e590     gameState.obj
 0002:00003598       ??_8?$basic_stringstream@DU?$char_traits@D@std@@V?$allocator@D@2@@std@@7B?$basic_istream@DU?$char_traits@D@std@@@1@@ 0048e598     gameState.obj
 0002:000035a4       ??_8?$basic_stringstream@DU?$char_traits@D@std@@V?$allocator@D@2@@std@@7B?$basic_ostream@DU?$char_traits@D@std@@@1@@ 0048e5a4     gameState.obj
 0002:000035b4       ??_7?$basic_filebuf@DU?$char_traits@D@std@@@std@@6B@ 0048e5b4     gameState.obj
 0002:00003600       ??_7?$basic_ifstream@DU?$char_traits@D@std@@@std@@6B@ 0048e600     gameState.obj
 0002:00003608       ??_8?$basic_ifstream@DU?$char_traits@D@std@@@std@@7B@ 0048e608     gameState.obj
 0002:00003618       ??_7?$basic_ofstream@DU?$char_traits@D@std@@@std@@6B@ 0048e618     gameState.obj
 0002:00003658       ??_C@_1GM@FNBFNBEL@?$AA?$CC?$AAc?$AAa?$AAn?$AA?8?$AAt?$AA?5?$AAd?$AAe?$AAr?$AAe?$AAf?$AAe?$AAr?$AAe@ 0048e658     gameState.obj
 0002:000036dc       ??_8?$basic_ofstream@DU?$char_traits@D@std@@@std@@7B@ 0048e6dc     gameState.obj
 0002:00003718       ??_C@_1GA@CLCDIGKJ@?$AA?$CC?$AAc?$AAa?$AAn?$AA?8?$AAt?$AA?5?$AAd?$AAe?$AAr?$AAe?$AAf?$AAe?$AAr?$AAe@ 0048e718     gameState.obj
 0002:0000378c       ??_C@_0DE@CHADHGFF@can?8t?5dereference?5value?9initial@ 0048e78c     gameState.obj
 0002:000037c8       ??_C@_1GC@JDCKOLAC@?$AA?$CC?$AAc?$AAa?$AAn?$AA?8?$AAt?$AA?5?$AAd?$AAe?$AAr?$AAe?$AAf?$AAe?$AAr?$AAe@ 0048e7c8     gameState.obj
 0002:00003840       ??_C@_0GC@FNCHOKOO@C?3?2Program?5Files?2Microsoft?5Visu@ 0048e840     gameState.obj
 0002:000038b8       ??_C@_1ME@PMJNHHAB@?$AAC?$AA?3?$AA?2?$AAP?$AAr?$AAo?$AAg?$AAr?$AAa?$AAm?$AA?5?$AAF?$AAi?$AAl?$AAe@ 0048e8b8     gameState.obj
 0002:000039a4       ??_C@_0CO@PGFNEDAH@can?8t?5dereference?5invalidated?5v@ 0048e9a4     gameState.obj
 0002:000039e0       ??_C@_1GI@EDCILPL@?$AA?$CC?$AAc?$AAa?$AAn?$AA?8?$AAt?$AA?5?$AAi?$AAn?$AAc?$AAr?$AAe?$AAm?$AAe?$AAn@ 0048e9e0     gameState.obj
 0002:00003a5c       ??_C@_0CP@MDHADBHN@can?8t?5dereference?5out?5of?5range?5@ 0048ea5c     gameState.obj
 0002:00003a90       ??_C@_1FM@ICPJNHLL@?$AA?$CC?$AAc?$AAa?$AAn?$AA?8?$AAt?$AA?5?$AAi?$AAn?$AAc?$AAr?$AAe?$AAm?$AAe?$AAn@ 0048ea90     gameState.obj
 0002:00003b00       ??_C@_0DC@KEKNBAEB@can?8t?5increment?5value?9initializ@ 0048eb00     gameState.obj
 0002:00003b38       ??_C@_1FG@LDPPKMGP@?$AA?$CC?$AAc?$AAa?$AAn?$AA?8?$AAt?$AA?5?$AAi?$AAn?$AAc?$AAr?$AAe?$AAm?$AAe?$AAn@ 0048eb38     gameState.obj
 0002:00003bc8       ??_C@_1EC@DINNLDHA@?$AA?$CC?$AAf?$AAr?$AAo?$AAn?$AAt?$AA?$CI?$AA?$CJ?$AA?5?$AAc?$AAa?$AAl?$AAl?$AAe?$AAd@ 0048ebc8     gameState.obj
 0002:00003c40       ??_C@_1EA@DJDGNIII@?$AA?$CC?$AAv?$AAe?$AAc?$AAt?$AAo?$AAr?$AA?5?$AAi?$AAt?$AAe?$AAr?$AAa?$AAt?$AAo@ 0048ec40     gameState.obj
 0002:0000410c       ??_7MappableImageObject@@6B@ 0048f10c     ImageMappingDemo.obj
 0002:00004160       __real@3f1a36e2eb1c432d    0048f160     ImageMappingDemo.obj
 0002:00004170       __real@4059000000000000    0048f170     ImageMappingDemo.obj
 0002:00004180       __real@c059000000000000    0048f180     ImageMappingDemo.obj
 0002:000043c8       ??_7ImagePixelMapping@@6B@ 0048f3c8     ImagePixelMappingRotate90.obj
 0002:000043d8       ??_7ImagePixelMappingRotate90@@6B@ 0048f3d8     ImagePixelMappingRotate90.obj
 0002:0000481c       ??_7MainCharacter@@6B@     0048f81c     MainCharacter.obj
 0002:00004864       ??_C@_0BJ@HAJGEHKO@transposed?5pointer?5range@ 0048f864     MainCharacter.obj
 0002:00004884       ??_C@_1DG@FJIKMGFD@?$AA?$CC?$AAt?$AAr?$AAa?$AAn?$AAs?$AAp?$AAo?$AAs?$AAe?$AAd?$AA?5?$AAp?$AAo?$AAi@ 0048f884     MainCharacter.obj
 0002:0000519c       ??_7FilterPoints@@6B@      0049019c     BaseEngine.obj
 0002:000051b8       ??_7DisplayableObjectContainer@@6B@ 004901b8     BaseEngine.obj
 0002:000051c8       ??_7BaseEngine@@6BDisplayableObjectContainer@@@ 004901c8     BaseEngine.obj
 0002:00005274       ??_7BaseEngine@@6BFilterPoints@@@ 00490274     BaseEngine.obj
 0002:0000528c       ??_C@_0DI@PBEELKIF@vector?5iterators?5in?5range?5are?5f@ 0049028c     BaseEngine.obj
 0002:000052d0       ??_C@_1HE@KBMFDAFB@?$AA?$CC?$AAv?$AAe?$AAc?$AAt?$AAo?$AAr?$AA?5?$AAi?$AAt?$AAe?$AAr?$AAa?$AAt?$AAo@ 004902d0     BaseEngine.obj
 0002:0000535c       ??_C@_0CB@LIAHLBAO@vector?5iterator?5range?5transpose@ 0049035c     BaseEngine.obj
 0002:00005388       ??_C@_1EG@ODKBEHFN@?$AA?$CC?$AAv?$AAe?$AAc?$AAt?$AAo?$AAr?$AA?5?$AAi?$AAt?$AAe?$AAr?$AAa?$AAt?$AAo@ 00490388     BaseEngine.obj
 0002:000057f8       ??_7DisplayableObject@@6B@ 004907f8     DisplayableObject.obj
 0002:00005aac       ??_C@_0BI@GMOFELCF@Free?5font?3?5?$CFd?5point?5?$CFs?6@ 00490aac     FontManager.obj
 0002:00005fb0       ??_7mainMenuState@@6B@     00490fb0     mainMenuState.obj
 0002:00006938       ??_7MyObjectB@@6B@         00491938     MyDemoA.obj
 0002:00007c38       ??_7Psyeb10Bike@@6B@       00492c38     Psyeb10Bike.obj
 0002:000081bc       ??_7Psyeb10Enemy@@6B@      004931bc     Psyeb10Enemy.obj
 0002:00008204       ??_C@_0CE@FFEOOBMH@vector?$DMbool?$DO?5subscript?5out?5of?5r@ 00493204     Psyeb10Enemy.obj
 0002:00008230       ??_C@_1EM@HCHFCCIP@?$AA?$CC?$AAv?$AAe?$AAc?$AAt?$AAo?$AAr?$AA?$DM?$AAb?$AAo?$AAo?$AAl?$AA?$DO?$AA?5?$AAs@ 00493230     Psyeb10Enemy.obj
 0002:0000828c       ??_C@_0CE@EAMOGAIE@vector?5erase?5iterator?5outside?5r@ 0049328c     Psyeb10Enemy.obj
 0002:000082b8       ??_C@_1EM@BEMPOGMM@?$AA?$CC?$AAv?$AAe?$AAc?$AAt?$AAo?$AAr?$AA?5?$AAe?$AAr?$AAa?$AAs?$AAe?$AA?5?$AAi@ 004932b8     Psyeb10Enemy.obj
 0002:00008314       ??_C@_0DL@EIIPGNKA@cannot?5dereference?5value?9initia@ 00493314     Psyeb10Enemy.obj
 0002:00008360       ??_C@_1HK@NLJEKNBE@?$AA?$CC?$AAc?$AAa?$AAn?$AAn?$AAo?$AAt?$AA?5?$AAd?$AAe?$AAr?$AAe?$AAf?$AAe?$AAr@ 00493360     Psyeb10Enemy.obj
 0002:000083f4       ??_C@_0CK@FLJLFEAD@vector?$DMbool?$DO?5iterator?5not?5deref@ 004933f4     Psyeb10Enemy.obj
 0002:00008428       ??_C@_1FI@IBAHAGLP@?$AA?$CC?$AAv?$AAe?$AAc?$AAt?$AAo?$AAr?$AA?$DM?$AAb?$AAo?$AAo?$AAl?$AA?$DO?$AA?5?$AAi@ 00493428     Psyeb10Enemy.obj
 0002:00008494       ??_C@_0BH@EDKEEENI@deque?5empty?5before?5pop@ 00493494     Psyeb10Enemy.obj
 0002:000084b0       ??_C@_0GA@IBIEONOC@C?3?2Program?5Files?2Microsoft?5Visu@ 004934b0     Psyeb10Enemy.obj
 0002:00008528       ??_C@_1MA@IOODGDJD@?$AAC?$AA?3?$AA?2?$AAP?$AAr?$AAo?$AAg?$AAr?$AAa?$AAm?$AA?5?$AAF?$AAi?$AAl?$AAe@ 00493528     Psyeb10Enemy.obj
 0002:00008610       ??_C@_1DC@NJAACHCD@?$AA?$CC?$AAd?$AAe?$AAq?$AAu?$AAe?$AA?5?$AAe?$AAm?$AAp?$AAt?$AAy?$AA?5?$AAb?$AAe@ 00493610     Psyeb10Enemy.obj
 0002:0000864c       ??_C@_0BO@PEOHNLIM@front?$CI?$CJ?5called?5on?5empty?5deque@ 0049364c     Psyeb10Enemy.obj
 0002:00008670       ??_C@_1EA@EELNAHHD@?$AA?$CC?$AAf?$AAr?$AAo?$AAn?$AAt?$AA?$CI?$AA?$CJ?$AA?5?$AAc?$AAa?$AAl?$AAl?$AAe?$AAd@ 00493670     Psyeb10Enemy.obj
 0002:000086bc       ??_C@_0BG@EOMJEIFA@vector?$DMbool?$DO?5too?5long@ 004936bc     Psyeb10Enemy.obj
 0002:000086d8       ??_C@_0CO@LHPFLLJB@cannot?5seek?5value?9initialized?5v@ 004936d8     Psyeb10Enemy.obj
 0002:00008710       ??_C@_1GA@EIHBFEJD@?$AA?$CC?$AAc?$AAa?$AAn?$AAn?$AAo?$AAt?$AA?5?$AAs?$AAe?$AAe?$AAk?$AA?5?$AAv?$AAa@ 00493710     Psyeb10Enemy.obj
 0002:00008784       ??_C@_0CI@OOHCOPKB@cannot?5seek?5invalidated?5vector?5@ 00493784     Psyeb10Enemy.obj
 0002:000087b8       ??_C@_1FE@NGOHPDCL@?$AA?$CC?$AAc?$AAa?$AAn?$AAn?$AAo?$AAt?$AA?5?$AAs?$AAe?$AAe?$AAk?$AA?5?$AAi?$AAn@ 004937b8     Psyeb10Enemy.obj
 0002:0000881c       ??_C@_0CJ@DIFMEJBE@cannot?5seek?5vector?5iterator?5bef@ 0049381c     Psyeb10Enemy.obj
 0002:00008850       ??_C@_1FG@JCGKNFIB@?$AA?$CC?$AAc?$AAa?$AAn?$AAn?$AAo?$AAt?$AA?5?$AAs?$AAe?$AAe?$AAk?$AA?5?$AAv?$AAe@ 00493850     Psyeb10Enemy.obj
 0002:000088b8       ??_C@_0CG@JDIOCKHH@cannot?5seek?5vector?5iterator?5aft@ 004938b8     Psyeb10Enemy.obj
 0002:000088e8       ??_C@_1FA@LCODAPOP@?$AA?$CC?$AAc?$AAa?$AAn?$AAn?$AAo?$AAt?$AA?5?$AAs?$AAe?$AAe?$AAk?$AA?5?$AAv?$AAe@ 004938e8     Psyeb10Enemy.obj
 0002:00008948       ??_C@_0BH@BANGMCFP@_Allocsize?5?$DO?$DN?5_Newsize@ 00493948     Psyeb10Enemy.obj
 0002:00008964       ??_C@_1DC@MABCNPLG@?$AA?$CC?$AA_?$AAA?$AAl?$AAl?$AAo?$AAc?$AAs?$AAi?$AAz?$AAe?$AA?5?$AA?$DO?$AA?$DN?$AA?5@ 00493964     Psyeb10Enemy.obj
 0002:000089a0       ??_C@_0BC@KBDMBKEH@deque?$DMT?$DO?5too?5long@ 004939a0     Psyeb10Enemy.obj
 0002:000089b8       __real@3fe999999999999a    004939b8     Psyeb10Enemy.obj
 0002:000089c8       __real@3fee666666666666    004939c8     Psyeb10Enemy.obj
 0002:000089d8       __real@3ff0cccccccccccd    004939d8     Psyeb10Enemy.obj
 0002:000089e8       __real@3ff199999999999a    004939e8     Psyeb10Enemy.obj
 0002:000089f8       __real@3ff3333333333333    004939f8     Psyeb10Enemy.obj
 0002:00008a08       __real@4051800000000000    00493a08     Psyeb10Enemy.obj
 0002:00008a18       __real@4062c00000000000    00493a18     Psyeb10Enemy.obj
 0002:00008a28       __real@4064000000000000    00493a28     Psyeb10Enemy.obj
 0002:00008a38       __real@bff0000000000000    00493a38     Psyeb10Enemy.obj
 0002:00008e60       ??_7Psyeb10Engine@@6BDisplayableObjectContainer@@@ 00493e60     Psyeb10Engine.obj
 0002:00008f0c       ??_7Psyeb10Engine@@6BFilterPoints@@@ 00493f0c     Psyeb10Engine.obj
 0002:00009bac       ??_C@_0CB@EJBNKHHC@invalid?5to?5pop_back?5empty?5strin@ 00494bac     scoreBoardState.obj
 0002:00009bd8       ??_C@_1EG@GNALHNOG@?$AA?$CC?$AAi?$AAn?$AAv?$AAa?$AAl?$AAi?$AAd?$AA?5?$AAt?$AAo?$AA?5?$AAp?$AAo?$AAp@ 00494bd8     scoreBoardState.obj
 0002:00009c30       ??_7CroppedImagePixelMapping@@6B@ 00494c30     SimpleImage.obj
 0002:0000a524       ??_7BouncingObject@@6B@    00495524     SimpleDemo.obj
 0002:0000a568       __real@0000000000000000    00495568     SimpleDemo.obj
 0002:0000a578       __real@3f747ae147ae147b    00495578     SimpleDemo.obj
 0002:0000a588       __real@4004000000000000    00495588     SimpleDemo.obj
 0002:0000a598       __real@400c000000000000    00495598     SimpleDemo.obj
 0002:0000a5a8       __real@4069000000000000    004955a8     SimpleDemo.obj
 0002:0000a5b8       __real@4072c00000000000    004955b8     SimpleDemo.obj
 0002:0000a5d0       __xmm@80000000000000008000000000000000 004955d0     SimpleDemo.obj
 0002:0000aa00       ??_7StarfieldDemo@@6BDisplayableObjectContainer@@@ 00495a00     StarfieldDemo.obj
 0002:0000aaac       ??_7StarfieldDemo@@6BFilterPoints@@@ 00495aac     StarfieldDemo.obj
 0002:0000b2f8       ??_7BouncingBall@@6B@      004962f8     BouncingBall.obj
 0002:0000b33c       ??_7BouncingBall1@@6B@     0049633c     BouncingBall.obj
 0002:0000b380       ??_7BouncingBall2@@6B@     00496380     BouncingBall.obj
 0002:0000b3c0       __real@3f847ae147ae147b    004963c0     BouncingBall.obj
 0002:0000b828       __real@4049000000000000    00496828     BouncingBallMain.obj
 0002:0000b838       __real@4066800000000000    00496838     BouncingBallMain.obj
 0002:0000b848       __real@406f400000000000    00496848     BouncingBallMain.obj
 0002:0000b858       __real@4071300000000000    00496858     BouncingBallMain.obj
 0002:0000b868       __real@4074500000000000    00496868     BouncingBallMain.obj
 0002:0000b878       __real@4075e00000000000    00496878     BouncingBallMain.obj
 0002:0000b888       __real@4077700000000000    00496888     BouncingBallMain.obj
 0002:0000b898       __real@4079000000000000    00496898     BouncingBallMain.obj
 0002:0000b8a8       __real@4079a00000000000    004968a8     BouncingBallMain.obj
 0002:0000b8b8       __real@407c200000000000    004968b8     BouncingBallMain.obj
 0002:0000b8c8       __real@407f400000000000    004968c8     BouncingBallMain.obj
 0002:0000b8d8       __real@4081300000000000    004968d8     BouncingBallMain.obj
 0002:0000b8e8       __real@4082c00000000000    004968e8     BouncingBallMain.obj
 0002:0000b8f8       __real@4084500000000000    004968f8     BouncingBallMain.obj
 0002:0000b908       __real@4087700000000000    00496908     BouncingBallMain.obj
 0002:0000bdd0       ??_7SimpleFlashingDragableImageObject@@6B@ 00496dd0     ZoomingDemo.obj
 0002:0000c3c4       ??_7MazeDemoTileManager@@6B@ 004973c4     MazeDemoMain.obj
 0002:0000c3d4       ??_7MazeDemoMain@@6BDisplayableObjectContainer@@@ 004973d4     MazeDemoMain.obj
 0002:0000c480       ??_7MazeDemoMain@@6BFilterPoints@@@ 00497480     MazeDemoMain.obj
 0002:0000c8b0       ??_7MazeDemoObject@@6B@    004978b0     MazeDemoObject.obj
 0002:0000fc1c       __real@7f800000            0049ac1c     msvcprtd:vector_algorithms.obj
 0002:0000fc20       __real@7ff0000000000000    0049ac20     msvcprtd:vector_algorithms.obj
 0002:0000fc2c       __real@ff800000            0049ac2c     msvcprtd:vector_algorithms.obj
 0002:0000fc30       __real@fff0000000000000    0049ac30     msvcprtd:vector_algorithms.obj
 0002:0000fc40       __xmm@00000000000000000101010101010101 0049ac40     msvcprtd:vector_algorithms.obj
 0002:0000fc60       __xmm@00000000000000010000000000000001 0049ac60     msvcprtd:vector_algorithms.obj
 0002:0000fc80       __xmm@00000000010101010202020203030303 0049ac80     msvcprtd:vector_algorithms.obj
 0002:0000fca0       __xmm@00000001000000010000000100000001 0049aca0     msvcprtd:vector_algorithms.obj
 0002:0000fcc0       __xmm@00010001000100010001000100010001 0049acc0     msvcprtd:vector_algorithms.obj
 0002:0000fce0       __xmm@00010002000400080010002000400080 0049ace0     msvcprtd:vector_algorithms.obj
 0002:0000fd00       __xmm@000102030405060708090a0b0c0d0e0f 0049ad00     msvcprtd:vector_algorithms.obj
 0002:0000fd20       __xmm@010003020504070609080b0a0d0c0f0e 0049ad20     msvcprtd:vector_algorithms.obj
 0002:0000fd40       __xmm@01010101010101010101010101010101 0049ad40     msvcprtd:vector_algorithms.obj
 0002:0000fd60       __xmm@01020408102040800102040810204080 0049ad60     msvcprtd:vector_algorithms.obj
 0002:0000fd80       __xmm@0d0c0f0e09080b0a0504070601000302 0049ad80     msvcprtd:vector_algorithms.obj
 0002:0000fda0       __xmm@0e0f0c0d0a0b08090607040502030001 0049ada0     msvcprtd:vector_algorithms.obj
 0002:0000fdc0       __xmm@ffffffffffffffff00020406080a0c0e 0049adc0     msvcprtd:vector_algorithms.obj
 0002:0000fde0       __xmm@ffffffffffffffffffffffffffffffff 0049ade0     msvcprtd:vector_algorithms.obj
 0002:0000fe00       __ymm@0000000000000001000000000000000100000000000000010000000000000001 0049ae00     msvcprtd:vector_algorithms.obj
 0002:0000fe40       __ymm@0000000000000001000000020000000300000004000000050000000600000007 0049ae40     msvcprtd:vector_algorithms.obj
 0002:0000fe80       __ymm@0000000100000001000000010000000100000001000000010000000100000001 0049ae80     msvcprtd:vector_algorithms.obj
 0002:0000fec0       __ymm@0000000300000003000000020000000200000001000000010000000000000000 0049aec0     msvcprtd:vector_algorithms.obj
 0002:0000ff00       __ymm@0000000700000006000000050000000400000003000000020000000100000000 0049af00     msvcprtd:vector_algorithms.obj
 0002:0000ff40       __ymm@0001000100010001000100010001000100010001000100010001000100010001 0049af40     msvcprtd:vector_algorithms.obj
 0002:0000ff80       __ymm@0001000200040008001000200040008000010002000400080010002000400080 0049af80     msvcprtd:vector_algorithms.obj
 0002:0000ffc0       __ymm@000102030405060708090a0b0c0d0e0f000102030405060708090a0b0c0d0e0f 0049afc0     msvcprtd:vector_algorithms.obj
 0002:00010000       __ymm@00020406080a0c0effffffffffffffffffffffffffffffff00020406080a0c0e 0049b000     msvcprtd:vector_algorithms.obj
 0002:00010040       __ymm@010003020504070609080b0a0d0c0f0e010003020504070609080b0a0d0c0f0e 0049b040     msvcprtd:vector_algorithms.obj
 0002:00010080       __ymm@0101010101010101010101010101010101010101010101010101010101010101 0049b080     msvcprtd:vector_algorithms.obj
 0002:000100c0       __ymm@0102040810204080010204081020408001020408102040800102040810204080 0049b0c0     msvcprtd:vector_algorithms.obj
 0002:00010100       __ymm@ffffffffffffffffffffffffffffffffffffffffffffffffffffffffffffffff 0049b100     msvcprtd:vector_algorithms.obj
 0002:00010128       ??_C@_0DK@PCBCHJKC@D?3?2a?2_work?21?2s?2src?2vctools?2crt?2@ 0049b128     msvcprtd:locale0_implib.obj
 0002:00010174       ??_7type_info@@6B@         0049b174     MSVCRTD:std_type_info_static.obj
 0002:0001017c       ??_C@_0P@GHFPNOJB@bad?5allocation@ 0049b17c     MSVCRTD:throw_bad_alloc.obj
 0002:0001019c       ??_C@_0BJ@HFNMHALN@Out?5of?5memory?5?9?5aborting@ 0049b19c     SDL2main:SDL_windows_main.obj
 0002:000101bc       ??_C@_0M@HFFOIJBL@Fatal?5Error@ 0049b1bc     SDL2main:SDL_windows_main.obj
 0002:000101d0       __load_config_used         0049b1d0     MSVCRTD:loadcfg.obj
 0002:000105c0       ___CastGuardVftablesStart  0049b5c0     MSVCRTD:guard_support.obj
 0002:00010740       ___CastGuardVftablesEnd    0049b740     MSVCRTD:guard_support.obj
 0002:0001088c       ??_R4exception@std@@6B@    0049b88c     DraggingDemo.obj
 0002:000108a4       ??_R3exception@std@@8      0049b8a4     DraggingDemo.obj
 0002:000108b8       ??_R2exception@std@@8      0049b8b8     DraggingDemo.obj
 0002:000108c0       ??_R1A@?0A@EA@exception@std@@8 0049b8c0     DraggingDemo.obj
 0002:000108e4       ??_R4bad_array_new_length@std@@6B@ 0049b8e4     DraggingDemo.obj
 0002:000108fc       ??_R3bad_array_new_length@std@@8 0049b8fc     DraggingDemo.obj
 0002:00010910       ??_R2bad_array_new_length@std@@8 0049b910     DraggingDemo.obj
 0002:00010920       ??_R1A@?0A@EA@bad_array_new_length@std@@8 0049b920     DraggingDemo.obj
 0002:00010944       ??_R1A@?0A@EA@bad_alloc@std@@8 0049b944     DraggingDemo.obj
 0002:00010968       ??_R3bad_alloc@std@@8      0049b968     DraggingDemo.obj
 0002:0001097c       ??_R2bad_alloc@std@@8      0049b97c     DraggingDemo.obj
 0002:00010988       ??_R4bad_alloc@std@@6B@    0049b988     DraggingDemo.obj
 0002:000109a0       ??_R3_Ref_count_base@std@@8 0049b9a0     DraggingDemo.obj
 0002:000109b4       ??_R2_Ref_count_base@std@@8 0049b9b4     DraggingDemo.obj
 0002:000109bc       ??_R1A@?0A@EA@_Ref_count_base@std@@8 0049b9bc     DraggingDemo.obj
 0002:000109e0       ??_R4DragableBaseClassObject@@6B@ 0049b9e0     DraggingDemo.obj
 0002:000109f8       ??_R3DragableBaseClassObject@@8 0049b9f8     DraggingDemo.obj
 0002:00010a0c       ??_R2DragableBaseClassObject@@8 0049ba0c     DraggingDemo.obj
 0002:00010a18       ??_R1A@?0A@EA@DragableBaseClassObject@@8 0049ba18     DraggingDemo.obj
 0002:00010a3c       ??_R1A@?0A@EA@DisplayableObject@@8 0049ba3c     DraggingDemo.obj
 0002:00010a60       ??_R3DisplayableObject@@8  0049ba60     DraggingDemo.obj
 0002:00010a74       ??_R2DisplayableObject@@8  0049ba74     DraggingDemo.obj
 0002:00010a7c       ??_R4DragableObject@@6B@   0049ba7c     DraggingDemo.obj
 0002:00010a94       ??_R3DragableObject@@8     0049ba94     DraggingDemo.obj
 0002:00010aa8       ??_R2DragableObject@@8     0049baa8     DraggingDemo.obj
 0002:00010ab8       ??_R1A@?0A@EA@DragableObject@@8 0049bab8     DraggingDemo.obj
 0002:00010adc       ??_R4DragableImageObject@@6B@ 0049badc     DraggingDemo.obj
 0002:00010af4       ??_R3DragableImageObject@@8 0049baf4     DraggingDemo.obj
 0002:00010b08       ??_R2DragableImageObject@@8 0049bb08     DraggingDemo.obj
 0002:00010b18       ??_R1A@?0A@EA@DragableImageObject@@8 0049bb18     DraggingDemo.obj
 0002:00010b3c       ??_R4ImageObject@@6B@      0049bb3c     DraggingDemo.obj
 0002:00010b54       ??_R3ImageObject@@8        0049bb54     DraggingDemo.obj
 0002:00010b68       ??_R2ImageObject@@8        0049bb68     DraggingDemo.obj
 0002:00010b74       ??_R1A@?0A@EA@ImageObject@@8 0049bb74     DraggingDemo.obj
 0002:00010b98       ??_R4?$_Ref_count@VRawImageData@@@std@@6B@ 0049bb98     DraggingDemo.obj
 0002:00010bb0       ??_R3?$_Ref_count@VRawImageData@@@std@@8 0049bbb0     DraggingDemo.obj
 0002:00010bc4       ??_R2?$_Ref_count@VRawImageData@@@std@@8 0049bbc4     DraggingDemo.obj
 0002:00010bd0       ??_R1A@?0A@EA@?$_Ref_count@VRawImageData@@@std@@8 0049bbd0     DraggingDemo.obj
 0002:00010bf4       ??_R3DisplayableObjectContainer@@8 0049bbf4     FlashingDemo.obj
 0002:00010c08       ??_R2DisplayableObjectContainer@@8 0049bc08     FlashingDemo.obj
 0002:00010c10       ??_R1A@?0A@EA@DisplayableObjectContainer@@8 0049bc10     FlashingDemo.obj
 0002:00010c34       ??_R4FlashingDemo@@6BDisplayableObjectContainer@@@ 0049bc34     FlashingDemo.obj
 0002:00010c4c       ??_R3FlashingDemo@@8       0049bc4c     FlashingDemo.obj
 0002:00010c60       ??_R2FlashingDemo@@8       0049bc60     FlashingDemo.obj
 0002:00010c74       ??_R1A@?0A@EA@FlashingDemo@@8 0049bc74     FlashingDemo.obj
 0002:00010c98       ??_R1A@?0A@EA@BaseEngine@@8 0049bc98     FlashingDemo.obj
 0002:00010cbc       ??_R3BaseEngine@@8         0049bcbc     FlashingDemo.obj
 0002:00010cd0       ??_R2BaseEngine@@8         0049bcd0     FlashingDemo.obj
 0002:00010ce0       ??_R1BM@?0A@EA@FilterPoints@@8 0049bce0     FlashingDemo.obj
 0002:00010d04       ??_R3FilterPoints@@8       0049bd04     FlashingDemo.obj
 0002:00010d18       ??_R2FilterPoints@@8       0049bd18     FlashingDemo.obj
 0002:00010d20       ??_R1A@?0A@EA@FilterPoints@@8 0049bd20     FlashingDemo.obj
 0002:00010d44       ??_R4FlashingDemo@@6BFilterPoints@@@ 0049bd44     FlashingDemo.obj
 0002:00010d5c       ??_R4TileManager@@6B@      0049bd5c     gameSetupState.obj
 0002:00010d74       ??_R3TileManager@@8        0049bd74     gameSetupState.obj
 0002:00010d88       ??_R2TileManager@@8        0049bd88     gameSetupState.obj
 0002:00010d90       ??_R1A@?0A@EA@TileManager@@8 0049bd90     gameSetupState.obj
 0002:00010db4       ??_R4Psyeb10TileManager@@6B@ 0049bdb4     gameSetupState.obj
 0002:00010dcc       ??_R3Psyeb10TileManager@@8 0049bdcc     gameSetupState.obj
 0002:00010de0       ??_R2Psyeb10TileManager@@8 0049bde0     gameSetupState.obj
 0002:00010dec       ??_R1A@?0A@EA@Psyeb10TileManager@@8 0049bdec     gameSetupState.obj
 0002:00010e10       ??_R4Psyeb10States@@6B@    0049be10     gameSetupState.obj
 0002:00010e28       ??_R3Psyeb10States@@8      0049be28     gameSetupState.obj
 0002:00010e3c       ??_R2Psyeb10States@@8      0049be3c     gameSetupState.obj
 0002:00010e44       ??_R1A@?0A@EA@Psyeb10States@@8 0049be44     gameSetupState.obj
 0002:00010e68       ??_R4gameSetupState@@6B@   0049be68     gameSetupState.obj
 0002:00010e80       ??_R3gameSetupState@@8     0049be80     gameSetupState.obj
 0002:00010e94       ??_R2gameSetupState@@8     0049be94     gameSetupState.obj
 0002:00010ea0       ??_R1A@?0A@EA@gameSetupState@@8 0049bea0     gameSetupState.obj
 0002:00010ec4       ??_R4gameState@@6B@        0049bec4     gameSetupState.obj
 0002:00010edc       ??_R3gameState@@8          0049bedc     gameSetupState.obj
 0002:00010ef0       ??_R2gameState@@8          0049bef0     gameSetupState.obj
 0002:00010efc       ??_R1A@?0A@EA@gameState@@8 0049befc     gameSetupState.obj
 0002:00010f20       ??_R4?$basic_stringbuf@DU?$char_traits@D@std@@V?$allocator@D@2@@std@@6B@ 0049bf20     gameState.obj
 0002:00010f38       ??_R3?$basic_stringbuf@DU?$char_traits@D@std@@V?$allocator@D@2@@std@@8 0049bf38     gameState.obj
 0002:00010f4c       ??_R2?$basic_stringbuf@DU?$char_traits@D@std@@V?$allocator@D@2@@std@@8 0049bf4c     gameState.obj
 0002:00010f58       ??_R1A@?0A@EA@?$basic_stringbuf@DU?$char_traits@D@std@@V?$allocator@D@2@@std@@8 0049bf58     gameState.obj
 0002:00010f7c       ??_R1A@?0A@EA@?$basic_streambuf@DU?$char_traits@D@std@@@std@@8 0049bf7c     gameState.obj
 0002:00010fa0       ??_R3?$basic_streambuf@DU?$char_traits@D@std@@@std@@8 0049bfa0     gameState.obj
 0002:00010fb4       ??_R2?$basic_streambuf@DU?$char_traits@D@std@@@std@@8 0049bfb4     gameState.obj
 0002:00010fbc       ??_R4?$basic_stringstream@DU?$char_traits@D@std@@V?$allocator@D@2@@std@@6B@ 0049bfbc     gameState.obj
 0002:00010fd4       ??_R3?$basic_stringstream@DU?$char_traits@D@std@@V?$allocator@D@2@@std@@8 0049bfd4     gameState.obj
 0002:00010fe8       ??_R2?$basic_stringstream@DU?$char_traits@D@std@@V?$allocator@D@2@@std@@8 0049bfe8     gameState.obj
 0002:0001101c       ??_R1A@?0A@EA@?$basic_stringstream@DU?$char_traits@D@std@@V?$allocator@D@2@@std@@8 0049c01c     gameState.obj
 0002:00011040       ??_R1A@?0A@EA@?$basic_iostream@DU?$char_traits@D@std@@@std@@8 0049c040     gameState.obj
 0002:00011064       ??_R3?$basic_iostream@DU?$char_traits@D@std@@@std@@8 0049c064     gameState.obj
 0002:00011078       ??_R2?$basic_iostream@DU?$char_traits@D@std@@@std@@8 0049c078     gameState.obj
 0002:000110a4       ??_R1A@?0A@EA@?$basic_istream@DU?$char_traits@D@std@@@std@@8 0049c0a4     gameState.obj
 0002:000110c8       ??_R3?$basic_istream@DU?$char_traits@D@std@@@std@@8 0049c0c8     gameState.obj
 0002:000110dc       ??_R2?$basic_istream@DU?$char_traits@D@std@@@std@@8 0049c0dc     gameState.obj
 0002:000110f0       ??_R1A@A@3FA@?$basic_ios@DU?$char_traits@D@std@@@std@@8 0049c0f0     gameState.obj
 0002:00011114       ??_R3?$basic_ios@DU?$char_traits@D@std@@@std@@8 0049c114     gameState.obj
 0002:00011128       ??_R2?$basic_ios@DU?$char_traits@D@std@@@std@@8 0049c128     gameState.obj
 0002:00011138       ??_R1A@?0A@EA@?$basic_ios@DU?$char_traits@D@std@@@std@@8 0049c138     gameState.obj
 0002:0001115c       ??_R1A@?0A@EA@ios_base@std@@8 0049c15c     gameState.obj
 0002:00011180       ??_R3ios_base@std@@8       0049c180     gameState.obj
 0002:00011194       ??_R2ios_base@std@@8       0049c194     gameState.obj
 0002:000111a0       ??_R17?0A@EA@?$_Iosb@H@std@@8 0049c1a0     gameState.obj
 0002:000111c4       ??_R3?$_Iosb@H@std@@8      0049c1c4     gameState.obj
 0002:000111d8       ??_R2?$_Iosb@H@std@@8      0049c1d8     gameState.obj
 0002:000111e0       ??_R1A@?0A@EA@?$_Iosb@H@std@@8 0049c1e0     gameState.obj
 0002:00011204       ??_R1A@A@3EA@ios_base@std@@8 0049c204     gameState.obj
 0002:00011228       ??_R17A@3EA@?$_Iosb@H@std@@8 0049c228     gameState.obj
 0002:0001124c       ??_R1BA@?0A@EA@?$basic_ostream@DU?$char_traits@D@std@@@std@@8 0049c24c     gameState.obj
 0002:00011270       ??_R3?$basic_ostream@DU?$char_traits@D@std@@@std@@8 0049c270     gameState.obj
 0002:00011284       ??_R2?$basic_ostream@DU?$char_traits@D@std@@@std@@8 0049c284     gameState.obj
 0002:00011298       ??_R1A@?0A@EA@?$basic_ostream@DU?$char_traits@D@std@@@std@@8 0049c298     gameState.obj
 0002:000112bc       ??_R4?$basic_filebuf@DU?$char_traits@D@std@@@std@@6B@ 0049c2bc     gameState.obj
 0002:000112d4       ??_R3?$basic_filebuf@DU?$char_traits@D@std@@@std@@8 0049c2d4     gameState.obj
 0002:000112e8       ??_R2?$basic_filebuf@DU?$char_traits@D@std@@@std@@8 0049c2e8     gameState.obj
 0002:000112f4       ??_R1A@?0A@EA@?$basic_filebuf@DU?$char_traits@D@std@@@std@@8 0049c2f4     gameState.obj
 0002:00011318       ??_R4?$basic_ifstream@DU?$char_traits@D@std@@@std@@6B@ 0049c318     gameState.obj
 0002:00011330       ??_R3?$basic_ifstream@DU?$char_traits@D@std@@@std@@8 0049c330     gameState.obj
 0002:00011344       ??_R2?$basic_ifstream@DU?$char_traits@D@std@@@std@@8 0049c344     gameState.obj
 0002:00011360       ??_R1A@?0A@EA@?$basic_ifstream@DU?$char_traits@D@std@@@std@@8 0049c360     gameState.obj
 0002:00011384       ??_R4?$basic_ofstream@DU?$char_traits@D@std@@@std@@6B@ 0049c384     gameState.obj
 0002:0001139c       ??_R3?$basic_ofstream@DU?$char_traits@D@std@@@std@@8 0049c39c     gameState.obj
 0002:000113ac       ??_R3pauseState@@8         0049c3ac     gameState.obj
 0002:000113bc       ??_R1A@?0A@EA@?$basic_ofstream@DU?$char_traits@D@std@@@std@@8 0049c3bc     gameState.obj
 0002:000113e0       ??_R4bad_cast@std@@6B@     0049c3e0     gameState.obj
 0002:000113f8       ??_R3bad_cast@std@@8       0049c3f8     gameState.obj
 0002:0001140c       ??_R2bad_cast@std@@8       0049c40c     gameState.obj
 0002:00011418       ??_R1A@?0A@EA@bad_cast@std@@8 0049c418     gameState.obj
 0002:0001143c       ??_R4menuTileManager@@6B@  0049c43c     gameState.obj
 0002:00011454       ??_R3menuTileManager@@8    0049c454     gameState.obj
 0002:00011468       ??_R2menuTileManager@@8    0049c468     gameState.obj
 0002:00011474       ??_R1A@?0A@EA@menuTileManager@@8 0049c474     gameState.obj
 0002:00011498       ??_R4MappableImageObject@@6B@ 0049c498     ImageMappingDemo.obj
 0002:000114b0       ??_R3MappableImageObject@@8 0049c4b0     ImageMappingDemo.obj
 0002:000114c4       ??_R2MappableImageObject@@8 0049c4c4     ImageMappingDemo.obj
 0002:000114d8       ??_R1A@?0A@EA@MappableImageObject@@8 0049c4d8     ImageMappingDemo.obj
 0002:000114fc       ??_R4ImagePixelMapping@@6B@ 0049c4fc     ImagePixelMappingRotate90.obj
 0002:00011514       ??_R3ImagePixelMapping@@8  0049c514     ImagePixelMappingRotate90.obj
 0002:00011528       ??_R2ImagePixelMapping@@8  0049c528     ImagePixelMappingRotate90.obj
 0002:00011530       ??_R1A@?0A@EA@ImagePixelMapping@@8 0049c530     ImagePixelMappingRotate90.obj
 0002:00011554       ??_R4ImagePixelMappingRotate90@@6B@ 0049c554     ImagePixelMappingRotate90.obj
 0002:0001156c       ??_R3ImagePixelMappingRotate90@@8 0049c56c     ImagePixelMappingRotate90.obj
 0002:00011580       ??_R2ImagePixelMappingRotate90@@8 0049c580     ImagePixelMappingRotate90.obj
 0002:0001158c       ??_R1A@?0A@EA@ImagePixelMappingRotate90@@8 0049c58c     ImagePixelMappingRotate90.obj
 0002:000115b0       ??_R4MainCharacter@@6B@    0049c5b0     MainCharacter.obj
 0002:000115c8       ??_R3MainCharacter@@8      0049c5c8     MainCharacter.obj
 0002:000115dc       ??_R2MainCharacter@@8      0049c5dc     MainCharacter.obj
 0002:000115ec       ??_R1A@?0A@EA@MainCharacter@@8 0049c5ec     MainCharacter.obj
 0002:00011610       ??_R1A@?0A@EA@Psyeb10Bike@@8 0049c610     MainCharacter.obj
 0002:00011634       ??_R3Psyeb10Bike@@8        0049c634     MainCharacter.obj
 0002:00011648       ??_R2Psyeb10Bike@@8        0049c648     MainCharacter.obj
 0002:00011654       ??_R4BaseEngine@@6BDisplayableObjectContainer@@@ 0049c654     BaseEngine.obj
 0002:0001166c       ??_R4BaseEngine@@6BFilterPoints@@@ 0049c66c     BaseEngine.obj
 0002:00011684       ??_R4FilterPoints@@6B@     0049c684     BaseEngine.obj
 0002:0001169c       ??_R4DisplayableObjectContainer@@6B@ 0049c69c     BaseEngine.obj
 0002:000116b4       ??_R4DisplayableObject@@6B@ 0049c6b4     DisplayableObject.obj
 0002:000116cc       ??_R4mainMenuState@@6B@    0049c6cc     mainMenuState.obj
 0002:000116e4       ??_R3mainMenuState@@8      0049c6e4     mainMenuState.obj
 0002:000116f8       ??_R2mainMenuState@@8      0049c6f8     mainMenuState.obj
 0002:00011704       ??_R1A@?0A@EA@mainMenuState@@8 0049c704     mainMenuState.obj
 0002:00011728       ??_R4MyObjectB@@6B@        0049c728     MyDemoA.obj
 0002:00011740       ??_R3MyObjectB@@8          0049c740     MyDemoA.obj
 0002:00011754       ??_R2MyObjectB@@8          0049c754     MyDemoA.obj
 0002:00011760       ??_R1A@?0A@EA@MyObjectB@@8 0049c760     MyDemoA.obj
 0002:0001177c       ??_R2?$basic_ofstream@DU?$char_traits@D@std@@@std@@8 0049c77c     gameState.obj
 0002:00011794       ??_R4pauseState@@6B@       0049c794     gameState.obj
 0002:000117a8       ??_R2pauseState@@8         0049c7a8     gameState.obj
 0002:000117b4       ??_R1A@?0A@EA@pauseState@@8 0049c7b4     gameState.obj
 0002:000117f0       ??_R4Psyeb10Bike@@6B@      0049c7f0     Psyeb10Bike.obj
 0002:00011808       ??_R4Psyeb10Enemy@@6B@     0049c808     Psyeb10Enemy.obj
 0002:00011820       ??_R3Psyeb10Enemy@@8       0049c820     Psyeb10Enemy.obj
 0002:00011834       ??_R2Psyeb10Enemy@@8       0049c834     Psyeb10Enemy.obj
 0002:00011844       ??_R1A@?0A@EA@Psyeb10Enemy@@8 0049c844     Psyeb10Enemy.obj
 0002:00011868       ??_R4Psyeb10Engine@@6BDisplayableObjectContainer@@@ 0049c868     Psyeb10Engine.obj
 0002:00011880       ??_R3Psyeb10Engine@@8      0049c880     Psyeb10Engine.obj
 0002:00011894       ??_R2Psyeb10Engine@@8      0049c894     Psyeb10Engine.obj
 0002:000118a8       ??_R1A@?0A@EA@Psyeb10Engine@@8 0049c8a8     Psyeb10Engine.obj
 0002:000118cc       ??_R4Psyeb10Engine@@6BFilterPoints@@@ 0049c8cc     Psyeb10Engine.obj
 0002:000118e4       ??_R4CroppedImagePixelMapping@@6B@ 0049c8e4     SimpleImage.obj
 0002:000118fc       ??_R3CroppedImagePixelMapping@@8 0049c8fc     SimpleImage.obj
 0002:00011910       ??_R2CroppedImagePixelMapping@@8 0049c910     SimpleImage.obj
 0002:0001191c       ??_R1A@?0A@EA@CroppedImagePixelMapping@@8 0049c91c     SimpleImage.obj
 0002:00011940       ??_R4BouncingObject@@6B@   0049c940     SimpleDemo.obj
 0002:00011958       ??_R3BouncingObject@@8     0049c958     SimpleDemo.obj
 0002:0001196c       ??_R2BouncingObject@@8     0049c96c     SimpleDemo.obj
 0002:00011978       ??_R1A@?0A@EA@BouncingObject@@8 0049c978     SimpleDemo.obj
 0002:0001199c       ??_R4StarfieldDemo@@6BDisplayableObjectContainer@@@ 0049c99c     StarfieldDemo.obj
 0002:000119b4       ??_R3StarfieldDemo@@8      0049c9b4     StarfieldDemo.obj
 0002:000119c8       ??_R2StarfieldDemo@@8      0049c9c8     StarfieldDemo.obj
 0002:000119dc       ??_R1A@?0A@EA@StarfieldDemo@@8 0049c9dc     StarfieldDemo.obj
 0002:00011a00       ??_R4StarfieldDemo@@6BFilterPoints@@@ 0049ca00     StarfieldDemo.obj
 0002:00011a18       ??_R4BouncingBall@@6B@     0049ca18     BouncingBall.obj
 0002:00011a30       ??_R3BouncingBall@@8       0049ca30     BouncingBall.obj
 0002:00011a44       ??_R2BouncingBall@@8       0049ca44     BouncingBall.obj
 0002:00011a50       ??_R1A@?0A@EA@BouncingBall@@8 0049ca50     BouncingBall.obj
 0002:00011a74       ??_R4BouncingBall1@@6B@    0049ca74     BouncingBall.obj
 0002:00011a8c       ??_R3BouncingBall1@@8      0049ca8c     BouncingBall.obj
 0002:00011aa0       ??_R2BouncingBall1@@8      0049caa0     BouncingBall.obj
 0002:00011ab0       ??_R1A@?0A@EA@BouncingBall1@@8 0049cab0     BouncingBall.obj
 0002:00011ad4       ??_R4BouncingBall2@@6B@    0049cad4     BouncingBall.obj
 0002:00011aec       ??_R3BouncingBall2@@8      0049caec     BouncingBall.obj
 0002:00011b00       ??_R2BouncingBall2@@8      0049cb00     BouncingBall.obj
 0002:00011b10       ??_R1A@?0A@EA@BouncingBall2@@8 0049cb10     BouncingBall.obj
 0002:00011b34       ??_R4SimpleFlashingDragableImageObject@@6B@ 0049cb34     ZoomingDemo.obj
 0002:00011b4c       ??_R3SimpleFlashingDragableImageObject@@8 0049cb4c     ZoomingDemo.obj
 0002:00011b60       ??_R2SimpleFlashingDragableImageObject@@8 0049cb60     ZoomingDemo.obj
 0002:00011b6c       ??_R1A@?0A@EA@SimpleFlashingDragableImageObject@@8 0049cb6c     ZoomingDemo.obj
 0002:00011b90       ??_R4MazeDemoMain@@6BDisplayableObjectContainer@@@ 0049cb90     MazeDemoMain.obj
 0002:00011ba8       ??_R3MazeDemoMain@@8       0049cba8     MazeDemoMain.obj
 0002:00011bbc       ??_R2MazeDemoMain@@8       0049cbbc     MazeDemoMain.obj
 0002:00011bd0       ??_R1A@?0A@EA@MazeDemoMain@@8 0049cbd0     MazeDemoMain.obj
 0002:00011bf4       ??_R4MazeDemoMain@@6BFilterPoints@@@ 0049cbf4     MazeDemoMain.obj
 0002:00011c0c       ??_R4MazeDemoTileManager@@6B@ 0049cc0c     MazeDemoMain.obj
 0002:00011c24       ??_R3MazeDemoTileManager@@8 0049cc24     MazeDemoMain.obj
 0002:00011c38       ??_R2MazeDemoTileManager@@8 0049cc38     MazeDemoMain.obj
 0002:00011c44       ??_R1A@?0A@EA@MazeDemoTileManager@@8 0049cc44     MazeDemoMain.obj
 0002:00011c68       ??_R4MazeDemoObject@@6B@   0049cc68     MazeDemoObject.obj
 0002:00011c80       ??_R3MazeDemoObject@@8     0049cc80     MazeDemoObject.obj
 0002:00011c94       ??_R2MazeDemoObject@@8     0049cc94     MazeDemoObject.obj
 0002:00011ca0       ??_R1A@?0A@EA@MazeDemoObject@@8 0049cca0     MazeDemoObject.obj
 0002:00011cc4       ??_R4type_info@@6B@        0049ccc4     MSVCRTD:std_type_info_static.obj
 0002:00011cdc       ??_R3type_info@@8          0049ccdc     MSVCRTD:std_type_info_static.obj
 0002:00011cf0       ??_R2type_info@@8          0049ccf0     MSVCRTD:std_type_info_static.obj
 0002:00011cf8       ??_R1A@?0A@EA@type_info@@8 0049ccf8     MSVCRTD:std_type_info_static.obj
 0002:00011ea4       ___safe_se_handler_table   0049cea4     <linker-defined>
 0002:000124e0       ___rtc_iaa                 0049d4e0     MSVCRTD:initsect.obj
 0002:000125e4       ___rtc_izz                 0049d5e4     MSVCRTD:initsect.obj
 0002:000126e8       ___rtc_taa                 0049d6e8     MSVCRTD:initsect.obj
 0002:000127ec       ___rtc_tzz                 0049d7ec     MSVCRTD:initsect.obj
 0002:000130c0       __CT??_R0?AVexception@std@@@8??0exception@std@@QAE@ABV01@@Z12 0049e0c0     DraggingDemo.obj
 0002:000130e0       __TI3?AVbad_array_new_length@std@@ 0049e0e0     DraggingDemo.obj
 0002:000130f4       __CTA3?AVbad_array_new_length@std@@ 0049e0f4     DraggingDemo.obj
 0002:00013108       __CT??_R0?AVbad_array_new_length@std@@@8??0bad_array_new_length@std@@QAE@ABV01@@Z12 0049e108     DraggingDemo.obj
 0002:00013128       __CT??_R0?AVbad_alloc@std@@@8??0bad_alloc@std@@QAE@ABV01@@Z12 0049e128     DraggingDemo.obj
 0002:00013630       __CTA2?AVbad_cast@std@@    0049e630     gameState.obj
 0002:000136ac       __CT??_R0?AVbad_cast@std@@@8??0bad_cast@std@@QAE@ABV01@@Z12 0049e6ac     gameState.obj
 0002:00013728       __TI2?AVbad_cast@std@@     0049e728     gameState.obj
 0002:000151e0       __TI2?AVbad_alloc@std@@    004a01e0     MSVCRTD:throw_bad_alloc.obj
 0002:000151f4       __CTA2?AVbad_alloc@std@@   004a01f4     MSVCRTD:throw_bad_alloc.obj
 0003:00000040       ___security_cookie         004a1040     MSVCRTD:gs_cookie.obj
 0003:00000080       ___security_cookie_complement 004a1080     MSVCRTD:gs_cookie.obj
 0003:00000094       __fltused                  004a1094     MSVCRTD:fltused.obj
 0003:00000098       ___scrt_native_dllmain_reason 004a1098     MSVCRTD:utility.obj
 0003:000000a0       ___isa_inverted            004a10a0     MSVCRTD:cpu_disp.obj
 0003:000000a8       ___isa_enabled             004a10a8     MSVCRTD:cpu_disp.obj
 0003:000000b0       ___scrt_default_matherr    004a10b0     MSVCRTD:matherr.obj
 0003:000000b4       ___scrt_ucrt_dll_is_in_use 004a10b4     MSVCRTD:ucrt_stubs.obj
 0003:000001cc       ??_R0?AVexception@std@@@8  004a11cc     DraggingDemo.obj
 0003:000001f0       ??_R0?AVbad_array_new_length@std@@@8 004a11f0     DraggingDemo.obj
 0003:00000220       ??_R0?AVbad_alloc@std@@@8  004a1220     DraggingDemo.obj
 0003:00000244       ??_R0?AVbad_cast@std@@@8   004a1244     gameState.obj
 0003:00000264       ??_R0?AVPsyeb10Bike@@@8    004a1264     gameState.obj
 0003:00000284       ??_R0?AVPsyeb10Engine@@@8  004a1284     Psyeb10Bike.obj
 0003:000003b0       ??_R0?AV_Ref_count_base@std@@@8 004a13b0     DraggingDemo.obj
 0003:000003d8       ??_R0?AVDragableBaseClassObject@@@8 004a13d8     DraggingDemo.obj
 0003:00000408       ??_R0?AVDisplayableObject@@@8 004a1408     DraggingDemo.obj
 0003:00000430       ??_R0?AVDragableObject@@@8 004a1430     DraggingDemo.obj
 0003:00000454       ??_R0?AVDragableImageObject@@@8 004a1454     DraggingDemo.obj
 0003:0000047c       ??_R0?AVImageObject@@@8    004a147c     DraggingDemo.obj
 0003:0000049c       ??_R0?AV?$_Ref_count@VRawImageData@@@std@@@8 004a149c     DraggingDemo.obj
 0003:000004d4       ??_R0?AVDisplayableObjectContainer@@@8 004a14d4     FlashingDemo.obj
 0003:00000508       ??_R0?AVFlashingDemo@@@8   004a1508     FlashingDemo.obj
 0003:00000528       ??_R0?AVBaseEngine@@@8     004a1528     FlashingDemo.obj
 0003:00000548       ??_R0?AVFilterPoints@@@8   004a1548     FlashingDemo.obj
 0003:00000568       ??_R0?AVTileManager@@@8    004a1568     gameSetupState.obj
 0003:00000588       ??_R0?AVPsyeb10TileManager@@@8 004a1588     gameSetupState.obj
 0003:000005b0       ??_R0?AVPsyeb10States@@@8  004a15b0     gameSetupState.obj
 0003:000005d4       ??_R0?AVgameSetupState@@@8 004a15d4     gameSetupState.obj
 0003:000005f8       ??_R0?AVgameState@@@8      004a15f8     gameSetupState.obj
 0003:00000618       ??_R0?AV?$basic_stringbuf@DU?$char_traits@D@std@@V?$allocator@D@2@@std@@@8 004a1618     gameState.obj
 0003:00000674       ??_R0?AV?$basic_streambuf@DU?$char_traits@D@std@@@std@@@8 004a1674     gameState.obj
 0003:000006c0       ??_R0?AV?$basic_stringstream@DU?$char_traits@D@std@@V?$allocator@D@2@@std@@@8 004a16c0     gameState.obj
 0003:00000720       ??_R0?AV?$basic_iostream@DU?$char_traits@D@std@@@std@@@8 004a1720     gameState.obj
 0003:00000768       ??_R0?AV?$basic_istream@DU?$char_traits@D@std@@@std@@@8 004a1768     gameState.obj
 0003:000007b0       ??_R0?AV?$basic_ios@DU?$char_traits@D@std@@@std@@@8 004a17b0     gameState.obj
 0003:000007f0       ??_R0?AVios_base@std@@@8   004a17f0     gameState.obj
 0003:00000810       ??_R0?AV?$_Iosb@H@std@@@8  004a1810     gameState.obj
 0003:00000834       ??_R0?AV?$basic_ostream@DU?$char_traits@D@std@@@std@@@8 004a1834     gameState.obj
 0003:0000087c       ??_R0?AV?$basic_filebuf@DU?$char_traits@D@std@@@std@@@8 004a187c     gameState.obj
 0003:000008c4       ??_R0?AV?$basic_ifstream@DU?$char_traits@D@std@@@std@@@8 004a18c4     gameState.obj
 0003:00000900       ??_R0?AVpauseState@@@8     004a1900     gameState.obj
 0003:00000930       ??_R0?AVmenuTileManager@@@8 004a1930     gameState.obj
 0003:00000950       ??_R0?AVMappableImageObject@@@8 004a1950     ImageMappingDemo.obj
 0003:00000978       ??_R0?AVImagePixelMapping@@@8 004a1978     ImagePixelMappingRotate90.obj
 0003:000009a0       ??_R0?AVImagePixelMappingRotate90@@@8 004a19a0     ImagePixelMappingRotate90.obj
 0003:000009d0       ??_R0?AVMainCharacter@@@8  004a19d0     MainCharacter.obj
 0003:000009f4       ??_R0?AVmainMenuState@@@8  004a19f4     mainMenuState.obj
 0003:00000a18       ??_R0?AVMyObjectB@@@8      004a1a18     MyDemoA.obj
 0003:00000a30       ??_R0?AV?$basic_ofstream@DU?$char_traits@D@std@@@std@@@8 004a1a30     gameState.obj
 0003:00000a7c       ??_R0?AVPsyeb10Enemy@@@8   004a1a7c     Psyeb10Enemy.obj
 0003:00000a9c       ??_R0?AVCroppedImagePixelMapping@@@8 004a1a9c     SimpleImage.obj
 0003:00000acc       ??_R0?AVBouncingObject@@@8 004a1acc     SimpleDemo.obj
 0003:00000af0       ??_R0?AVStarfieldDemo@@@8  004a1af0     StarfieldDemo.obj
 0003:00000b14       ??_R0?AVBouncingBall@@@8   004a1b14     BouncingBall.obj
 0003:00000b34       ??_R0?AVBouncingBall1@@@8  004a1b34     BouncingBall.obj
 0003:00000b58       ??_R0?AVBouncingBall2@@@8  004a1b58     BouncingBall.obj
 0003:00000b7c       ??_R0?AVSimpleFlashingDragableImageObject@@@8 004a1b7c     ZoomingDemo.obj
 0003:00000bb8       ??_R0?AVMazeDemoMain@@@8   004a1bb8     MazeDemoMain.obj
 0003:00000bd8       ??_R0?AVMazeDemoTileManager@@@8 004a1bd8     MazeDemoMain.obj
 0003:00000c00       ??_R0?AVMazeDemoObject@@@8 004a1c00     MazeDemoObject.obj
 0003:00000c24       ??_R0?AVtype_info@@@8      004a1c24     MSVCRTD:std_type_info_static.obj
 0003:00000d68       ?_OptionsStorage@?1??__local_stdio_printf_options@@9@4_KA 004a1d68     DraggingDemo.obj
 0003:00000d74       ?_Stinit@?1??_Init@?$basic_filebuf@DU?$char_traits@D@std@@@std@@IAEXPAU_iobuf@@W4_Initfl@23@@Z@4U_Mbstatet@@A 004a1d74     gameState.obj
 0003:00000d80       ?_Psave@?$_Facetptr@V?$ctype@D@std@@@std@@2PBVfacet@locale@2@B 004a1d80     gameState.obj
 0003:00000d84       ?_Psave@?$_Facetptr@V?$codecvt@DDU_Mbstatet@@@std@@@std@@2PBVfacet@locale@2@B 004a1d84     gameState.obj
 0003:00000d8c       ?g_pManager@ImageManager@@0PAV1@A 004a1d8c     SimpleImage.obj
 0003:00000d98       ___scrt_current_native_startup_state 004a1d98     MSVCRTD:utility.obj
 0003:00000d9c       ___scrt_native_startup_lock 004a1d9c     MSVCRTD:utility.obj
 0003:00000dc4       ___avx10_version           004a1dc4     MSVCRTD:cpu_disp.obj
 0003:00000dc8       ___isa_available           004a1dc8     MSVCRTD:cpu_disp.obj
 0003:00000dcc       ___favor                   004a1dcc     MSVCRTD:cpu_disp.obj
 0003:00000dd4       ___castguard_check_failure_user_handled_fptr 004a1dd4     MSVCRTD:guard_support.obj
 0003:00000dd8       ?__type_info_root_node@@3U__type_info_node@@A 004a1dd8     MSVCRTD:tncleanup.obj
 0003:00000de8       ?_OptionsStorage@?1??__local_stdio_scanf_options@@9@4_KA 004a1de8     MSVCRTD:default_local_stdio_options.obj
 0003:00000df4       ___scrt_debugger_hook_flag 004a1df4     MSVCRTD:utility_desktop.obj
 0003:000011b4       ___dyn_tls_dtor_callback   004a21b4     <common>
 0003:000011c0       ___dyn_tls_init_callback   004a21c0     <common>
 0004:00000000       __imp__IsProcessorFeaturePresent@4 004a3000     kernel32:KERNEL32.dll
 0004:00000004       __imp__QueryPerformanceCounter@4 004a3004     kernel32:KERNEL32.dll
 0004:00000008       __imp__GetCurrentProcessId@0 004a3008     kernel32:KERNEL32.dll
 0004:0000000c       __imp__GetCurrentThreadId@0 004a300c     kernel32:KERNEL32.dll
 0004:00000010       __imp__GetSystemTimeAsFileTime@4 004a3010     kernel32:KERNEL32.dll
 0004:00000014       __imp__InitializeSListHead@4 004a3014     kernel32:KERNEL32.dll
 0004:00000018       __imp__IsDebuggerPresent@0 004a3018     kernel32:KERNEL32.dll
 0004:0000001c       __imp__UnhandledExceptionFilter@4 004a301c     kernel32:KERNEL32.dll
 0004:00000020       __imp__SetUnhandledExceptionFilter@4 004a3020     kernel32:KERNEL32.dll
 0004:00000024       __imp__GetStartupInfoW@4   004a3024     kernel32:KERNEL32.dll
 0004:00000028       __imp__GetCurrentProcess@0 004a3028     kernel32:KERNEL32.dll
 0004:0000002c       __imp__TerminateProcess@8  004a302c     kernel32:KERNEL32.dll
 0004:00000030       __imp__GetCommandLineW@0   004a3030     kernel32:KERNEL32.dll
 0004:00000034       __imp__VirtualAlloc@16     004a3034     kernel32:KERNEL32.dll
 0004:00000038       __imp__VirtualFree@12      004a3038     kernel32:KERNEL32.dll
 0004:0000003c       __imp__WideCharToMultiByte@32 004a303c     kernel32:KERNEL32.dll
 0004:00000040       __imp__GetModuleHandleW@4  004a3040     kernel32:KERNEL32.dll
 0004:00000044       \177KERNEL32_NULL_THUNK_DATA 004a3044     kernel32:KERNEL32.dll
 0004:0000007c       __imp_?showmanyc@?$basic_streambuf@DU?$char_traits@D@std@@@std@@MAE_JXZ 004a307c     msvcprtd:MSVCP140D.dll
 0004:00000080       __imp_?uflow@?$basic_streambuf@DU?$char_traits@D@std@@@std@@MAEHXZ 004a3080     msvcprtd:MSVCP140D.dll
 0004:00000084       __imp_?_Lock@?$basic_streambuf@DU?$char_traits@D@std@@@std@@UAEXXZ 004a3084     msvcprtd:MSVCP140D.dll
 0004:00000088       __imp_?imbue@?$basic_streambuf@DU?$char_traits@D@std@@@std@@MAEXABVlocale@2@@Z 004a3088     msvcprtd:MSVCP140D.dll
 0004:0000008c       __imp_?_Fiopen@std@@YAPAU_iobuf@@PBDHH@Z 004a308c     msvcprtd:MSVCP140D.dll
 0004:00000090       __imp_??1?$basic_iostream@DU?$char_traits@D@std@@@std@@UAE@XZ 004a3090     msvcprtd:MSVCP140D.dll
 0004:00000094       __imp_??0?$basic_iostream@DU?$char_traits@D@std@@@std@@QAE@PAV?$basic_streambuf@DU?$char_traits@D@std@@@1@@Z 004a3094     msvcprtd:MSVCP140D.dll
 0004:00000098       __imp_??5?$basic_istream@DU?$char_traits@D@std@@@std@@QAEAAV01@AAH@Z 004a3098     msvcprtd:MSVCP140D.dll
 0004:0000009c       __imp_?_Ipfx@?$basic_istream@DU?$char_traits@D@std@@@std@@QAE_N_N@Z 004a309c     msvcprtd:MSVCP140D.dll
 0004:000000a0       __imp_??1?$basic_istream@DU?$char_traits@D@std@@@std@@UAE@XZ 004a30a0     msvcprtd:MSVCP140D.dll
 0004:000000a4       __imp_??0?$basic_istream@DU?$char_traits@D@std@@@std@@QAE@PAV?$basic_streambuf@DU?$char_traits@D@std@@@1@_N@Z 004a30a4     msvcprtd:MSVCP140D.dll
 0004:000000a8       __imp_??6?$basic_ostream@DU?$char_traits@D@std@@@std@@QAEAAV01@H@Z 004a30a8     msvcprtd:MSVCP140D.dll
 0004:000000ac       __imp_??0?$basic_ios@DU?$char_traits@D@std@@@std@@IAE@XZ 004a30ac     msvcprtd:MSVCP140D.dll
 0004:000000b0       __imp_??1?$basic_ios@DU?$char_traits@D@std@@@std@@UAE@XZ 004a30b0     msvcprtd:MSVCP140D.dll
 0004:000000b4       __imp_?xsputn@?$basic_streambuf@DU?$char_traits@D@std@@@std@@MAE_JPBD_J@Z 004a30b4     msvcprtd:MSVCP140D.dll
 0004:000000b8       __imp_?_Unlock@?$basic_streambuf@DU?$char_traits@D@std@@@std@@UAEXXZ 004a30b8     msvcprtd:MSVCP140D.dll
 0004:000000bc       __imp_?_Id_cnt@id@locale@std@@0HA 004a30bc     msvcprtd:MSVCP140D.dll
 0004:000000c0       __imp_?id@?$ctype@D@std@@2V0locale@2@A 004a30c0     msvcprtd:MSVCP140D.dll
 0004:000000c4       __imp_?id@?$codecvt@DDU_Mbstatet@@@std@@2V0locale@2@A 004a30c4     msvcprtd:MSVCP140D.dll
 0004:000000c8       __imp_??0?$basic_ostream@DU?$char_traits@D@std@@@std@@QAE@PAV?$basic_streambuf@DU?$char_traits@D@std@@@1@_N@Z 004a30c8     msvcprtd:MSVCP140D.dll
 0004:000000cc       __imp_??1?$basic_ostream@DU?$char_traits@D@std@@@std@@UAE@XZ 004a30cc     msvcprtd:MSVCP140D.dll
 0004:000000d0       __imp_??6?$basic_ostream@DU?$char_traits@D@std@@@std@@QAEAAV01@N@Z 004a30d0     msvcprtd:MSVCP140D.dll
 0004:000000d4       __imp_?setbuf@?$basic_streambuf@DU?$char_traits@D@std@@@std@@MAEPAV12@PAD_J@Z 004a30d4     msvcprtd:MSVCP140D.dll
 0004:000000d8       __imp_??0_Lockit@std@@QAE@H@Z 004a30d8     msvcprtd:MSVCP140D.dll
 0004:000000dc       __imp_??1_Lockit@std@@QAE@XZ 004a30dc     msvcprtd:MSVCP140D.dll
 0004:000000e0       __imp_?_Xlength_error@std@@YAXPBD@Z 004a30e0     msvcprtd:MSVCP140D.dll
 0004:000000e4       __imp_?uncaught_exception@std@@YA_NXZ 004a30e4     msvcprtd:MSVCP140D.dll
 0004:000000e8       __imp_?good@ios_base@std@@QBE_NXZ 004a30e8     msvcprtd:MSVCP140D.dll
 0004:000000ec       __imp_?flags@ios_base@std@@QBEHXZ 004a30ec     msvcprtd:MSVCP140D.dll
 0004:000000f0       __imp_?width@ios_base@std@@QBE_JXZ 004a30f0     msvcprtd:MSVCP140D.dll
 0004:000000f4       __imp_?width@ios_base@std@@QAE_J_J@Z 004a30f4     msvcprtd:MSVCP140D.dll
 0004:000000f8       __imp_?sputc@?$basic_streambuf@DU?$char_traits@D@std@@@std@@QAEHD@Z 004a30f8     msvcprtd:MSVCP140D.dll
 0004:000000fc       __imp_?sputn@?$basic_streambuf@DU?$char_traits@D@std@@@std@@QAE_JPBD_J@Z 004a30fc     msvcprtd:MSVCP140D.dll
 0004:00000100       __imp_?setstate@?$basic_ios@DU?$char_traits@D@std@@@std@@QAEXH_N@Z 004a3100     msvcprtd:MSVCP140D.dll
 0004:00000104       __imp_?tie@?$basic_ios@DU?$char_traits@D@std@@@std@@QBEPAV?$basic_ostream@DU?$char_traits@D@std@@@2@XZ 004a3104     msvcprtd:MSVCP140D.dll
 0004:00000108       __imp_?rdbuf@?$basic_ios@DU?$char_traits@D@std@@@std@@QBEPAV?$basic_streambuf@DU?$char_traits@D@std@@@2@XZ 004a3108     msvcprtd:MSVCP140D.dll
 0004:0000010c       __imp_?fill@?$basic_ios@DU?$char_traits@D@std@@@std@@QBEDXZ 004a310c     msvcprtd:MSVCP140D.dll
 0004:00000110       __imp_?widen@?$basic_ios@DU?$char_traits@D@std@@@std@@QBEDD@Z 004a3110     msvcprtd:MSVCP140D.dll
 0004:00000114       __imp_?_Osfx@?$basic_ostream@DU?$char_traits@D@std@@@std@@QAEXXZ 004a3114     msvcprtd:MSVCP140D.dll
 0004:00000118       __imp_??6?$basic_ostream@DU?$char_traits@D@std@@@std@@QAEAAV01@P6AAAV01@AAV01@@Z@Z 004a3118     msvcprtd:MSVCP140D.dll
 0004:0000011c       __imp_?put@?$basic_ostream@DU?$char_traits@D@std@@@std@@QAEAAV12@D@Z 004a311c     msvcprtd:MSVCP140D.dll
 0004:00000120       __imp_?flush@?$basic_ostream@DU?$char_traits@D@std@@@std@@QAEAAV12@XZ 004a3120     msvcprtd:MSVCP140D.dll
 0004:00000124       __imp_?cout@std@@3V?$basic_ostream@DU?$char_traits@D@std@@@1@A 004a3124     msvcprtd:MSVCP140D.dll
 0004:00000128       __imp___Thrd_join          004a3128     msvcprtd:MSVCP140D.dll
 0004:0000012c       __imp___Thrd_id            004a312c     msvcprtd:MSVCP140D.dll
 0004:00000130       __imp___Cnd_do_broadcast_at_thread_exit 004a3130     msvcprtd:MSVCP140D.dll
 0004:00000134       __imp_?_Throw_Cpp_error@std@@YAXH@Z 004a3134     msvcprtd:MSVCP140D.dll
 0004:00000138       __imp_?cerr@std@@3V?$basic_ostream@DU?$char_traits@D@std@@@1@A 004a3138     msvcprtd:MSVCP140D.dll
 0004:0000013c       __imp_?_Xbad_alloc@std@@YAXXZ 004a313c     msvcprtd:MSVCP140D.dll
 0004:00000140       __imp_?_Xinvalid_argument@std@@YAXPBD@Z 004a3140     msvcprtd:MSVCP140D.dll
 0004:00000144       __imp_?_Xout_of_range@std@@YAXPBD@Z 004a3144     msvcprtd:MSVCP140D.dll
 0004:00000148       __imp_?_Getgloballocale@locale@std@@CAPAV_Locimp@12@XZ 004a3148     msvcprtd:MSVCP140D.dll
 0004:0000014c       __imp_?always_noconv@codecvt_base@std@@QBE_NXZ 004a314c     msvcprtd:MSVCP140D.dll
 0004:00000150       __imp_?is@?$ctype@D@std@@QBE_NFD@Z 004a3150     msvcprtd:MSVCP140D.dll
 0004:00000154       __imp_?_Getcat@?$ctype@D@std@@SAIPAPBVfacet@locale@2@PBV42@@Z 004a3154     msvcprtd:MSVCP140D.dll
 0004:00000158       __imp_?in@?$codecvt@DDU_Mbstatet@@@std@@QBEHAAU_Mbstatet@@PBD1AAPBDPAD3AAPAD@Z 004a3158     msvcprtd:MSVCP140D.dll
 0004:0000015c       __imp_?out@?$codecvt@DDU_Mbstatet@@@std@@QBEHAAU_Mbstatet@@PBD1AAPBDPAD3AAPAD@Z 004a315c     msvcprtd:MSVCP140D.dll
 0004:00000160       __imp_?unshift@?$codecvt@DDU_Mbstatet@@@std@@QBEHAAU_Mbstatet@@PAD1AAPAD@Z 004a3160     msvcprtd:MSVCP140D.dll
 0004:00000164       __imp_?_Getcat@?$codecvt@DDU_Mbstatet@@@std@@SAIPAPBVfacet@locale@2@PBV42@@Z 004a3164     msvcprtd:MSVCP140D.dll
 0004:00000168       __imp_??Bios_base@std@@QBE_NXZ 004a3168     msvcprtd:MSVCP140D.dll
 0004:0000016c       __imp_?getloc@ios_base@std@@QBE?AVlocale@2@XZ 004a316c     msvcprtd:MSVCP140D.dll
 0004:00000170       __imp_??0?$basic_streambuf@DU?$char_traits@D@std@@@std@@IAE@XZ 004a3170     msvcprtd:MSVCP140D.dll
 0004:00000174       __imp_??1?$basic_streambuf@DU?$char_traits@D@std@@@std@@UAE@XZ 004a3174     msvcprtd:MSVCP140D.dll
 0004:00000178       __imp_?getloc@?$basic_streambuf@DU?$char_traits@D@std@@@std@@QBE?AVlocale@2@XZ 004a3178     msvcprtd:MSVCP140D.dll
 0004:0000017c       __imp_?sbumpc@?$basic_streambuf@DU?$char_traits@D@std@@@std@@QAEHXZ 004a317c     msvcprtd:MSVCP140D.dll
 0004:00000180       __imp_?sgetc@?$basic_streambuf@DU?$char_traits@D@std@@@std@@QAEHXZ 004a3180     msvcprtd:MSVCP140D.dll
 0004:00000184       __imp_?snextc@?$basic_streambuf@DU?$char_traits@D@std@@@std@@QAEHXZ 004a3184     msvcprtd:MSVCP140D.dll
 0004:00000188       __imp_?eback@?$basic_streambuf@DU?$char_traits@D@std@@@std@@IBEPADXZ 004a3188     msvcprtd:MSVCP140D.dll
 0004:0000018c       __imp_?gptr@?$basic_streambuf@DU?$char_traits@D@std@@@std@@IBEPADXZ 004a318c     msvcprtd:MSVCP140D.dll
 0004:00000190       __imp_?pbase@?$basic_streambuf@DU?$char_traits@D@std@@@std@@IBEPADXZ 004a3190     msvcprtd:MSVCP140D.dll
 0004:00000194       __imp_?pptr@?$basic_streambuf@DU?$char_traits@D@std@@@std@@IBEPADXZ 004a3194     msvcprtd:MSVCP140D.dll
 0004:00000198       __imp_?egptr@?$basic_streambuf@DU?$char_traits@D@std@@@std@@IBEPADXZ 004a3198     msvcprtd:MSVCP140D.dll
 0004:0000019c       __imp_?gbump@?$basic_streambuf@DU?$char_traits@D@std@@@std@@IAEXH@Z 004a319c     msvcprtd:MSVCP140D.dll
 0004:000001a0       __imp_?setg@?$basic_streambuf@DU?$char_traits@D@std@@@std@@IAEXPAD00@Z 004a31a0     msvcprtd:MSVCP140D.dll
 0004:000001a4       __imp_?epptr@?$basic_streambuf@DU?$char_traits@D@std@@@std@@IBEPADXZ 004a31a4     msvcprtd:MSVCP140D.dll
 0004:000001a8       __imp_?_Gndec@?$basic_streambuf@DU?$char_traits@D@std@@@std@@IAEPADXZ 004a31a8     msvcprtd:MSVCP140D.dll
 0004:000001ac       __imp_?_Gninc@?$basic_streambuf@DU?$char_traits@D@std@@@std@@IAEPADXZ 004a31ac     msvcprtd:MSVCP140D.dll
 0004:000001b0       __imp_?_Gnavail@?$basic_streambuf@DU?$char_traits@D@std@@@std@@IBE_JXZ 004a31b0     msvcprtd:MSVCP140D.dll
 0004:000001b4       __imp_?pbump@?$basic_streambuf@DU?$char_traits@D@std@@@std@@IAEXH@Z 004a31b4     msvcprtd:MSVCP140D.dll
 0004:000001b8       __imp_?setp@?$basic_streambuf@DU?$char_traits@D@std@@@std@@IAEXPAD0@Z 004a31b8     msvcprtd:MSVCP140D.dll
 0004:000001bc       __imp_?setp@?$basic_streambuf@DU?$char_traits@D@std@@@std@@IAEXPAD00@Z 004a31bc     msvcprtd:MSVCP140D.dll
 0004:000001c0       __imp_?_Pninc@?$basic_streambuf@DU?$char_traits@D@std@@@std@@IAEPADXZ 004a31c0     msvcprtd:MSVCP140D.dll
 0004:000001c4       __imp_?_Pnavail@?$basic_streambuf@DU?$char_traits@D@std@@@std@@IBE_JXZ 004a31c4     msvcprtd:MSVCP140D.dll
 0004:000001c8       __imp_?_Init@?$basic_streambuf@DU?$char_traits@D@std@@@std@@IAEXXZ 004a31c8     msvcprtd:MSVCP140D.dll
 0004:000001cc       __imp_?_Init@?$basic_streambuf@DU?$char_traits@D@std@@@std@@IAEXPAPAD0PAH001@Z 004a31cc     msvcprtd:MSVCP140D.dll
 0004:000001d0       __imp_?xsgetn@?$basic_streambuf@DU?$char_traits@D@std@@@std@@MAE_JPAD_J@Z 004a31d0     msvcprtd:MSVCP140D.dll
 0004:000001d4       __imp_?sync@?$basic_streambuf@DU?$char_traits@D@std@@@std@@MAEHXZ 004a31d4     msvcprtd:MSVCP140D.dll
 0004:000001d8       \177MSVCP140D_NULL_THUNK_DATA 004a31d8     msvcprtd:MSVCP140D.dll
 0004:00000248       __imp__SDL_SetClipRect     004a3248     SDL2:SDL2.dll
 0004:0000024c       __imp__SDL_InitSubSystem   004a324c     SDL2:SDL2.dll
 0004:00000250       __imp__SDL_CloseAudioDevice 004a3250     SDL2:SDL2.dll
 0004:00000254       __imp__SDL_QueueAudio      004a3254     SDL2:SDL2.dll
 0004:00000258       __imp__SDL_FreeWAV         004a3258     SDL2:SDL2.dll
 0004:0000025c       __imp__SDL_LoadWAV_RW      004a325c     SDL2:SDL2.dll
 0004:00000260       __imp__SDL_PauseAudioDevice 004a3260     SDL2:SDL2.dll
 0004:00000264       __imp__SDL_OpenAudioDevice 004a3264     SDL2:SDL2.dll
 0004:00000268       __imp__SDL_GetCurrentAudioDriver 004a3268     SDL2:SDL2.dll
 0004:0000026c       __imp__SDL_RWFromFile      004a326c     SDL2:SDL2.dll
 0004:00000270       __imp__SDL_UpperBlitScaled 004a3270     SDL2:SDL2.dll
 0004:00000274       __imp__SDL_Quit            004a3274     SDL2:SDL2.dll
 0004:00000278       __imp__SDL_Init            004a3278     SDL2:SDL2.dll
 0004:0000027c       __imp__SDL_GetTicks        004a327c     SDL2:SDL2.dll
 0004:00000280       __imp__SDL_DestroyRenderer 004a3280     SDL2:SDL2.dll
 0004:00000284       __imp__SDL_DestroyTexture  004a3284     SDL2:SDL2.dll
 0004:00000288       __imp__SDL_RenderPresent   004a3288     SDL2:SDL2.dll
 0004:0000028c       __imp__SDL_RenderCopy      004a328c     SDL2:SDL2.dll
 0004:00000290       __imp__SDL_UpdateTexture   004a3290     SDL2:SDL2.dll
 0004:00000294       __imp__SDL_CreateTexture   004a3294     SDL2:SDL2.dll
 0004:00000298       __imp__SDL_CreateRenderer  004a3298     SDL2:SDL2.dll
 0004:0000029c       __imp__SDL_WaitEvent       004a329c     SDL2:SDL2.dll
 0004:000002a0       __imp__SDL_CreateRGBSurface 004a32a0     SDL2:SDL2.dll
 0004:000002a4       __imp__SDL_PollEvent       004a32a4     SDL2:SDL2.dll
 0004:000002a8       __imp__SDL_DestroyWindow   004a32a8     SDL2:SDL2.dll
 0004:000002ac       __imp__SDL_CreateWindow    004a32ac     SDL2:SDL2.dll
 0004:000002b0       __imp__SDL_GetError        004a32b0     SDL2:SDL2.dll
 0004:000002b4       __imp__SDL_FillRect        004a32b4     SDL2:SDL2.dll
 0004:000002b8       __imp__SDL_UnlockSurface   004a32b8     SDL2:SDL2.dll
 0004:000002bc       __imp__SDL_LockSurface     004a32bc     SDL2:SDL2.dll
 0004:000002c0       __imp__SDL_UpperBlit       004a32c0     SDL2:SDL2.dll
 0004:000002c4       __imp__SDL_FreeSurface     004a32c4     SDL2:SDL2.dll
 0004:000002c8       __imp__SDL_SetMainReady    004a32c8     SDL2:SDL2.dll
 0004:000002cc       __imp__SDL_ShowSimpleMessageBox 004a32cc     SDL2:SDL2.dll
 0004:000002d0       \177SDL2_NULL_THUNK_DATA   004a32d0     SDL2:SDL2.dll
 0004:00000314       __imp__IMG_Load            004a3314     SDL2_image:SDL2_image.dll
 0004:00000318       \177SDL2_image_NULL_THUNK_DATA 004a3318     SDL2_image:SDL2_image.dll
 0004:00000344       __imp__TTF_CloseFont       004a3344     SDL2_ttf:SDL2_ttf.dll
 0004:00000348       __imp__TTF_OpenFont        004a3348     SDL2_ttf:SDL2_ttf.dll
 0004:0000034c       __imp__TTF_Quit            004a334c     SDL2_ttf:SDL2_ttf.dll
 0004:00000350       __imp__TTF_RenderText_Solid 004a3350     SDL2_ttf:SDL2_ttf.dll
 0004:00000354       __imp__TTF_Init            004a3354     SDL2_ttf:SDL2_ttf.dll
 0004:00000358       \177SDL2_ttf_NULL_THUNK_DATA 004a3358     SDL2_ttf:SDL2_ttf.dll
 0004:00000388       __imp____current_exception 004a3388     vcruntimed:VCRUNTIME140D.dll
 0004:0000038c       __imp____current_exception_context 004a338c     vcruntimed:VCRUNTIME140D.dll
 0004:00000390       __imp___except_handler4_common 004a3390     vcruntimed:VCRUNTIME140D.dll
 0004:00000394       __imp____std_type_info_destroy_list 004a3394     vcruntimed:VCRUNTIME140D.dll
 0004:00000398       __imp__memcmp              004a3398     vcruntimed:VCRUNTIME140D.dll
 0004:0000039c       __imp__memcpy              004a339c     vcruntimed:VCRUNTIME140D.dll
 0004:000003a0       __imp__memmove             004a33a0     vcruntimed:VCRUNTIME140D.dll
 0004:000003a4       __imp__memset              004a33a4     vcruntimed:VCRUNTIME140D.dll
 0004:000003a8       __imp____std_exception_copy 004a33a8     vcruntimed:VCRUNTIME140D.dll
 0004:000003ac       __imp____std_exception_destroy 004a33ac     vcruntimed:VCRUNTIME140D.dll
 0004:000003b0       __imp___CxxThrowException@8 004a33b0     vcruntimed:VCRUNTIME140D.dll
 0004:000003b4       __imp____CxxFrameHandler3  004a33b4     vcruntimed:VCRUNTIME140D.dll
 0004:000003b8       __imp__memchr              004a33b8     vcruntimed:VCRUNTIME140D.dll
 0004:000003bc       __imp____RTDynamicCast     004a33bc     vcruntimed:VCRUNTIME140D.dll
 0004:000003c0       __imp___purecall           004a33c0     vcruntimed:VCRUNTIME140D.dll
 0004:000003c4       \177VCRUNTIME140D_NULL_THUNK_DATA 004a33c4     vcruntimed:VCRUNTIME140D.dll
 0004:000003fc       __imp__fsetpos             004a33fc     ucrtd:ucrtbased.dll
 0004:00000400       __imp___fseeki64           004a3400     ucrtd:ucrtbased.dll
 0004:00000404       __imp__fwrite              004a3404     ucrtd:ucrtbased.dll
 0004:00000408       __imp__setvbuf             004a3408     ucrtd:ucrtbased.dll
 0004:0000040c       __imp__ungetc              004a340c     ucrtd:ucrtbased.dll
 0004:00000410       __imp___lock_file          004a3410     ucrtd:ucrtbased.dll
 0004:00000414       __imp___unlock_file        004a3414     ucrtd:ucrtbased.dll
 0004:00000418       __imp__sqrt                004a3418     ucrtd:ucrtbased.dll
 0004:0000041c       __imp___CrtDumpMemoryLeaks 004a341c     ucrtd:ucrtbased.dll
 0004:00000420       __imp__srand               004a3420     ucrtd:ucrtbased.dll
 0004:00000424       __imp____stdio_common_vsprintf 004a3424     ucrtd:ucrtbased.dll
 0004:00000428       __imp___time64             004a3428     ucrtd:ucrtbased.dll
 0004:0000042c       __imp__puts                004a342c     ucrtd:ucrtbased.dll
 0004:00000430       __imp__strcmp              004a3430     ucrtd:ucrtbased.dll
 0004:00000434       __imp__strcpy              004a3434     ucrtd:ucrtbased.dll
 0004:00000438       __imp__abs                 004a3438     ucrtd:ucrtbased.dll
 0004:0000043c       __imp___rotl               004a343c     ucrtd:ucrtbased.dll
 0004:00000440       __imp___free_dbg           004a3440     ucrtd:ucrtbased.dll
 0004:00000444       __imp___malloc_dbg         004a3444     ucrtd:ucrtbased.dll
 0004:00000448       __imp___seh_filter_exe     004a3448     ucrtd:ucrtbased.dll
 0004:0000044c       __imp___set_app_type       004a344c     ucrtd:ucrtbased.dll
 0004:00000450       __imp__fputc               004a3450     ucrtd:ucrtbased.dll
 0004:00000454       __imp___configure_narrow_argv 004a3454     ucrtd:ucrtbased.dll
 0004:00000458       __imp___initialize_narrow_environment 004a3458     ucrtd:ucrtbased.dll
 0004:0000045c       __imp___get_initial_narrow_environment 004a345c     ucrtd:ucrtbased.dll
 0004:00000460       __imp___initterm           004a3460     ucrtd:ucrtbased.dll
 0004:00000464       __imp___initterm_e         004a3464     ucrtd:ucrtbased.dll
 0004:00000468       __imp__exit                004a3468     ucrtd:ucrtbased.dll
 0004:0000046c       __imp___exit               004a346c     ucrtd:ucrtbased.dll
 0004:00000470       __imp___set_fmode          004a3470     ucrtd:ucrtbased.dll
 0004:00000474       __imp____p___argc          004a3474     ucrtd:ucrtbased.dll
 0004:00000478       __imp____p___argv          004a3478     ucrtd:ucrtbased.dll
 0004:0000047c       __imp___cexit              004a347c     ucrtd:ucrtbased.dll
 0004:00000480       __imp___c_exit             004a3480     ucrtd:ucrtbased.dll
 0004:00000484       __imp___register_thread_local_exe_atexit_callback 004a3484     ucrtd:ucrtbased.dll
 0004:00000488       __imp___configthreadlocale 004a3488     ucrtd:ucrtbased.dll
 0004:0000048c       __imp___set_new_mode       004a348c     ucrtd:ucrtbased.dll
 0004:00000490       __imp____p__commode        004a3490     ucrtd:ucrtbased.dll
 0004:00000494       __imp___callnewh           004a3494     ucrtd:ucrtbased.dll
 0004:00000498       __imp__malloc              004a3498     ucrtd:ucrtbased.dll
 0004:0000049c       __imp___seh_filter_dll     004a349c     ucrtd:ucrtbased.dll
 0004:000004a0       __imp___initialize_onexit_table 004a34a0     ucrtd:ucrtbased.dll
 0004:000004a4       __imp___register_onexit_function 004a34a4     ucrtd:ucrtbased.dll
 0004:000004a8       __imp___execute_onexit_table 004a34a8     ucrtd:ucrtbased.dll
 0004:000004ac       __imp___crt_atexit         004a34ac     ucrtd:ucrtbased.dll
 0004:000004b0       __imp___crt_at_quick_exit  004a34b0     ucrtd:ucrtbased.dll
 0004:000004b4       __imp___controlfp_s        004a34b4     ucrtd:ucrtbased.dll
 0004:000004b8       __imp__fread               004a34b8     ucrtd:ucrtbased.dll
 0004:000004bc       __imp__fgetpos             004a34bc     ucrtd:ucrtbased.dll
 0004:000004c0       __imp__fgetc               004a34c0     ucrtd:ucrtbased.dll
 0004:000004c4       __imp__fflush              004a34c4     ucrtd:ucrtbased.dll
 0004:000004c8       __imp__fclose              004a34c8     ucrtd:ucrtbased.dll
 0004:000004cc       __imp___get_stream_buffer_pointers 004a34cc     ucrtd:ucrtbased.dll
 0004:000004d0       __imp__strtol              004a34d0     ucrtd:ucrtbased.dll
 0004:000004d4       __imp___errno              004a34d4     ucrtd:ucrtbased.dll
 0004:000004d8       __imp___beginthreadex      004a34d8     ucrtd:ucrtbased.dll
 0004:000004dc       __imp__terminate           004a34dc     ucrtd:ucrtbased.dll
 0004:000004e0       __imp__sin                 004a34e0     ucrtd:ucrtbased.dll
 0004:000004e4       __imp__cos                 004a34e4     ucrtd:ucrtbased.dll
 0004:000004e8       __imp__atan                004a34e8     ucrtd:ucrtbased.dll
 0004:000004ec       __imp__strlen              004a34ec     ucrtd:ucrtbased.dll
 0004:000004f0       __imp____stdio_common_vfprintf 004a34f0     ucrtd:ucrtbased.dll
 0004:000004f4       __imp____acrt_iob_func     004a34f4     ucrtd:ucrtbased.dll
 0004:000004f8       __imp__rand                004a34f8     ucrtd:ucrtbased.dll
 0004:000004fc       __imp___CrtDbgReport       004a34fc     ucrtd:ucrtbased.dll
 0004:00000500       __imp___invalid_parameter  004a3500     ucrtd:ucrtbased.dll
 0004:00000504       __imp____setusermatherr    004a3504     ucrtd:ucrtbased.dll
 0004:00000508       \177ucrtbased_NULL_THUNK_DATA 004a3508     ucrtd:ucrtbased.dll
 0004:00000568       __IMPORT_DESCRIPTOR_SDL2   004a3568     SDL2:SDL2.dll
 0004:0000057c       __IMPORT_DESCRIPTOR_SDL2_image 004a357c     SDL2_image:SDL2_image.dll
 0004:00000590       __IMPORT_DESCRIPTOR_SDL2_ttf 004a3590     SDL2_ttf:SDL2_ttf.dll
 0004:000005a4       __IMPORT_DESCRIPTOR_MSVCP140D 004a35a4     msvcprtd:MSVCP140D.dll
 0004:000005b8       __IMPORT_DESCRIPTOR_VCRUNTIME140D 004a35b8     vcruntimed:VCRUNTIME140D.dll
 0004:000005cc       __IMPORT_DESCRIPTOR_ucrtbased 004a35cc     ucrtd:ucrtbased.dll
 0004:000005e0       __IMPORT_DESCRIPTOR_KERNEL32 004a35e0     kernel32:KERNEL32.dll
 0004:000005f4       __NULL_IMPORT_DESCRIPTOR   004a35f4     SDL2:SDL2.dll
 0005:00000000       ___guard_check_icall_fptr  004a6000     MSVCRTD:guard_support.obj
 0005:00000004       ___guard_xfg_check_icall_fptr 004a6004     MSVCRTD:guard_support.obj
 0005:00000008       ___castguard_check_failure_os_handled_fptr 004a6008     MSVCRTD:guard_support.obj

 entry point at        0001:000000c3

 Static symbols

 0002:fff75000       __ehfuncinfo$??$_Deallocate@$07@std@@YAXPAXI@Z 00400000     BaseEngine.obj
 0001:fffff000       __ehhandler$??$_Deallocate@$07@std@@YAXPAXI@Z 00400000 f   BaseEngine.obj
 0001:fffff000       __unwindfunclet$??$_Uninitialized_value_construct_n@V?$allocator@PAVDisplayableObject@@@std@@@std@@YAPAPAVDisplayableObject@@PAPAV1@IAAV?$allocator@PAVDisplayableObject@@@0@@Z$0 00400000 f   BaseEngine.obj
 0002:fff75000       __unwindtable$??$_Uninitialized_value_construct_n@V?$allocator@PAVDisplayableObject@@@std@@@std@@YAPAPAVDisplayableObject@@PAPAV1@IAAV?$allocator@PAVDisplayableObject@@@0@@Z 00400000     BaseEngine.obj
 0000:00000000       _volmd                     00400000     BaseEngine.obj
 0000:00000000       _volmd                     00400000     BaseEngine.obj
 0000:00000000       _volmd                     00400000     BaseEngine.obj
 0000:00000000       _volmd                     00400000     BaseEngine.obj
 0000:00000000       _volmd                     00400000     BaseEngine.obj
 0000:00000000       _volmd                     00400000     BaseEngine.obj
 0000:00000000       _volmd                     00400000     BaseEngine.obj
 0000:00000000       _volmd                     00400000     BaseEngine.obj
 0000:00000000       _volmd                     00400000     BaseEngine.obj
 0000:00000000       _volmd                     00400000     BaseEngine.obj
 0000:00000000       _volmd                     00400000     BaseEngine.obj
 0002:fff75000       __catchsym$??$?6U?$char_traits@D@std@@@std@@YAAAV?$basic_ostream@DU?$char_traits@D@std@@@0@AAV10@PBD@Z$3 00400000     BouncingBall.obj
 0002:fff75000       __ehfuncinfo$??1_Sentry_base@?$basic_ostream@DU?$char_traits@D@std@@@std@@QAE@XZ 00400000     BouncingBall.obj
 0001:fffff000       __ehhandler$??1_Sentry_base@?$basic_ostream@DU?$char_traits@D@std@@@std@@QAE@XZ 00400000 f   BouncingBall.obj
 0001:fffff000       __unwindfunclet$??$?6U?$char_traits@D@std@@@std@@YAAAV?$basic_ostream@DU?$char_traits@D@std@@@0@AAV10@PBD@Z$2 00400000 f   BouncingBall.obj
 0001:fffff000       __unwindfunclet$??0sentry@?$basic_ostream@DU?$char_traits@D@std@@@std@@QAE@AAV12@@Z$0 00400000 f   BouncingBall.obj
 0002:fff75000       __unwindtable$??0sentry@?$basic_ostream@DU?$char_traits@D@std@@@std@@QAE@AAV12@@Z 00400000     BouncingBall.obj
 0000:00000000       _volmd                     00400000     BouncingBall.obj
 0000:00000000       _volmd                     00400000     BouncingBall.obj
 0000:00000000       _volmd                     00400000     BouncingBall.obj
 0000:00000000       _volmd                     00400000     BouncingBall.obj
 0002:fff75000       __catchsym$??$?6U?$char_traits@D@std@@@std@@YAAAV?$basic_ostream@DU?$char_traits@D@std@@@0@AAV10@PBD@Z$3 00400000     BouncingBallMain.obj
 0002:fff75000       __ehfuncinfo$??$_Deallocate@$07@std@@YAXPAXI@Z 00400000     BouncingBallMain.obj
 0002:fff75000       __ehfuncinfo$??1_Sentry_base@?$basic_ostream@DU?$char_traits@D@std@@@std@@QAE@XZ 00400000     BouncingBallMain.obj
 0001:fffff000       __ehhandler$??$_Deallocate@$07@std@@YAXPAXI@Z 00400000 f   BouncingBallMain.obj
 0001:fffff000       __ehhandler$??1_Sentry_base@?$basic_ostream@DU?$char_traits@D@std@@@std@@QAE@XZ 00400000 f   BouncingBallMain.obj
 0001:fffff000       __unwindfunclet$??$?6U?$char_traits@D@std@@@std@@YAAAV?$basic_ostream@DU?$char_traits@D@std@@@0@AAV10@PBD@Z$2 00400000 f   BouncingBallMain.obj
 0001:fffff000       __unwindfunclet$??$_Resize_reallocate@U_Value_init_tag@std@@@?$vector@PAVDisplayableObject@@V?$allocator@PAVDisplayableObject@@@std@@@std@@AAEXIABU_Value_init_tag@1@@Z$0 00400000 f   BouncingBallMain.obj
 0001:fffff000       __unwindfunclet$??$_Uninitialized_move@PAPAVDisplayableObject@@V?$allocator@PAVDisplayableObject@@@std@@@std@@YAPAPAVDisplayableObject@@QAPAV1@0PAPAV1@AAV?$allocator@PAVDisplayableObject@@@0@@Z$0 00400000 f   BouncingBallMain.obj
 0001:fffff000       __unwindfunclet$??$_Uninitialized_value_construct_n@V?$allocator@PAVDisplayableObject@@@std@@@std@@YAPAPAVDisplayableObject@@PAPAV1@IAAV?$allocator@PAVDisplayableObject@@@0@@Z$0 00400000 f   BouncingBallMain.obj
 0001:fffff000       __unwindfunclet$??0sentry@?$basic_ostream@DU?$char_traits@D@std@@@std@@QAE@AAV12@@Z$0 00400000 f   BouncingBallMain.obj
 0001:fffff000       __unwindfunclet$?_Orphan_range_locked@?$vector@PAVDisplayableObject@@V?$allocator@PAVDisplayableObject@@@std@@@std@@ABEXPAPAVDisplayableObject@@0@Z$0 00400000 f   BouncingBallMain.obj
 0002:fff75000       __unwindtable$??$_Resize_reallocate@U_Value_init_tag@std@@@?$vector@PAVDisplayableObject@@V?$allocator@PAVDisplayableObject@@@std@@@std@@AAEXIABU_Value_init_tag@1@@Z 00400000     BouncingBallMain.obj
 0002:fff75000       __unwindtable$??$_Uninitialized_move@PAPAVDisplayableObject@@V?$allocator@PAVDisplayableObject@@@std@@@std@@YAPAPAVDisplayableObject@@QAPAV1@0PAPAV1@AAV?$allocator@PAVDisplayableObject@@@0@@Z 00400000     BouncingBallMain.obj
 0002:fff75000       __unwindtable$??$_Uninitialized_value_construct_n@V?$allocator@PAVDisplayableObject@@@std@@@std@@YAPAPAVDisplayableObject@@PAPAV1@IAAV?$allocator@PAVDisplayableObject@@@0@@Z 00400000     BouncingBallMain.obj
 0002:fff75000       __unwindtable$??0sentry@?$basic_ostream@DU?$char_traits@D@std@@@std@@QAE@AAV12@@Z 00400000     BouncingBallMain.obj
 0002:fff75000       __unwindtable$?_Orphan_range_locked@?$vector@PAVDisplayableObject@@V?$allocator@PAVDisplayableObject@@@std@@@std@@ABEXPAPAVDisplayableObject@@0@Z 00400000     BouncingBallMain.obj
 0000:00000000       _volmd                     00400000     BouncingBallMain.obj
 0000:00000000       _volmd                     00400000     BouncingBallMain.obj
 0000:00000000       _volmd                     00400000     BouncingBallMain.obj
 0000:00000000       _volmd                     00400000     BouncingBallMain.obj
 0000:00000000       _volmd                     00400000     BouncingBallMain.obj
 0000:00000000       _volmd                     00400000     BouncingBallMain.obj
 0000:00000000       _volmd                     00400000     BouncingBallMain.obj
 0000:00000000       _volmd                     00400000     BouncingBallMain.obj
 0000:00000000       _volmd                     00400000     BouncingBallMain.obj
 0000:00000000       _volmd                     00400000     BouncingBallMain.obj
 0000:00000000       _volmd                     00400000     BouncingBallMain.obj
 0000:00000000       _volmd                     00400000     BouncingBallMain.obj
 0000:00000000       _volmd                     00400000     BouncingBallMain.obj
 0000:00000000       _volmd                     00400000     BouncingBallMain.obj
 0002:fff75000       __catchsym$??$?6U?$char_traits@D@std@@@std@@YAAAV?$basic_ostream@DU?$char_traits@D@std@@@0@AAV10@PBD@Z$3 00400000     DisplayableObject.obj
 0002:fff75000       __ehfuncinfo$??1_Sentry_base@?$basic_ostream@DU?$char_traits@D@std@@@std@@QAE@XZ 00400000     DisplayableObject.obj
 0001:fffff000       __ehhandler$??1_Sentry_base@?$basic_ostream@DU?$char_traits@D@std@@@std@@QAE@XZ 00400000 f   DisplayableObject.obj
 0001:fffff000       __unwindfunclet$??$?6U?$char_traits@D@std@@@std@@YAAAV?$basic_ostream@DU?$char_traits@D@std@@@0@AAV10@PBD@Z$2 00400000 f   DisplayableObject.obj
 0001:fffff000       __unwindfunclet$??0sentry@?$basic_ostream@DU?$char_traits@D@std@@@std@@QAE@AAV12@@Z$0 00400000 f   DisplayableObject.obj
 0002:fff75000       __unwindtable$??0sentry@?$basic_ostream@DU?$char_traits@D@std@@@std@@QAE@AAV12@@Z 00400000     DisplayableObject.obj
 0000:00000000       _volmd                     00400000     DisplayableObject.obj
 0000:00000000       _volmd                     00400000     DisplayableObject.obj
 0000:00000000       _volmd                     00400000     DisplayableObject.obj
 0000:00000000       _volmd                     00400000     DraggingDemo.obj
 0000:00000000       _volmd                     00400000     DraggingDemo.obj
 0000:00000000       _volmd                     00400000     DraggingDemo.obj
 0000:00000000       _volmd                     00400000     DraggingDemo.obj
 0000:00000000       _volmd                     00400000     DraggingDemo.obj
 0000:00000000       _volmd                     00400000     DraggingDemo.obj
 0000:00000000       _volmd                     00400000     DraggingDemo.obj
 0000:00000000       _volmd                     00400000     DraggingDemo.obj
 0000:00000000       _volmd                     00400000     DraggingDemo.obj
 0000:00000000       _volmd                     00400000     DraggingDemo.obj
 0000:00000000       _volmd                     00400000     DraggingDemo.obj
 0000:00000000       _volmd                     00400000     DraggingDemo.obj
 0000:00000000       _volmd                     00400000     DraggingDemo.obj
 0000:00000000       _volmd                     00400000     DraggingDemo.obj
 0000:00000000       _volmd                     00400000     DraggingDemo.obj
 0000:00000000       _volmd                     00400000     DraggingDemo.obj
 0000:00000000       _volmd                     00400000     DraggingDemo.obj
 0000:00000000       _volmd                     00400000     DraggingDemo.obj
 0000:00000000       _volmd                     00400000     DraggingDemo.obj
 0000:00000000       _volmd                     00400000     DraggingDemo.obj
 0000:00000000       _volmd                     00400000     DraggingDemo.obj
 0000:00000000       _volmd                     00400000     DraggingDemo.obj
 0000:00000000       _volmd                     00400000     DraggingDemo.obj
 0000:00000000       _volmd                     00400000     DraggingDemo.obj
 0000:00000000       _volmd                     00400000     DraggingDemo.obj
 0000:00000000       _volmd                     00400000     DraggingDemo.obj
 0000:00000000       _volmd                     00400000     DraggingDemo.obj
 0000:00000000       _volmd                     00400000     DraggingDemo.obj
 0000:00000000       _volmd                     00400000     DraggingDemo.obj
 0000:00000000       _volmd                     00400000     DraggingDemo.obj
 0000:00000000       _volmd                     00400000     DraggingDemo.obj
 0000:00000000       _volmd                     00400000     DraggingDemo.obj
 0000:00000000       _volmd                     00400000     DraggingDemo.obj
 0000:00000000       _volmd                     00400000     DraggingDemo.obj
 0000:00000000       _volmd                     00400000     DraggingDemo.obj
 0000:00000000       _volmd                     00400000     DraggingDemo.obj
 0000:00000000       _volmd                     00400000     DraggingDemo.obj
 0000:00000000       _volmd                     00400000     DraggingDemo.obj
 0000:00000000       _volmd                     00400000     DraggingDemo.obj
 0002:fff75000       __catchsym$??$?6U?$char_traits@D@std@@@std@@YAAAV?$basic_ostream@DU?$char_traits@D@std@@@0@AAV10@PBD@Z$3 00400000     DrawingSurface.obj
 0002:fff75000       __ehfuncinfo$??1_Sentry_base@?$basic_ostream@DU?$char_traits@D@std@@@std@@QAE@XZ 00400000     DrawingSurface.obj
 0001:fffff000       __ehhandler$??1_Sentry_base@?$basic_ostream@DU?$char_traits@D@std@@@std@@QAE@XZ 00400000 f   DrawingSurface.obj
 0001:fffff000       __unwindfunclet$??$?6U?$char_traits@D@std@@@std@@YAAAV?$basic_ostream@DU?$char_traits@D@std@@@0@AAV10@PBD@Z$2 00400000 f   DrawingSurface.obj
 0001:fffff000       __unwindfunclet$??0sentry@?$basic_ostream@DU?$char_traits@D@std@@@std@@QAE@AAV12@@Z$0 00400000 f   DrawingSurface.obj
 0002:fff75000       __unwindtable$??0sentry@?$basic_ostream@DU?$char_traits@D@std@@@std@@QAE@AAV12@@Z 00400000     DrawingSurface.obj
 0000:00000000       _volmd                     00400000     DrawingSurface.obj
 0000:00000000       _volmd                     00400000     DrawingSurface.obj
 0000:00000000       _volmd                     00400000     DrawingSurface.obj
 0000:00000000       _volmd                     00400000     DrawingSurface.obj
 0002:fff75000       __catchsym$??$?6U?$char_traits@D@std@@@std@@YAAAV?$basic_ostream@DU?$char_traits@D@std@@@0@AAV10@PBD@Z$3 00400000     FlashingDemo.obj
 0002:fff75000       __ehfuncinfo$??1_Sentry_base@?$basic_ostream@DU?$char_traits@D@std@@@std@@QAE@XZ 00400000     FlashingDemo.obj
 0001:fffff000       __ehhandler$??1_Sentry_base@?$basic_ostream@DU?$char_traits@D@std@@@std@@QAE@XZ 00400000 f   FlashingDemo.obj
 0001:fffff000       __unwindfunclet$??$?6U?$char_traits@D@std@@@std@@YAAAV?$basic_ostream@DU?$char_traits@D@std@@@0@AAV10@PBD@Z$2 00400000 f   FlashingDemo.obj
 0001:fffff000       __unwindfunclet$??0sentry@?$basic_ostream@DU?$char_traits@D@std@@@std@@QAE@AAV12@@Z$0 00400000 f   FlashingDemo.obj
 0002:fff75000       __unwindtable$??0sentry@?$basic_ostream@DU?$char_traits@D@std@@@std@@QAE@AAV12@@Z 00400000     FlashingDemo.obj
 0000:00000000       _volmd                     00400000     FlashingDemo.obj
 0000:00000000       _volmd                     00400000     FlashingDemo.obj
 0000:00000000       _volmd                     00400000     FlashingDemo.obj
 0000:00000000       _volmd                     00400000     FlashingDemo.obj
 0000:00000000       _volmd                     00400000     FlashingDemo.obj
 0000:00000000       _volmd                     00400000     FontManager.obj
 0002:fff75000       __catchsym$??$?6U?$char_traits@D@std@@@std@@YAAAV?$basic_ostream@DU?$char_traits@D@std@@@0@AAV10@PBD@Z$3 00400000     ImageMappingDemo.obj
 0002:fff75000       __catchsym$??$_Insert_string@DU?$char_traits@D@std@@I@std@@YAAAV?$basic_ostream@DU?$char_traits@D@std@@@0@AAV10@QBDI@Z$3 00400000     ImageMappingDemo.obj
 0002:fff75000       __ehfuncinfo$??$_Deallocate@$07@std@@YAXPAXI@Z 00400000     ImageMappingDemo.obj
 0002:fff75000       __ehfuncinfo$??$_Freenode@V?$allocator@U?$_Tree_node@U?$pair@$$CBV?$basic_string@DU?$char_traits@D@std@@V?$allocator@D@2@@std@@V?$weak_ptr@VRawImageData@@@2@@std@@PAX@std@@@std@@@?$_Tree_node@U?$pair@$$CBV?$basic_string@DU?$char_traits@D@std@@V?$allocator@D@2@@std@@V?$weak_ptr@VRawImageData@@@2@@std@@PAX@std@@SAXAAV?$allocator@U?$_Tree_node@U?$pair@$$CBV?$basic_string@DU?$char_traits@D@std@@V?$allocator@D@2@@std@@V?$weak_ptr@VRawImageData@@@2@@std@@PAX@std@@@1@PAU01@@Z 00400000     ImageMappingDemo.obj
 0002:fff75000       __ehfuncinfo$??0?$basic_string@DU?$char_traits@D@std@@V?$allocator@D@2@@std@@QAE@$$QAV01@@Z 00400000     ImageMappingDemo.obj
 0002:fff75000       __ehfuncinfo$??1?$_Tree_temp_node@V?$allocator@U?$_Tree_node@U?$pair@$$CBV?$basic_string@DU?$char_traits@D@std@@V?$allocator@D@2@@std@@V?$shared_ptr@VRawImageData@@@2@@std@@PAX@std@@@std@@@std@@QAE@XZ 00400000     ImageMappingDemo.obj
 0002:fff75000       __ehfuncinfo$??1?$_Tree_temp_node@V?$allocator@U?$_Tree_node@U?$pair@$$CBV?$basic_string@DU?$char_traits@D@std@@V?$allocator@D@2@@std@@V?$weak_ptr@VRawImageData@@@2@@std@@PAX@std@@@std@@@std@@QAE@XZ 00400000     ImageMappingDemo.obj
 0002:fff75000       __ehfuncinfo$??1RawImageData@@QAE@XZ 00400000     ImageMappingDemo.obj
 0002:fff75000       __ehfuncinfo$??1_Sentry_base@?$basic_ostream@DU?$char_traits@D@std@@@std@@QAE@XZ 00400000     ImageMappingDemo.obj
 0002:fff75000       __ehfuncinfo$?getImagePtrbyURL@ImageManager@@QAE?AV?$shared_ptr@VRawImageData@@@std@@V?$basic_string@DU?$char_traits@D@std@@V?$allocator@D@2@@3@_N1@Z 00400000     ImageMappingDemo.obj
 0001:fffff000       __ehhandler$??$_Deallocate@$07@std@@YAXPAXI@Z 00400000 f   ImageMappingDemo.obj
 0001:fffff000       __ehhandler$??$_Freenode@V?$allocator@U?$_Tree_node@U?$pair@$$CBV?$basic_string@DU?$char_traits@D@std@@V?$allocator@D@2@@std@@V?$weak_ptr@VRawImageData@@@2@@std@@PAX@std@@@std@@@?$_Tree_node@U?$pair@$$CBV?$basic_string@DU?$char_traits@D@std@@V?$allocator@D@2@@std@@V?$weak_ptr@VRawImageData@@@2@@std@@PAX@std@@SAXAAV?$allocator@U?$_Tree_node@U?$pair@$$CBV?$basic_string@DU?$char_traits@D@std@@V?$allocator@D@2@@std@@V?$weak_ptr@VRawImageData@@@2@@std@@PAX@std@@@1@PAU01@@Z 00400000 f   ImageMappingDemo.obj
 0001:fffff000       __ehhandler$??0?$basic_string@DU?$char_traits@D@std@@V?$allocator@D@2@@std@@QAE@$$QAV01@@Z 00400000 f   ImageMappingDemo.obj
 0001:fffff000       __ehhandler$??1?$_Tree_temp_node@V?$allocator@U?$_Tree_node@U?$pair@$$CBV?$basic_string@DU?$char_traits@D@std@@V?$allocator@D@2@@std@@V?$shared_ptr@VRawImageData@@@2@@std@@PAX@std@@@std@@@std@@QAE@XZ 00400000 f   ImageMappingDemo.obj
 0001:fffff000       __ehhandler$??1?$_Tree_temp_node@V?$allocator@U?$_Tree_node@U?$pair@$$CBV?$basic_string@DU?$char_traits@D@std@@V?$allocator@D@2@@std@@V?$weak_ptr@VRawImageData@@@2@@std@@PAX@std@@@std@@@std@@QAE@XZ 00400000 f   ImageMappingDemo.obj
 0001:fffff000       __ehhandler$??1RawImageData@@QAE@XZ 00400000 f   ImageMappingDemo.obj
 0001:fffff000       __ehhandler$??1_Sentry_base@?$basic_ostream@DU?$char_traits@D@std@@@std@@QAE@XZ 00400000 f   ImageMappingDemo.obj
 0001:fffff000       __unwindfunclet$??$?0U?$pair@V?$basic_string@DU?$char_traits@D@std@@V?$allocator@D@2@@std@@V?$shared_ptr@VRawImageData@@@2@@std@@@?$_Tree_temp_node@V?$allocator@U?$_Tree_node@U?$pair@$$CBV?$basic_string@DU?$char_traits@D@std@@V?$allocator@D@2@@std@@V?$shared_ptr@VRawImageData@@@2@@std@@PAX@std@@@std@@@std@@QAE@AAV?$allocator@U?$_Tree_node@U?$pair@$$CBV?$basic_string@DU?$char_traits@D@std@@V?$allocator@D@2@@std@@V?$shared_ptr@VRawImageData@@@2@@std@@PAX@std@@@1@PAU?$_Tree_node@U?$pair@$$CBV?$basic_string@DU?$char_traits@D@std@@V?$allocator@D@2@@std@@V?$shared_ptr@VRawImageData@@@2@@std@@PAX@1@$$QAU?$pair@V?$basic_string@DU?$char_traits@D@std@@V?$allocator@D@2@@std@@V?$shared_ptr@VRawImageData@@@2@@1@@Z$0 00400000 f   ImageMappingDemo.obj
 0001:fffff000       __unwindfunclet$??$?0U?$pair@V?$basic_string@DU?$char_traits@D@std@@V?$allocator@D@2@@std@@V?$weak_ptr@VRawImageData@@@2@@std@@@?$_Tree_temp_node@V?$allocator@U?$_Tree_node@U?$pair@$$CBV?$basic_string@DU?$char_traits@D@std@@V?$allocator@D@2@@std@@V?$weak_ptr@VRawImageData@@@2@@std@@PAX@std@@@std@@@std@@QAE@AAV?$allocator@U?$_Tree_node@U?$pair@$$CBV?$basic_string@DU?$char_traits@D@std@@V?$allocator@D@2@@std@@V?$weak_ptr@VRawImageData@@@2@@std@@PAX@std@@@1@PAU?$_Tree_node@U?$pair@$$CBV?$basic_string@DU?$char_traits@D@std@@V?$allocator@D@2@@std@@V?$weak_ptr@VRawImageData@@@2@@std@@PAX@1@$$QAU?$pair@V?$basic_string@DU?$char_traits@D@std@@V?$allocator@D@2@@std@@V?$weak_ptr@VRawImageData@@@2@@1@@Z$0 00400000 f   ImageMappingDemo.obj
 0001:fffff000       __unwindfunclet$??$?0VRawImageData@@$0A@@?$shared_ptr@VRawImageData@@@std@@QAE@PAVRawImageData@@@Z$0 00400000 f   ImageMappingDemo.obj
 0001:fffff000       __unwindfunclet$??$?6U?$char_traits@D@std@@@std@@YAAAV?$basic_ostream@DU?$char_traits@D@std@@@0@AAV10@PBD@Z$2 00400000 f   ImageMappingDemo.obj
 0001:fffff000       __unwindfunclet$??$_Construct@$00PBD@?$basic_string@DU?$char_traits@D@std@@V?$allocator@D@2@@std@@AAEXQBDI@Z$0 00400000 f   ImageMappingDemo.obj
 0001:fffff000       __unwindfunclet$??$_Construct@$01PBD@?$basic_string@DU?$char_traits@D@std@@V?$allocator@D@2@@std@@AAEXQBDI@Z$0 00400000 f   ImageMappingDemo.obj
 0001:fffff000       __unwindfunclet$??$_Insert_string@DU?$char_traits@D@std@@I@std@@YAAAV?$basic_ostream@DU?$char_traits@D@std@@@0@AAV10@QBDI@Z$2 00400000 f   ImageMappingDemo.obj
 0001:fffff000       __unwindfunclet$??$_Resize_reallocate@U_Value_init_tag@std@@@?$vector@PAVDisplayableObject@@V?$allocator@PAVDisplayableObject@@@std@@@std@@AAEXIABU_Value_init_tag@1@@Z$0 00400000 f   ImageMappingDemo.obj
 0001:fffff000       __unwindfunclet$??$_Uninitialized_move@PAPAVDisplayableObject@@V?$allocator@PAVDisplayableObject@@@std@@@std@@YAPAPAVDisplayableObject@@QAPAV1@0PAPAV1@AAV?$allocator@PAVDisplayableObject@@@0@@Z$0 00400000 f   ImageMappingDemo.obj
 0001:fffff000       __unwindfunclet$??$_Uninitialized_value_construct_n@V?$allocator@PAVDisplayableObject@@@std@@@std@@YAPAPAVDisplayableObject@@PAPAV1@IAAV?$allocator@PAVDisplayableObject@@@0@@Z$0 00400000 f   ImageMappingDemo.obj
 0001:fffff000       __unwindfunclet$??0?$_Tree_temp_node_alloc@V?$allocator@U?$_Tree_node@U?$pair@$$CBV?$basic_string@DU?$char_traits@D@std@@V?$allocator@D@2@@std@@V?$shared_ptr@VRawImageData@@@2@@std@@PAX@std@@@std@@@std@@QAE@AAV?$allocator@U?$_Tree_node@U?$pair@$$CBV?$basic_string@DU?$char_traits@D@std@@V?$allocator@D@2@@std@@V?$shared_ptr@VRawImageData@@@2@@std@@PAX@std@@@1@@Z$0 00400000 f   ImageMappingDemo.obj
 0001:fffff000       __unwindfunclet$??0?$_Tree_temp_node_alloc@V?$allocator@U?$_Tree_node@U?$pair@$$CBV?$basic_string@DU?$char_traits@D@std@@V?$allocator@D@2@@std@@V?$weak_ptr@VRawImageData@@@2@@std@@PAX@std@@@std@@@std@@QAE@AAV?$allocator@U?$_Tree_node@U?$pair@$$CBV?$basic_string@DU?$char_traits@D@std@@V?$allocator@D@2@@std@@V?$weak_ptr@VRawImageData@@@2@@std@@PAX@std@@@1@@Z$0 00400000 f   ImageMappingDemo.obj
 0001:fffff000       __unwindfunclet$??0?$basic_string@DU?$char_traits@D@std@@V?$allocator@D@2@@std@@QAE@ABV01@@Z$0 00400000 f   ImageMappingDemo.obj
 0001:fffff000       __unwindfunclet$??0?$basic_string@DU?$char_traits@D@std@@V?$allocator@D@2@@std@@QAE@QBD@Z$0 00400000 f   ImageMappingDemo.obj
 0001:fffff000       __unwindfunclet$??0DragableImageObject@@QAE@HHPAVBaseEngine@@V?$basic_string@DU?$char_traits@D@std@@V?$allocator@D@2@@std@@_N2@Z$0 00400000 f   ImageMappingDemo.obj
 0001:fffff000       __unwindfunclet$??0ImageManager@@QAE@XZ$0 00400000 f   ImageMappingDemo.obj
 0001:fffff000       __unwindfunclet$??0RawImageData@@QAE@V?$basic_string@DU?$char_traits@D@std@@V?$allocator@D@2@@std@@@Z$0 00400000 f   ImageMappingDemo.obj
 0001:fffff000       __unwindfunclet$??0sentry@?$basic_ostream@DU?$char_traits@D@std@@@std@@QAE@AAV12@@Z$0 00400000 f   ImageMappingDemo.obj
 0001:fffff000       __unwindfunclet$?_Alloc_sentinel_and_proxy@?$_Tree@V?$_Tmap_traits@V?$basic_string@DU?$char_traits@D@std@@V?$allocator@D@2@@std@@V?$shared_ptr@VRawImageData@@@2@U?$less@V?$basic_string@DU?$char_traits@D@std@@V?$allocator@D@2@@std@@@2@V?$allocator@U?$pair@$$CBV?$basic_string@DU?$char_traits@D@std@@V?$allocator@D@2@@std@@V?$shared_ptr@VRawImageData@@@2@@std@@@2@$0A@@std@@@std@@IAEXXZ$0 00400000 f   ImageMappingDemo.obj
 0001:fffff000       __unwindfunclet$?_Alloc_sentinel_and_proxy@?$_Tree@V?$_Tmap_traits@V?$basic_string@DU?$char_traits@D@std@@V?$allocator@D@2@@std@@V?$weak_ptr@VRawImageData@@@2@U?$less@V?$basic_string@DU?$char_traits@D@std@@V?$allocator@D@2@@std@@@2@V?$allocator@U?$pair@$$CBV?$basic_string@DU?$char_traits@D@std@@V?$allocator@D@2@@std@@V?$weak_ptr@VRawImageData@@@2@@std@@@2@$0A@@std@@@std@@IAEXXZ$0 00400000 f   ImageMappingDemo.obj
 0001:fffff000       __unwindfunclet$?_Orphan_range_locked@?$vector@PAVDisplayableObject@@V?$allocator@PAVDisplayableObject@@@std@@@std@@ABEXPAPAVDisplayableObject@@0@Z$0 00400000 f   ImageMappingDemo.obj
 0001:fffff000       __unwindfunclet$?get@ImageManager@@SAPAV1@XZ$0 00400000 f   ImageMappingDemo.obj
 0001:fffff000       __unwindfunclet$?getImagePtrbyURL@ImageManager@@QAE?AV?$shared_ptr@VRawImageData@@@std@@V?$basic_string@DU?$char_traits@D@std@@V?$allocator@D@2@@3@_N1@Z$0 00400000 f   ImageMappingDemo.obj
 0001:fffff000       __unwindfunclet$?getImagebyURL@ImageManager@@QAE?AVSimpleImage@@V?$basic_string@DU?$char_traits@D@std@@V?$allocator@D@2@@std@@_N1@Z$0 00400000 f   ImageMappingDemo.obj
 0001:fffff000       __unwindfunclet$?loadAsNew@ImageManager@@QAE?AV?$shared_ptr@VRawImageData@@@std@@V?$basic_string@DU?$char_traits@D@std@@V?$allocator@D@2@@3@@Z$0 00400000 f   ImageMappingDemo.obj
 0001:fffff000       __unwindfunclet$?loadImage@RawImageData@@QAE_NV?$basic_string@DU?$char_traits@D@std@@V?$allocator@D@2@@std@@HHHHH_N@Z$0 00400000 f   ImageMappingDemo.obj
 0002:fff75000       __unwindtable$??$?0U?$pair@V?$basic_string@DU?$char_traits@D@std@@V?$allocator@D@2@@std@@V?$shared_ptr@VRawImageData@@@2@@std@@@?$_Tree_temp_node@V?$allocator@U?$_Tree_node@U?$pair@$$CBV?$basic_string@DU?$char_traits@D@std@@V?$allocator@D@2@@std@@V?$shared_ptr@VRawImageData@@@2@@std@@PAX@std@@@std@@@std@@QAE@AAV?$allocator@U?$_Tree_node@U?$pair@$$CBV?$basic_string@DU?$char_traits@D@std@@V?$allocator@D@2@@std@@V?$shared_ptr@VRawImageData@@@2@@std@@PAX@std@@@1@PAU?$_Tree_node@U?$pair@$$CBV?$basic_string@DU?$char_traits@D@std@@V?$allocator@D@2@@std@@V?$shared_ptr@VRawImageData@@@2@@std@@PAX@1@$$QAU?$pair@V?$basic_string@DU?$char_traits@D@std@@V?$allocator@D@2@@std@@V?$shared_ptr@VRawImageData@@@2@@1@@Z 00400000     ImageMappingDemo.obj
 0002:fff75000       __unwindtable$??$?0U?$pair@V?$basic_string@DU?$char_traits@D@std@@V?$allocator@D@2@@std@@V?$weak_ptr@VRawImageData@@@2@@std@@@?$_Tree_temp_node@V?$allocator@U?$_Tree_node@U?$pair@$$CBV?$basic_string@DU?$char_traits@D@std@@V?$allocator@D@2@@std@@V?$weak_ptr@VRawImageData@@@2@@std@@PAX@std@@@std@@@std@@QAE@AAV?$allocator@U?$_Tree_node@U?$pair@$$CBV?$basic_string@DU?$char_traits@D@std@@V?$allocator@D@2@@std@@V?$weak_ptr@VRawImageData@@@2@@std@@PAX@std@@@1@PAU?$_Tree_node@U?$pair@$$CBV?$basic_string@DU?$char_traits@D@std@@V?$allocator@D@2@@std@@V?$weak_ptr@VRawImageData@@@2@@std@@PAX@1@$$QAU?$pair@V?$basic_string@DU?$char_traits@D@std@@V?$allocator@D@2@@std@@V?$weak_ptr@VRawImageData@@@2@@1@@Z 00400000     ImageMappingDemo.obj
 0002:fff75000       __unwindtable$??$?0VRawImageData@@$0A@@?$shared_ptr@VRawImageData@@@std@@QAE@PAVRawImageData@@@Z 00400000     ImageMappingDemo.obj
 0002:fff75000       __unwindtable$??$_Construct@$00PBD@?$basic_string@DU?$char_traits@D@std@@V?$allocator@D@2@@std@@AAEXQBDI@Z 00400000     ImageMappingDemo.obj
 0002:fff75000       __unwindtable$??$_Construct@$01PBD@?$basic_string@DU?$char_traits@D@std@@V?$allocator@D@2@@std@@AAEXQBDI@Z 00400000     ImageMappingDemo.obj
 0002:fff75000       __unwindtable$??$_Resize_reallocate@U_Value_init_tag@std@@@?$vector@PAVDisplayableObject@@V?$allocator@PAVDisplayableObject@@@std@@@std@@AAEXIABU_Value_init_tag@1@@Z 00400000     ImageMappingDemo.obj
 0002:fff75000       __unwindtable$??$_Uninitialized_move@PAPAVDisplayableObject@@V?$allocator@PAVDisplayableObject@@@std@@@std@@YAPAPAVDisplayableObject@@QAPAV1@0PAPAV1@AAV?$allocator@PAVDisplayableObject@@@0@@Z 00400000     ImageMappingDemo.obj
 0002:fff75000       __unwindtable$??$_Uninitialized_value_construct_n@V?$allocator@PAVDisplayableObject@@@std@@@std@@YAPAPAVDisplayableObject@@PAPAV1@IAAV?$allocator@PAVDisplayableObject@@@0@@Z 00400000     ImageMappingDemo.obj
 0002:fff75000       __unwindtable$??0?$_Tree_temp_node_alloc@V?$allocator@U?$_Tree_node@U?$pair@$$CBV?$basic_string@DU?$char_traits@D@std@@V?$allocator@D@2@@std@@V?$shared_ptr@VRawImageData@@@2@@std@@PAX@std@@@std@@@std@@QAE@AAV?$allocator@U?$_Tree_node@U?$pair@$$CBV?$basic_string@DU?$char_traits@D@std@@V?$allocator@D@2@@std@@V?$shared_ptr@VRawImageData@@@2@@std@@PAX@std@@@1@@Z 00400000     ImageMappingDemo.obj
 0002:fff75000       __unwindtable$??0?$_Tree_temp_node_alloc@V?$allocator@U?$_Tree_node@U?$pair@$$CBV?$basic_string@DU?$char_traits@D@std@@V?$allocator@D@2@@std@@V?$weak_ptr@VRawImageData@@@2@@std@@PAX@std@@@std@@@std@@QAE@AAV?$allocator@U?$_Tree_node@U?$pair@$$CBV?$basic_string@DU?$char_traits@D@std@@V?$allocator@D@2@@std@@V?$weak_ptr@VRawImageData@@@2@@std@@PAX@std@@@1@@Z 00400000     ImageMappingDemo.obj
 0002:fff75000       __unwindtable$??0?$basic_string@DU?$char_traits@D@std@@V?$allocator@D@2@@std@@QAE@ABV01@@Z 00400000     ImageMappingDemo.obj
 0002:fff75000       __unwindtable$??0?$basic_string@DU?$char_traits@D@std@@V?$allocator@D@2@@std@@QAE@QBD@Z 00400000     ImageMappingDemo.obj
 0002:fff75000       __unwindtable$??0DragableImageObject@@QAE@HHPAVBaseEngine@@V?$basic_string@DU?$char_traits@D@std@@V?$allocator@D@2@@std@@_N2@Z 00400000     ImageMappingDemo.obj
 0002:fff75000       __unwindtable$??0ImageManager@@QAE@XZ 00400000     ImageMappingDemo.obj
 0002:fff75000       __unwindtable$??0RawImageData@@QAE@V?$basic_string@DU?$char_traits@D@std@@V?$allocator@D@2@@std@@@Z 00400000     ImageMappingDemo.obj
 0002:fff75000       __unwindtable$??0sentry@?$basic_ostream@DU?$char_traits@D@std@@@std@@QAE@AAV12@@Z 00400000     ImageMappingDemo.obj
 0002:fff75000       __unwindtable$?_Alloc_sentinel_and_proxy@?$_Tree@V?$_Tmap_traits@V?$basic_string@DU?$char_traits@D@std@@V?$allocator@D@2@@std@@V?$shared_ptr@VRawImageData@@@2@U?$less@V?$basic_string@DU?$char_traits@D@std@@V?$allocator@D@2@@std@@@2@V?$allocator@U?$pair@$$CBV?$basic_string@DU?$char_traits@D@std@@V?$allocator@D@2@@std@@V?$shared_ptr@VRawImageData@@@2@@std@@@2@$0A@@std@@@std@@IAEXXZ 00400000     ImageMappingDemo.obj
 0002:fff75000       __unwindtable$?_Alloc_sentinel_and_proxy@?$_Tree@V?$_Tmap_traits@V?$basic_string@DU?$char_traits@D@std@@V?$allocator@D@2@@std@@V?$weak_ptr@VRawImageData@@@2@U?$less@V?$basic_string@DU?$char_traits@D@std@@V?$allocator@D@2@@std@@@2@V?$allocator@U?$pair@$$CBV?$basic_string@DU?$char_traits@D@std@@V?$allocator@D@2@@std@@V?$weak_ptr@VRawImageData@@@2@@std@@@2@$0A@@std@@@std@@IAEXXZ 00400000     ImageMappingDemo.obj
 0002:fff75000       __unwindtable$?_Orphan_range_locked@?$vector@PAVDisplayableObject@@V?$allocator@PAVDisplayableObject@@@std@@@std@@ABEXPAPAVDisplayableObject@@0@Z 00400000     ImageMappingDemo.obj
 0002:fff75000       __unwindtable$?get@ImageManager@@SAPAV1@XZ 00400000     ImageMappingDemo.obj
 0002:fff75000       __unwindtable$?getImagebyURL@ImageManager@@QAE?AVSimpleImage@@V?$basic_string@DU?$char_traits@D@std@@V?$allocator@D@2@@std@@_N1@Z 00400000     ImageMappingDemo.obj
 0002:fff75000       __unwindtable$?loadAsNew@ImageManager@@QAE?AV?$shared_ptr@VRawImageData@@@std@@V?$basic_string@DU?$char_traits@D@std@@V?$allocator@D@2@@3@@Z 00400000     ImageMappingDemo.obj
 0002:fff75000       __unwindtable$?loadImage@RawImageData@@QAE_NV?$basic_string@DU?$char_traits@D@std@@V?$allocator@D@2@@std@@HHHHH_N@Z 00400000     ImageMappingDemo.obj
 0000:00000000       _volmd                     00400000     ImageMappingDemo.obj
 0000:00000000       _volmd                     00400000     ImageMappingDemo.obj
 0000:00000000       _volmd                     00400000     ImageMappingDemo.obj
 0000:00000000       _volmd                     00400000     ImageMappingDemo.obj
 0000:00000000       _volmd                     00400000     ImageMappingDemo.obj
 0000:00000000       _volmd                     00400000     ImageMappingDemo.obj
 0000:00000000       _volmd                     00400000     ImageMappingDemo.obj
 0000:00000000       _volmd                     00400000     ImageMappingDemo.obj
 0000:00000000       _volmd                     00400000     ImageMappingDemo.obj
 0000:00000000       _volmd                     00400000     ImageMappingDemo.obj
 0000:00000000       _volmd                     00400000     ImageMappingDemo.obj
 0000:00000000       _volmd                     00400000     ImageMappingDemo.obj
 0000:00000000       _volmd                     00400000     ImageMappingDemo.obj
 0000:00000000       _volmd                     00400000     ImageMappingDemo.obj
 0000:00000000       _volmd                     00400000     ImageMappingDemo.obj
 0000:00000000       _volmd                     00400000     ImageMappingDemo.obj
 0000:00000000       _volmd                     00400000     ImageMappingDemo.obj
 0000:00000000       _volmd                     00400000     ImageMappingDemo.obj
 0000:00000000       _volmd                     00400000     ImageMappingDemo.obj
 0000:00000000       _volmd                     00400000     ImageMappingDemo.obj
 0000:00000000       _volmd                     00400000     ImageMappingDemo.obj
 0000:00000000       _volmd                     00400000     ImageMappingDemo.obj
 0000:00000000       _volmd                     00400000     ImageMappingDemo.obj
 0000:00000000       _volmd                     00400000     ImageMappingDemo.obj
 0000:00000000       _volmd                     00400000     ImageMappingDemo.obj
 0000:00000000       _volmd                     00400000     ImageMappingDemo.obj
 0000:00000000       _volmd                     00400000     ImageMappingDemo.obj
 0000:00000000       _volmd                     00400000     ImageMappingDemo.obj
 0000:00000000       _volmd                     00400000     ImageMappingDemo.obj
 0000:00000000       _volmd                     00400000     ImageMappingDemo.obj
 0000:00000000       _volmd                     00400000     ImageMappingDemo.obj
 0000:00000000       _volmd                     00400000     ImageMappingDemo.obj
 0000:00000000       _volmd                     00400000     ImageMappingDemo.obj
 0000:00000000       _volmd                     00400000     ImageMappingDemo.obj
 0000:00000000       _volmd                     00400000     ImageMappingDemo.obj
 0000:00000000       _volmd                     00400000     ImageMappingDemo.obj
 0000:00000000       _volmd                     00400000     ImageMappingDemo.obj
 0002:fff75000       __catchsym$??$?6U?$char_traits@D@std@@@std@@YAAAV?$basic_ostream@DU?$char_traits@D@std@@@0@AAV10@PBD@Z$3 00400000     MainCharacter.obj
 0002:fff75000       __catchsym$??$_Insert_string@DU?$char_traits@D@std@@I@std@@YAAAV?$basic_ostream@DU?$char_traits@D@std@@@0@AAV10@QBDI@Z$3 00400000     MainCharacter.obj
 0002:fff75000       __ehfuncinfo$??$_Deallocate@$07@std@@YAXPAXI@Z 00400000     MainCharacter.obj
 0002:fff75000       __ehfuncinfo$??$_Freenode@V?$allocator@U?$_Tree_node@U?$pair@$$CBV?$basic_string@DU?$char_traits@D@std@@V?$allocator@D@2@@std@@V?$weak_ptr@VRawImageData@@@2@@std@@PAX@std@@@std@@@?$_Tree_node@U?$pair@$$CBV?$basic_string@DU?$char_traits@D@std@@V?$allocator@D@2@@std@@V?$weak_ptr@VRawImageData@@@2@@std@@PAX@std@@SAXAAV?$allocator@U?$_Tree_node@U?$pair@$$CBV?$basic_string@DU?$char_traits@D@std@@V?$allocator@D@2@@std@@V?$weak_ptr@VRawImageData@@@2@@std@@PAX@std@@@1@PAU01@@Z 00400000     MainCharacter.obj
 0002:fff75000       __ehfuncinfo$??0?$basic_string@DU?$char_traits@D@std@@V?$allocator@D@2@@std@@QAE@$$QAV01@@Z 00400000     MainCharacter.obj
 0002:fff75000       __ehfuncinfo$??1?$_Tree_temp_node@V?$allocator@U?$_Tree_node@U?$pair@$$CBV?$basic_string@DU?$char_traits@D@std@@V?$allocator@D@2@@std@@V?$shared_ptr@VRawImageData@@@2@@std@@PAX@std@@@std@@@std@@QAE@XZ 00400000     MainCharacter.obj
 0002:fff75000       __ehfuncinfo$??1?$_Tree_temp_node@V?$allocator@U?$_Tree_node@U?$pair@$$CBV?$basic_string@DU?$char_traits@D@std@@V?$allocator@D@2@@std@@V?$weak_ptr@VRawImageData@@@2@@std@@PAX@std@@@std@@@std@@QAE@XZ 00400000     MainCharacter.obj
 0002:fff75000       __ehfuncinfo$??1RawImageData@@QAE@XZ 00400000     MainCharacter.obj
 0002:fff75000       __ehfuncinfo$??1_Sentry_base@?$basic_ostream@DU?$char_traits@D@std@@@std@@QAE@XZ 00400000     MainCharacter.obj
 0002:fff75000       __ehfuncinfo$?getImagePtrbyURL@ImageManager@@QAE?AV?$shared_ptr@VRawImageData@@@std@@V?$basic_string@DU?$char_traits@D@std@@V?$allocator@D@2@@3@_N1@Z 00400000     MainCharacter.obj
 0001:fffff000       __ehhandler$??$_Deallocate@$07@std@@YAXPAXI@Z 00400000 f   MainCharacter.obj
 0001:fffff000       __ehhandler$??$_Freenode@V?$allocator@U?$_Tree_node@U?$pair@$$CBV?$basic_string@DU?$char_traits@D@std@@V?$allocator@D@2@@std@@V?$weak_ptr@VRawImageData@@@2@@std@@PAX@std@@@std@@@?$_Tree_node@U?$pair@$$CBV?$basic_string@DU?$char_traits@D@std@@V?$allocator@D@2@@std@@V?$weak_ptr@VRawImageData@@@2@@std@@PAX@std@@SAXAAV?$allocator@U?$_Tree_node@U?$pair@$$CBV?$basic_string@DU?$char_traits@D@std@@V?$allocator@D@2@@std@@V?$weak_ptr@VRawImageData@@@2@@std@@PAX@std@@@1@PAU01@@Z 00400000 f   MainCharacter.obj
 0001:fffff000       __ehhandler$??0?$basic_string@DU?$char_traits@D@std@@V?$allocator@D@2@@std@@QAE@$$QAV01@@Z 00400000 f   MainCharacter.obj
 0001:fffff000       __ehhandler$??1?$_Tree_temp_node@V?$allocator@U?$_Tree_node@U?$pair@$$CBV?$basic_string@DU?$char_traits@D@std@@V?$allocator@D@2@@std@@V?$shared_ptr@VRawImageData@@@2@@std@@PAX@std@@@std@@@std@@QAE@XZ 00400000 f   MainCharacter.obj
 0001:fffff000       __ehhandler$??1?$_Tree_temp_node@V?$allocator@U?$_Tree_node@U?$pair@$$CBV?$basic_string@DU?$char_traits@D@std@@V?$allocator@D@2@@std@@V?$weak_ptr@VRawImageData@@@2@@std@@PAX@std@@@std@@@std@@QAE@XZ 00400000 f   MainCharacter.obj
 0001:fffff000       __ehhandler$??1RawImageData@@QAE@XZ 00400000 f   MainCharacter.obj
 0001:fffff000       __ehhandler$??1_Sentry_base@?$basic_ostream@DU?$char_traits@D@std@@@std@@QAE@XZ 00400000 f   MainCharacter.obj
 0001:fffff000       __unwindfunclet$??$?0U?$pair@V?$basic_string@DU?$char_traits@D@std@@V?$allocator@D@2@@std@@V?$shared_ptr@VRawImageData@@@2@@std@@@?$_Tree_temp_node@V?$allocator@U?$_Tree_node@U?$pair@$$CBV?$basic_string@DU?$char_traits@D@std@@V?$allocator@D@2@@std@@V?$shared_ptr@VRawImageData@@@2@@std@@PAX@std@@@std@@@std@@QAE@AAV?$allocator@U?$_Tree_node@U?$pair@$$CBV?$basic_string@DU?$char_traits@D@std@@V?$allocator@D@2@@std@@V?$shared_ptr@VRawImageData@@@2@@std@@PAX@std@@@1@PAU?$_Tree_node@U?$pair@$$CBV?$basic_string@DU?$char_traits@D@std@@V?$allocator@D@2@@std@@V?$shared_ptr@VRawImageData@@@2@@std@@PAX@1@$$QAU?$pair@V?$basic_string@DU?$char_traits@D@std@@V?$allocator@D@2@@std@@V?$shared_ptr@VRawImageData@@@2@@1@@Z$0 00400000 f   MainCharacter.obj
 0001:fffff000       __unwindfunclet$??$?0U?$pair@V?$basic_string@DU?$char_traits@D@std@@V?$allocator@D@2@@std@@V?$weak_ptr@VRawImageData@@@2@@std@@@?$_Tree_temp_node@V?$allocator@U?$_Tree_node@U?$pair@$$CBV?$basic_string@DU?$char_traits@D@std@@V?$allocator@D@2@@std@@V?$weak_ptr@VRawImageData@@@2@@std@@PAX@std@@@std@@@std@@QAE@AAV?$allocator@U?$_Tree_node@U?$pair@$$CBV?$basic_string@DU?$char_traits@D@std@@V?$allocator@D@2@@std@@V?$weak_ptr@VRawImageData@@@2@@std@@PAX@std@@@1@PAU?$_Tree_node@U?$pair@$$CBV?$basic_string@DU?$char_traits@D@std@@V?$allocator@D@2@@std@@V?$weak_ptr@VRawImageData@@@2@@std@@PAX@1@$$QAU?$pair@V?$basic_string@DU?$char_traits@D@std@@V?$allocator@D@2@@std@@V?$weak_ptr@VRawImageData@@@2@@1@@Z$0 00400000 f   MainCharacter.obj
 0001:fffff000       __unwindfunclet$??$?0VRawImageData@@$0A@@?$shared_ptr@VRawImageData@@@std@@QAE@PAVRawImageData@@@Z$0 00400000 f   MainCharacter.obj
 0001:fffff000       __unwindfunclet$??$?6U?$char_traits@D@std@@@std@@YAAAV?$basic_ostream@DU?$char_traits@D@std@@@0@AAV10@PBD@Z$2 00400000 f   MainCharacter.obj
 0001:fffff000       __unwindfunclet$??$_Construct@$01PBD@?$basic_string@DU?$char_traits@D@std@@V?$allocator@D@2@@std@@AAEXQBDI@Z$0 00400000 f   MainCharacter.obj
 0001:fffff000       __unwindfunclet$??$_Insert_string@DU?$char_traits@D@std@@I@std@@YAAAV?$basic_ostream@DU?$char_traits@D@std@@@0@AAV10@QBDI@Z$2 00400000 f   MainCharacter.obj
 0001:fffff000       __unwindfunclet$??0?$_Tree_temp_node_alloc@V?$allocator@U?$_Tree_node@U?$pair@$$CBV?$basic_string@DU?$char_traits@D@std@@V?$allocator@D@2@@std@@V?$shared_ptr@VRawImageData@@@2@@std@@PAX@std@@@std@@@std@@QAE@AAV?$allocator@U?$_Tree_node@U?$pair@$$CBV?$basic_string@DU?$char_traits@D@std@@V?$allocator@D@2@@std@@V?$shared_ptr@VRawImageData@@@2@@std@@PAX@std@@@1@@Z$0 00400000 f   MainCharacter.obj
 0001:fffff000       __unwindfunclet$??0?$_Tree_temp_node_alloc@V?$allocator@U?$_Tree_node@U?$pair@$$CBV?$basic_string@DU?$char_traits@D@std@@V?$allocator@D@2@@std@@V?$weak_ptr@VRawImageData@@@2@@std@@PAX@std@@@std@@@std@@QAE@AAV?$allocator@U?$_Tree_node@U?$pair@$$CBV?$basic_string@DU?$char_traits@D@std@@V?$allocator@D@2@@std@@V?$weak_ptr@VRawImageData@@@2@@std@@PAX@std@@@1@@Z$0 00400000 f   MainCharacter.obj
 0001:fffff000       __unwindfunclet$??0?$basic_string@DU?$char_traits@D@std@@V?$allocator@D@2@@std@@QAE@ABV01@@Z$0 00400000 f   MainCharacter.obj
 0001:fffff000       __unwindfunclet$??0ImageManager@@QAE@XZ$0 00400000 f   MainCharacter.obj
 0001:fffff000       __unwindfunclet$??0RawImageData@@QAE@V?$basic_string@DU?$char_traits@D@std@@V?$allocator@D@2@@std@@@Z$0 00400000 f   MainCharacter.obj
 0001:fffff000       __unwindfunclet$??0sentry@?$basic_ostream@DU?$char_traits@D@std@@@std@@QAE@AAV12@@Z$0 00400000 f   MainCharacter.obj
 0001:fffff000       __unwindfunclet$?_Alloc_sentinel_and_proxy@?$_Tree@V?$_Tmap_traits@V?$basic_string@DU?$char_traits@D@std@@V?$allocator@D@2@@std@@V?$shared_ptr@VRawImageData@@@2@U?$less@V?$basic_string@DU?$char_traits@D@std@@V?$allocator@D@2@@std@@@2@V?$allocator@U?$pair@$$CBV?$basic_string@DU?$char_traits@D@std@@V?$allocator@D@2@@std@@V?$shared_ptr@VRawImageData@@@2@@std@@@2@$0A@@std@@@std@@IAEXXZ$0 00400000 f   MainCharacter.obj
 0001:fffff000       __unwindfunclet$?_Alloc_sentinel_and_proxy@?$_Tree@V?$_Tmap_traits@V?$basic_string@DU?$char_traits@D@std@@V?$allocator@D@2@@std@@V?$weak_ptr@VRawImageData@@@2@U?$less@V?$basic_string@DU?$char_traits@D@std@@V?$allocator@D@2@@std@@@2@V?$allocator@U?$pair@$$CBV?$basic_string@DU?$char_traits@D@std@@V?$allocator@D@2@@std@@V?$weak_ptr@VRawImageData@@@2@@std@@@2@$0A@@std@@@std@@IAEXXZ$0 00400000 f   MainCharacter.obj
 0001:fffff000       __unwindfunclet$?get@ImageManager@@SAPAV1@XZ$0 00400000 f   MainCharacter.obj
 0001:fffff000       __unwindfunclet$?getImagePtrbyURL@ImageManager@@QAE?AV?$shared_ptr@VRawImageData@@@std@@V?$basic_string@DU?$char_traits@D@std@@V?$allocator@D@2@@3@_N1@Z$0 00400000 f   MainCharacter.obj
 0001:fffff000       __unwindfunclet$?getImagebyURL@ImageManager@@QAE?AVSimpleImage@@V?$basic_string@DU?$char_traits@D@std@@V?$allocator@D@2@@std@@_N1@Z$0 00400000 f   MainCharacter.obj
 0001:fffff000       __unwindfunclet$?loadAsNew@ImageManager@@QAE?AV?$shared_ptr@VRawImageData@@@std@@V?$basic_string@DU?$char_traits@D@std@@V?$allocator@D@2@@3@@Z$0 00400000 f   MainCharacter.obj
 0001:fffff000       __unwindfunclet$?loadImage@ImageManager@@SA?AVSimpleImage@@V?$basic_string@DU?$char_traits@D@std@@V?$allocator@D@2@@std@@_N@Z$0 00400000 f   MainCharacter.obj
 0001:fffff000       __unwindfunclet$?loadImage@RawImageData@@QAE_NV?$basic_string@DU?$char_traits@D@std@@V?$allocator@D@2@@std@@HHHHH_N@Z$0 00400000 f   MainCharacter.obj
 0002:fff75000       __unwindtable$??$?0U?$pair@V?$basic_string@DU?$char_traits@D@std@@V?$allocator@D@2@@std@@V?$shared_ptr@VRawImageData@@@2@@std@@@?$_Tree_temp_node@V?$allocator@U?$_Tree_node@U?$pair@$$CBV?$basic_string@DU?$char_traits@D@std@@V?$allocator@D@2@@std@@V?$shared_ptr@VRawImageData@@@2@@std@@PAX@std@@@std@@@std@@QAE@AAV?$allocator@U?$_Tree_node@U?$pair@$$CBV?$basic_string@DU?$char_traits@D@std@@V?$allocator@D@2@@std@@V?$shared_ptr@VRawImageData@@@2@@std@@PAX@std@@@1@PAU?$_Tree_node@U?$pair@$$CBV?$basic_string@DU?$char_traits@D@std@@V?$allocator@D@2@@std@@V?$shared_ptr@VRawImageData@@@2@@std@@PAX@1@$$QAU?$pair@V?$basic_string@DU?$char_traits@D@std@@V?$allocator@D@2@@std@@V?$shared_ptr@VRawImageData@@@2@@1@@Z 00400000     MainCharacter.obj
 0002:fff75000       __unwindtable$??$?0U?$pair@V?$basic_string@DU?$char_traits@D@std@@V?$allocator@D@2@@std@@V?$weak_ptr@VRawImageData@@@2@@std@@@?$_Tree_temp_node@V?$allocator@U?$_Tree_node@U?$pair@$$CBV?$basic_string@DU?$char_traits@D@std@@V?$allocator@D@2@@std@@V?$weak_ptr@VRawImageData@@@2@@std@@PAX@std@@@std@@@std@@QAE@AAV?$allocator@U?$_Tree_node@U?$pair@$$CBV?$basic_string@DU?$char_traits@D@std@@V?$allocator@D@2@@std@@V?$weak_ptr@VRawImageData@@@2@@std@@PAX@std@@@1@PAU?$_Tree_node@U?$pair@$$CBV?$basic_string@DU?$char_traits@D@std@@V?$allocator@D@2@@std@@V?$weak_ptr@VRawImageData@@@2@@std@@PAX@1@$$QAU?$pair@V?$basic_string@DU?$char_traits@D@std@@V?$allocator@D@2@@std@@V?$weak_ptr@VRawImageData@@@2@@1@@Z 00400000     MainCharacter.obj
 0002:fff75000       __unwindtable$??$?0VRawImageData@@$0A@@?$shared_ptr@VRawImageData@@@std@@QAE@PAVRawImageData@@@Z 00400000     MainCharacter.obj
 0002:fff75000       __unwindtable$??$_Construct@$01PBD@?$basic_string@DU?$char_traits@D@std@@V?$allocator@D@2@@std@@AAEXQBDI@Z 00400000     MainCharacter.obj
 0002:fff75000       __unwindtable$??0?$_Tree_temp_node_alloc@V?$allocator@U?$_Tree_node@U?$pair@$$CBV?$basic_string@DU?$char_traits@D@std@@V?$allocator@D@2@@std@@V?$shared_ptr@VRawImageData@@@2@@std@@PAX@std@@@std@@@std@@QAE@AAV?$allocator@U?$_Tree_node@U?$pair@$$CBV?$basic_string@DU?$char_traits@D@std@@V?$allocator@D@2@@std@@V?$shared_ptr@VRawImageData@@@2@@std@@PAX@std@@@1@@Z 00400000     MainCharacter.obj
 0002:fff75000       __unwindtable$??0?$_Tree_temp_node_alloc@V?$allocator@U?$_Tree_node@U?$pair@$$CBV?$basic_string@DU?$char_traits@D@std@@V?$allocator@D@2@@std@@V?$weak_ptr@VRawImageData@@@2@@std@@PAX@std@@@std@@@std@@QAE@AAV?$allocator@U?$_Tree_node@U?$pair@$$CBV?$basic_string@DU?$char_traits@D@std@@V?$allocator@D@2@@std@@V?$weak_ptr@VRawImageData@@@2@@std@@PAX@std@@@1@@Z 00400000     MainCharacter.obj
 0002:fff75000       __unwindtable$??0?$basic_string@DU?$char_traits@D@std@@V?$allocator@D@2@@std@@QAE@ABV01@@Z 00400000     MainCharacter.obj
 0002:fff75000       __unwindtable$??0ImageManager@@QAE@XZ 00400000     MainCharacter.obj
 0002:fff75000       __unwindtable$??0RawImageData@@QAE@V?$basic_string@DU?$char_traits@D@std@@V?$allocator@D@2@@std@@@Z 00400000     MainCharacter.obj
 0002:fff75000       __unwindtable$??0sentry@?$basic_ostream@DU?$char_traits@D@std@@@std@@QAE@AAV12@@Z 00400000     MainCharacter.obj
 0002:fff75000       __unwindtable$?_Alloc_sentinel_and_proxy@?$_Tree@V?$_Tmap_traits@V?$basic_string@DU?$char_traits@D@std@@V?$allocator@D@2@@std@@V?$shared_ptr@VRawImageData@@@2@U?$less@V?$basic_string@DU?$char_traits@D@std@@V?$allocator@D@2@@std@@@2@V?$allocator@U?$pair@$$CBV?$basic_string@DU?$char_traits@D@std@@V?$allocator@D@2@@std@@V?$shared_ptr@VRawImageData@@@2@@std@@@2@$0A@@std@@@std@@IAEXXZ 00400000     MainCharacter.obj
 0002:fff75000       __unwindtable$?_Alloc_sentinel_and_proxy@?$_Tree@V?$_Tmap_traits@V?$basic_string@DU?$char_traits@D@std@@V?$allocator@D@2@@std@@V?$weak_ptr@VRawImageData@@@2@U?$less@V?$basic_string@DU?$char_traits@D@std@@V?$allocator@D@2@@std@@@2@V?$allocator@U?$pair@$$CBV?$basic_string@DU?$char_traits@D@std@@V?$allocator@D@2@@std@@V?$weak_ptr@VRawImageData@@@2@@std@@@2@$0A@@std@@@std@@IAEXXZ 00400000     MainCharacter.obj
 0002:fff75000       __unwindtable$?get@ImageManager@@SAPAV1@XZ 00400000     MainCharacter.obj
 0002:fff75000       __unwindtable$?getImagebyURL@ImageManager@@QAE?AVSimpleImage@@V?$basic_string@DU?$char_traits@D@std@@V?$allocator@D@2@@std@@_N1@Z 00400000     MainCharacter.obj
 0002:fff75000       __unwindtable$?loadAsNew@ImageManager@@QAE?AV?$shared_ptr@VRawImageData@@@std@@V?$basic_string@DU?$char_traits@D@std@@V?$allocator@D@2@@3@@Z 00400000     MainCharacter.obj
 0002:fff75000       __unwindtable$?loadImage@ImageManager@@SA?AVSimpleImage@@V?$basic_string@DU?$char_traits@D@std@@V?$allocator@D@2@@std@@_N@Z 00400000     MainCharacter.obj
 0002:fff75000       __unwindtable$?loadImage@RawImageData@@QAE_NV?$basic_string@DU?$char_traits@D@std@@V?$allocator@D@2@@std@@HHHHH_N@Z 00400000     MainCharacter.obj
 0000:00000000       _volmd                     00400000     MainCharacter.obj
 0000:00000000       _volmd                     00400000     MainCharacter.obj
 0000:00000000       _volmd                     00400000     MainCharacter.obj
 0000:00000000       _volmd                     00400000     MainCharacter.obj
 0000:00000000       _volmd                     00400000     MainCharacter.obj
 0000:00000000       _volmd                     00400000     MainCharacter.obj
 0000:00000000       _volmd                     00400000     MainCharacter.obj
 0000:00000000       _volmd                     00400000     MainCharacter.obj
 0000:00000000       _volmd                     00400000     MainCharacter.obj
 0000:00000000       _volmd                     00400000     MainCharacter.obj
 0000:00000000       _volmd                     00400000     MainCharacter.obj
 0000:00000000       _volmd                     00400000     MainCharacter.obj
 0000:00000000       _volmd                     00400000     MainCharacter.obj
 0000:00000000       _volmd                     00400000     MainCharacter.obj
 0000:00000000       _volmd                     00400000     MainCharacter.obj
 0000:00000000       _volmd                     00400000     MainCharacter.obj
 0000:00000000       _volmd                     00400000     MainCharacter.obj
 0000:00000000       _volmd                     00400000     MainCharacter.obj
 0000:00000000       _volmd                     00400000     MainCharacter.obj
 0000:00000000       _volmd                     00400000     MainCharacter.obj
 0000:00000000       _volmd                     00400000     MainCharacter.obj
 0000:00000000       _volmd                     00400000     MainCharacter.obj
 0000:00000000       _volmd                     00400000     MainCharacter.obj
 0000:00000000       _volmd                     00400000     MainCharacter.obj
 0000:00000000       _volmd                     00400000     MainCharacter.obj
 0000:00000000       _volmd                     00400000     MainCharacter.obj
 0000:00000000       _volmd                     00400000     MainCharacter.obj
 0000:00000000       _volmd                     00400000     MainCharacter.obj
 0000:00000000       _volmd                     00400000     MainCharacter.obj
 0000:00000000       _volmd                     00400000     MainCharacter.obj
 0000:00000000       _volmd                     00400000     MainCharacter.obj
 0000:00000000       _volmd                     00400000     MainCharacter.obj
 0000:00000000       _volmd                     00400000     MainCharacter.obj
 0000:00000000       _volmd                     00400000     MainCharacter.obj
 0000:00000000       _volmd                     00400000     MainCharacter.obj
 0000:00000000       _volmd                     00400000     MainCharacter.obj
 0000:00000000       _volmd                     00400000     MainCharacter.obj
 0002:fff75000       __ehfuncinfo$??$_Deallocate@$07@std@@YAXPAXI@Z 00400000     MazeDemoMain.obj
 0001:fffff000       __ehhandler$??$_Deallocate@$07@std@@YAXPAXI@Z 00400000 f   MazeDemoMain.obj
 0001:fffff000       __unwindfunclet$??$_Resize_reallocate@U_Value_init_tag@std@@@?$vector@PAVDisplayableObject@@V?$allocator@PAVDisplayableObject@@@std@@@std@@AAEXIABU_Value_init_tag@1@@Z$0 00400000 f   MazeDemoMain.obj
 0001:fffff000       __unwindfunclet$??$_Uninitialized_move@PAPAVDisplayableObject@@V?$allocator@PAVDisplayableObject@@@std@@@std@@YAPAPAVDisplayableObject@@QAPAV1@0PAPAV1@AAV?$allocator@PAVDisplayableObject@@@0@@Z$0 00400000 f   MazeDemoMain.obj
 0001:fffff000       __unwindfunclet$??$_Uninitialized_value_construct_n@V?$allocator@PAVDisplayableObject@@@std@@@std@@YAPAPAVDisplayableObject@@PAPAV1@IAAV?$allocator@PAVDisplayableObject@@@0@@Z$0 00400000 f   MazeDemoMain.obj
 0001:fffff000       __unwindfunclet$?_Orphan_range_locked@?$vector@PAVDisplayableObject@@V?$allocator@PAVDisplayableObject@@@std@@@std@@ABEXPAPAVDisplayableObject@@0@Z$0 00400000 f   MazeDemoMain.obj
 0001:fffff000       __unwindfunclet$?setAllObjectsVisible@DisplayableObjectContainer@@QBEX_N@Z$0 00400000 f   MazeDemoMain.obj
 0002:fff75000       __unwindtable$??$_Resize_reallocate@U_Value_init_tag@std@@@?$vector@PAVDisplayableObject@@V?$allocator@PAVDisplayableObject@@@std@@@std@@AAEXIABU_Value_init_tag@1@@Z 00400000     MazeDemoMain.obj
 0002:fff75000       __unwindtable$??$_Uninitialized_move@PAPAVDisplayableObject@@V?$allocator@PAVDisplayableObject@@@std@@@std@@YAPAPAVDisplayableObject@@QAPAV1@0PAPAV1@AAV?$allocator@PAVDisplayableObject@@@0@@Z 00400000     MazeDemoMain.obj
 0002:fff75000       __unwindtable$??$_Uninitialized_value_construct_n@V?$allocator@PAVDisplayableObject@@@std@@@std@@YAPAPAVDisplayableObject@@PAPAV1@IAAV?$allocator@PAVDisplayableObject@@@0@@Z 00400000     MazeDemoMain.obj
 0002:fff75000       __unwindtable$?_Orphan_range_locked@?$vector@PAVDisplayableObject@@V?$allocator@PAVDisplayableObject@@@std@@@std@@ABEXPAPAVDisplayableObject@@0@Z 00400000     MazeDemoMain.obj
 0002:fff75000       __unwindtable$?setAllObjectsVisible@DisplayableObjectContainer@@QBEX_N@Z 00400000     MazeDemoMain.obj
 0000:00000000       _volmd                     00400000     MazeDemoMain.obj
 0000:00000000       _volmd                     00400000     MazeDemoMain.obj
 0000:00000000       _volmd                     00400000     MazeDemoMain.obj
 0000:00000000       _volmd                     00400000     MazeDemoMain.obj
 0000:00000000       _volmd                     00400000     MazeDemoMain.obj
 0000:00000000       _volmd                     00400000     MazeDemoMain.obj
 0000:00000000       _volmd                     00400000     MazeDemoMain.obj
 0000:00000000       _volmd                     00400000     MazeDemoMain.obj
 0000:00000000       _volmd                     00400000     MazeDemoObject.obj
 0002:fff75000       __catchsym$??$?6U?$char_traits@D@std@@@std@@YAAAV?$basic_ostream@DU?$char_traits@D@std@@@0@AAV10@PBD@Z$3 00400000     MyDemoA.obj
 0002:fff75000       __catchsym$??$_Insert_string@DU?$char_traits@D@std@@I@std@@YAAAV?$basic_ostream@DU?$char_traits@D@std@@@0@AAV10@QBDI@Z$3 00400000     MyDemoA.obj
 0002:fff75000       __ehfuncinfo$??$_Deallocate@$07@std@@YAXPAXI@Z 00400000     MyDemoA.obj
 0002:fff75000       __ehfuncinfo$??$_Freenode@V?$allocator@U?$_Tree_node@U?$pair@$$CBV?$basic_string@DU?$char_traits@D@std@@V?$allocator@D@2@@std@@V?$weak_ptr@VRawImageData@@@2@@std@@PAX@std@@@std@@@?$_Tree_node@U?$pair@$$CBV?$basic_string@DU?$char_traits@D@std@@V?$allocator@D@2@@std@@V?$weak_ptr@VRawImageData@@@2@@std@@PAX@std@@SAXAAV?$allocator@U?$_Tree_node@U?$pair@$$CBV?$basic_string@DU?$char_traits@D@std@@V?$allocator@D@2@@std@@V?$weak_ptr@VRawImageData@@@2@@std@@PAX@std@@@1@PAU01@@Z 00400000     MyDemoA.obj
 0002:fff75000       __ehfuncinfo$??0?$basic_string@DU?$char_traits@D@std@@V?$allocator@D@2@@std@@QAE@$$QAV01@@Z 00400000     MyDemoA.obj
 0002:fff75000       __ehfuncinfo$??1?$_Tree_temp_node@V?$allocator@U?$_Tree_node@U?$pair@$$CBV?$basic_string@DU?$char_traits@D@std@@V?$allocator@D@2@@std@@V?$shared_ptr@VRawImageData@@@2@@std@@PAX@std@@@std@@@std@@QAE@XZ 00400000     MyDemoA.obj
 0002:fff75000       __ehfuncinfo$??1?$_Tree_temp_node@V?$allocator@U?$_Tree_node@U?$pair@$$CBV?$basic_string@DU?$char_traits@D@std@@V?$allocator@D@2@@std@@V?$weak_ptr@VRawImageData@@@2@@std@@PAX@std@@@std@@@std@@QAE@XZ 00400000     MyDemoA.obj
 0002:fff75000       __ehfuncinfo$??1RawImageData@@QAE@XZ 00400000     MyDemoA.obj
 0002:fff75000       __ehfuncinfo$??1_Sentry_base@?$basic_ostream@DU?$char_traits@D@std@@@std@@QAE@XZ 00400000     MyDemoA.obj
 0002:fff75000       __ehfuncinfo$?getImagePtrbyURL@ImageManager@@QAE?AV?$shared_ptr@VRawImageData@@@std@@V?$basic_string@DU?$char_traits@D@std@@V?$allocator@D@2@@3@_N1@Z 00400000     MyDemoA.obj
 0001:fffff000       __ehhandler$??$_Deallocate@$07@std@@YAXPAXI@Z 00400000 f   MyDemoA.obj
 0001:fffff000       __ehhandler$??$_Freenode@V?$allocator@U?$_Tree_node@U?$pair@$$CBV?$basic_string@DU?$char_traits@D@std@@V?$allocator@D@2@@std@@V?$weak_ptr@VRawImageData@@@2@@std@@PAX@std@@@std@@@?$_Tree_node@U?$pair@$$CBV?$basic_string@DU?$char_traits@D@std@@V?$allocator@D@2@@std@@V?$weak_ptr@VRawImageData@@@2@@std@@PAX@std@@SAXAAV?$allocator@U?$_Tree_node@U?$pair@$$CBV?$basic_string@DU?$char_traits@D@std@@V?$allocator@D@2@@std@@V?$weak_ptr@VRawImageData@@@2@@std@@PAX@std@@@1@PAU01@@Z 00400000 f   MyDemoA.obj
 0001:fffff000       __ehhandler$??0?$basic_string@DU?$char_traits@D@std@@V?$allocator@D@2@@std@@QAE@$$QAV01@@Z 00400000 f   MyDemoA.obj
 0001:fffff000       __ehhandler$??1?$_Tree_temp_node@V?$allocator@U?$_Tree_node@U?$pair@$$CBV?$basic_string@DU?$char_traits@D@std@@V?$allocator@D@2@@std@@V?$shared_ptr@VRawImageData@@@2@@std@@PAX@std@@@std@@@std@@QAE@XZ 00400000 f   MyDemoA.obj
 0001:fffff000       __ehhandler$??1?$_Tree_temp_node@V?$allocator@U?$_Tree_node@U?$pair@$$CBV?$basic_string@DU?$char_traits@D@std@@V?$allocator@D@2@@std@@V?$weak_ptr@VRawImageData@@@2@@std@@PAX@std@@@std@@@std@@QAE@XZ 00400000 f   MyDemoA.obj
 0001:fffff000       __ehhandler$??1RawImageData@@QAE@XZ 00400000 f   MyDemoA.obj
 0001:fffff000       __ehhandler$??1_Sentry_base@?$basic_ostream@DU?$char_traits@D@std@@@std@@QAE@XZ 00400000 f   MyDemoA.obj
 0001:fffff000       __unwindfunclet$??$?0U?$pair@V?$basic_string@DU?$char_traits@D@std@@V?$allocator@D@2@@std@@V?$shared_ptr@VRawImageData@@@2@@std@@@?$_Tree_temp_node@V?$allocator@U?$_Tree_node@U?$pair@$$CBV?$basic_string@DU?$char_traits@D@std@@V?$allocator@D@2@@std@@V?$shared_ptr@VRawImageData@@@2@@std@@PAX@std@@@std@@@std@@QAE@AAV?$allocator@U?$_Tree_node@U?$pair@$$CBV?$basic_string@DU?$char_traits@D@std@@V?$allocator@D@2@@std@@V?$shared_ptr@VRawImageData@@@2@@std@@PAX@std@@@1@PAU?$_Tree_node@U?$pair@$$CBV?$basic_string@DU?$char_traits@D@std@@V?$allocator@D@2@@std@@V?$shared_ptr@VRawImageData@@@2@@std@@PAX@1@$$QAU?$pair@V?$basic_string@DU?$char_traits@D@std@@V?$allocator@D@2@@std@@V?$shared_ptr@VRawImageData@@@2@@1@@Z$0 00400000 f   MyDemoA.obj
 0001:fffff000       __unwindfunclet$??$?0U?$pair@V?$basic_string@DU?$char_traits@D@std@@V?$allocator@D@2@@std@@V?$weak_ptr@VRawImageData@@@2@@std@@@?$_Tree_temp_node@V?$allocator@U?$_Tree_node@U?$pair@$$CBV?$basic_string@DU?$char_traits@D@std@@V?$allocator@D@2@@std@@V?$weak_ptr@VRawImageData@@@2@@std@@PAX@std@@@std@@@std@@QAE@AAV?$allocator@U?$_Tree_node@U?$pair@$$CBV?$basic_string@DU?$char_traits@D@std@@V?$allocator@D@2@@std@@V?$weak_ptr@VRawImageData@@@2@@std@@PAX@std@@@1@PAU?$_Tree_node@U?$pair@$$CBV?$basic_string@DU?$char_traits@D@std@@V?$allocator@D@2@@std@@V?$weak_ptr@VRawImageData@@@2@@std@@PAX@1@$$QAU?$pair@V?$basic_string@DU?$char_traits@D@std@@V?$allocator@D@2@@std@@V?$weak_ptr@VRawImageData@@@2@@1@@Z$0 00400000 f   MyDemoA.obj
 0001:fffff000       __unwindfunclet$??$?0VRawImageData@@$0A@@?$shared_ptr@VRawImageData@@@std@@QAE@PAVRawImageData@@@Z$0 00400000 f   MyDemoA.obj
 0001:fffff000       __unwindfunclet$??$?6U?$char_traits@D@std@@@std@@YAAAV?$basic_ostream@DU?$char_traits@D@std@@@0@AAV10@PBD@Z$2 00400000 f   MyDemoA.obj
 0001:fffff000       __unwindfunclet$??$_Construct@$00PBD@?$basic_string@DU?$char_traits@D@std@@V?$allocator@D@2@@std@@AAEXQBDI@Z$0 00400000 f   MyDemoA.obj
 0001:fffff000       __unwindfunclet$??$_Construct@$01PBD@?$basic_string@DU?$char_traits@D@std@@V?$allocator@D@2@@std@@AAEXQBDI@Z$0 00400000 f   MyDemoA.obj
 0001:fffff000       __unwindfunclet$??$_Insert_string@DU?$char_traits@D@std@@I@std@@YAAAV?$basic_ostream@DU?$char_traits@D@std@@@0@AAV10@QBDI@Z$2 00400000 f   MyDemoA.obj
 0001:fffff000       __unwindfunclet$??$_Resize_reallocate@U_Value_init_tag@std@@@?$vector@PAVDisplayableObject@@V?$allocator@PAVDisplayableObject@@@std@@@std@@AAEXIABU_Value_init_tag@1@@Z$0 00400000 f   MyDemoA.obj
 0001:fffff000       __unwindfunclet$??$_Uninitialized_move@PAPAVDisplayableObject@@V?$allocator@PAVDisplayableObject@@@std@@@std@@YAPAPAVDisplayableObject@@QAPAV1@0PAPAV1@AAV?$allocator@PAVDisplayableObject@@@0@@Z$0 00400000 f   MyDemoA.obj
 0001:fffff000       __unwindfunclet$??$_Uninitialized_value_construct_n@V?$allocator@PAVDisplayableObject@@@std@@@std@@YAPAPAVDisplayableObject@@PAPAV1@IAAV?$allocator@PAVDisplayableObject@@@0@@Z$0 00400000 f   MyDemoA.obj
 0001:fffff000       __unwindfunclet$??0?$_Tree_temp_node_alloc@V?$allocator@U?$_Tree_node@U?$pair@$$CBV?$basic_string@DU?$char_traits@D@std@@V?$allocator@D@2@@std@@V?$shared_ptr@VRawImageData@@@2@@std@@PAX@std@@@std@@@std@@QAE@AAV?$allocator@U?$_Tree_node@U?$pair@$$CBV?$basic_string@DU?$char_traits@D@std@@V?$allocator@D@2@@std@@V?$shared_ptr@VRawImageData@@@2@@std@@PAX@std@@@1@@Z$0 00400000 f   MyDemoA.obj
 0001:fffff000       __unwindfunclet$??0?$_Tree_temp_node_alloc@V?$allocator@U?$_Tree_node@U?$pair@$$CBV?$basic_string@DU?$char_traits@D@std@@V?$allocator@D@2@@std@@V?$weak_ptr@VRawImageData@@@2@@std@@PAX@std@@@std@@@std@@QAE@AAV?$allocator@U?$_Tree_node@U?$pair@$$CBV?$basic_string@DU?$char_traits@D@std@@V?$allocator@D@2@@std@@V?$weak_ptr@VRawImageData@@@2@@std@@PAX@std@@@1@@Z$0 00400000 f   MyDemoA.obj
 0001:fffff000       __unwindfunclet$??0?$basic_string@DU?$char_traits@D@std@@V?$allocator@D@2@@std@@QAE@ABV01@@Z$0 00400000 f   MyDemoA.obj
 0001:fffff000       __unwindfunclet$??0?$basic_string@DU?$char_traits@D@std@@V?$allocator@D@2@@std@@QAE@QBD@Z$0 00400000 f   MyDemoA.obj
 0001:fffff000       __unwindfunclet$??0ImageManager@@QAE@XZ$0 00400000 f   MyDemoA.obj
 0001:fffff000       __unwindfunclet$??0RawImageData@@QAE@V?$basic_string@DU?$char_traits@D@std@@V?$allocator@D@2@@std@@@Z$0 00400000 f   MyDemoA.obj
 0001:fffff000       __unwindfunclet$??0sentry@?$basic_ostream@DU?$char_traits@D@std@@@std@@QAE@AAV12@@Z$0 00400000 f   MyDemoA.obj
 0001:fffff000       __unwindfunclet$?_Alloc_sentinel_and_proxy@?$_Tree@V?$_Tmap_traits@V?$basic_string@DU?$char_traits@D@std@@V?$allocator@D@2@@std@@V?$shared_ptr@VRawImageData@@@2@U?$less@V?$basic_string@DU?$char_traits@D@std@@V?$allocator@D@2@@std@@@2@V?$allocator@U?$pair@$$CBV?$basic_string@DU?$char_traits@D@std@@V?$allocator@D@2@@std@@V?$shared_ptr@VRawImageData@@@2@@std@@@2@$0A@@std@@@std@@IAEXXZ$0 00400000 f   MyDemoA.obj
 0001:fffff000       __unwindfunclet$?_Alloc_sentinel_and_proxy@?$_Tree@V?$_Tmap_traits@V?$basic_string@DU?$char_traits@D@std@@V?$allocator@D@2@@std@@V?$weak_ptr@VRawImageData@@@2@U?$less@V?$basic_string@DU?$char_traits@D@std@@V?$allocator@D@2@@std@@@2@V?$allocator@U?$pair@$$CBV?$basic_string@DU?$char_traits@D@std@@V?$allocator@D@2@@std@@V?$weak_ptr@VRawImageData@@@2@@std@@@2@$0A@@std@@@std@@IAEXXZ$0 00400000 f   MyDemoA.obj
 0001:fffff000       __unwindfunclet$?_Orphan_range_locked@?$vector@PAVDisplayableObject@@V?$allocator@PAVDisplayableObject@@@std@@@std@@ABEXPAPAVDisplayableObject@@0@Z$0 00400000 f   MyDemoA.obj
 0001:fffff000       __unwindfunclet$?get@ImageManager@@SAPAV1@XZ$0 00400000 f   MyDemoA.obj
 0001:fffff000       __unwindfunclet$?getImagePtrbyURL@ImageManager@@QAE?AV?$shared_ptr@VRawImageData@@@std@@V?$basic_string@DU?$char_traits@D@std@@V?$allocator@D@2@@3@_N1@Z$0 00400000 f   MyDemoA.obj
 0001:fffff000       __unwindfunclet$?getImagebyURL@ImageManager@@QAE?AVSimpleImage@@V?$basic_string@DU?$char_traits@D@std@@V?$allocator@D@2@@std@@_N1@Z$0 00400000 f   MyDemoA.obj
 0001:fffff000       __unwindfunclet$?loadAsNew@ImageManager@@QAE?AV?$shared_ptr@VRawImageData@@@std@@V?$basic_string@DU?$char_traits@D@std@@V?$allocator@D@2@@3@@Z$0 00400000 f   MyDemoA.obj
 0001:fffff000       __unwindfunclet$?loadImage@ImageManager@@SA?AVSimpleImage@@V?$basic_string@DU?$char_traits@D@std@@V?$allocator@D@2@@std@@_N@Z$0 00400000 f   MyDemoA.obj
 0001:fffff000       __unwindfunclet$?loadImage@RawImageData@@QAE_NV?$basic_string@DU?$char_traits@D@std@@V?$allocator@D@2@@std@@HHHHH_N@Z$0 00400000 f   MyDemoA.obj
 0001:fffff000       __unwindfunclet$?setAllObjectsVisible@DisplayableObjectContainer@@QBEX_N@Z$0 00400000 f   MyDemoA.obj
 0002:fff75000       __unwindtable$??$?0U?$pair@V?$basic_string@DU?$char_traits@D@std@@V?$allocator@D@2@@std@@V?$shared_ptr@VRawImageData@@@2@@std@@@?$_Tree_temp_node@V?$allocator@U?$_Tree_node@U?$pair@$$CBV?$basic_string@DU?$char_traits@D@std@@V?$allocator@D@2@@std@@V?$shared_ptr@VRawImageData@@@2@@std@@PAX@std@@@std@@@std@@QAE@AAV?$allocator@U?$_Tree_node@U?$pair@$$CBV?$basic_string@DU?$char_traits@D@std@@V?$allocator@D@2@@std@@V?$shared_ptr@VRawImageData@@@2@@std@@PAX@std@@@1@PAU?$_Tree_node@U?$pair@$$CBV?$basic_string@DU?$char_traits@D@std@@V?$allocator@D@2@@std@@V?$shared_ptr@VRawImageData@@@2@@std@@PAX@1@$$QAU?$pair@V?$basic_string@DU?$char_traits@D@std@@V?$allocator@D@2@@std@@V?$shared_ptr@VRawImageData@@@2@@1@@Z 00400000     MyDemoA.obj
 0002:fff75000       __unwindtable$??$?0U?$pair@V?$basic_string@DU?$char_traits@D@std@@V?$allocator@D@2@@std@@V?$weak_ptr@VRawImageData@@@2@@std@@@?$_Tree_temp_node@V?$allocator@U?$_Tree_node@U?$pair@$$CBV?$basic_string@DU?$char_traits@D@std@@V?$allocator@D@2@@std@@V?$weak_ptr@VRawImageData@@@2@@std@@PAX@std@@@std@@@std@@QAE@AAV?$allocator@U?$_Tree_node@U?$pair@$$CBV?$basic_string@DU?$char_traits@D@std@@V?$allocator@D@2@@std@@V?$weak_ptr@VRawImageData@@@2@@std@@PAX@std@@@1@PAU?$_Tree_node@U?$pair@$$CBV?$basic_string@DU?$char_traits@D@std@@V?$allocator@D@2@@std@@V?$weak_ptr@VRawImageData@@@2@@std@@PAX@1@$$QAU?$pair@V?$basic_string@DU?$char_traits@D@std@@V?$allocator@D@2@@std@@V?$weak_ptr@VRawImageData@@@2@@1@@Z 00400000     MyDemoA.obj
 0002:fff75000       __unwindtable$??$?0VRawImageData@@$0A@@?$shared_ptr@VRawImageData@@@std@@QAE@PAVRawImageData@@@Z 00400000     MyDemoA.obj
 0002:fff75000       __unwindtable$??$_Construct@$00PBD@?$basic_string@DU?$char_traits@D@std@@V?$allocator@D@2@@std@@AAEXQBDI@Z 00400000     MyDemoA.obj
 0002:fff75000       __unwindtable$??$_Construct@$01PBD@?$basic_string@DU?$char_traits@D@std@@V?$allocator@D@2@@std@@AAEXQBDI@Z 00400000     MyDemoA.obj
 0002:fff75000       __unwindtable$??$_Resize_reallocate@U_Value_init_tag@std@@@?$vector@PAVDisplayableObject@@V?$allocator@PAVDisplayableObject@@@std@@@std@@AAEXIABU_Value_init_tag@1@@Z 00400000     MyDemoA.obj
 0002:fff75000       __unwindtable$??$_Uninitialized_move@PAPAVDisplayableObject@@V?$allocator@PAVDisplayableObject@@@std@@@std@@YAPAPAVDisplayableObject@@QAPAV1@0PAPAV1@AAV?$allocator@PAVDisplayableObject@@@0@@Z 00400000     MyDemoA.obj
 0002:fff75000       __unwindtable$??$_Uninitialized_value_construct_n@V?$allocator@PAVDisplayableObject@@@std@@@std@@YAPAPAVDisplayableObject@@PAPAV1@IAAV?$allocator@PAVDisplayableObject@@@0@@Z 00400000     MyDemoA.obj
 0002:fff75000       __unwindtable$??0?$_Tree_temp_node_alloc@V?$allocator@U?$_Tree_node@U?$pair@$$CBV?$basic_string@DU?$char_traits@D@std@@V?$allocator@D@2@@std@@V?$shared_ptr@VRawImageData@@@2@@std@@PAX@std@@@std@@@std@@QAE@AAV?$allocator@U?$_Tree_node@U?$pair@$$CBV?$basic_string@DU?$char_traits@D@std@@V?$allocator@D@2@@std@@V?$shared_ptr@VRawImageData@@@2@@std@@PAX@std@@@1@@Z 00400000     MyDemoA.obj
 0002:fff75000       __unwindtable$??0?$_Tree_temp_node_alloc@V?$allocator@U?$_Tree_node@U?$pair@$$CBV?$basic_string@DU?$char_traits@D@std@@V?$allocator@D@2@@std@@V?$weak_ptr@VRawImageData@@@2@@std@@PAX@std@@@std@@@std@@QAE@AAV?$allocator@U?$_Tree_node@U?$pair@$$CBV?$basic_string@DU?$char_traits@D@std@@V?$allocator@D@2@@std@@V?$weak_ptr@VRawImageData@@@2@@std@@PAX@std@@@1@@Z 00400000     MyDemoA.obj
 0002:fff75000       __unwindtable$??0?$basic_string@DU?$char_traits@D@std@@V?$allocator@D@2@@std@@QAE@ABV01@@Z 00400000     MyDemoA.obj
 0002:fff75000       __unwindtable$??0?$basic_string@DU?$char_traits@D@std@@V?$allocator@D@2@@std@@QAE@QBD@Z 00400000     MyDemoA.obj
 0002:fff75000       __unwindtable$??0ImageManager@@QAE@XZ 00400000     MyDemoA.obj
 0002:fff75000       __unwindtable$??0RawImageData@@QAE@V?$basic_string@DU?$char_traits@D@std@@V?$allocator@D@2@@std@@@Z 00400000     MyDemoA.obj
 0002:fff75000       __unwindtable$??0sentry@?$basic_ostream@DU?$char_traits@D@std@@@std@@QAE@AAV12@@Z 00400000     MyDemoA.obj
 0002:fff75000       __unwindtable$?_Alloc_sentinel_and_proxy@?$_Tree@V?$_Tmap_traits@V?$basic_string@DU?$char_traits@D@std@@V?$allocator@D@2@@std@@V?$shared_ptr@VRawImageData@@@2@U?$less@V?$basic_string@DU?$char_traits@D@std@@V?$allocator@D@2@@std@@@2@V?$allocator@U?$pair@$$CBV?$basic_string@DU?$char_traits@D@std@@V?$allocator@D@2@@std@@V?$shared_ptr@VRawImageData@@@2@@std@@@2@$0A@@std@@@std@@IAEXXZ 00400000     MyDemoA.obj
 0002:fff75000       __unwindtable$?_Alloc_sentinel_and_proxy@?$_Tree@V?$_Tmap_traits@V?$basic_string@DU?$char_traits@D@std@@V?$allocator@D@2@@std@@V?$weak_ptr@VRawImageData@@@2@U?$less@V?$basic_string@DU?$char_traits@D@std@@V?$allocator@D@2@@std@@@2@V?$allocator@U?$pair@$$CBV?$basic_string@DU?$char_traits@D@std@@V?$allocator@D@2@@std@@V?$weak_ptr@VRawImageData@@@2@@std@@@2@$0A@@std@@@std@@IAEXXZ 00400000     MyDemoA.obj
 0002:fff75000       __unwindtable$?_Orphan_range_locked@?$vector@PAVDisplayableObject@@V?$allocator@PAVDisplayableObject@@@std@@@std@@ABEXPAPAVDisplayableObject@@0@Z 00400000     MyDemoA.obj
 0002:fff75000       __unwindtable$?get@ImageManager@@SAPAV1@XZ 00400000     MyDemoA.obj
 0002:fff75000       __unwindtable$?getImagebyURL@ImageManager@@QAE?AVSimpleImage@@V?$basic_string@DU?$char_traits@D@std@@V?$allocator@D@2@@std@@_N1@Z 00400000     MyDemoA.obj
 0002:fff75000       __unwindtable$?loadAsNew@ImageManager@@QAE?AV?$shared_ptr@VRawImageData@@@std@@V?$basic_string@DU?$char_traits@D@std@@V?$allocator@D@2@@3@@Z 00400000     MyDemoA.obj
 0002:fff75000       __unwindtable$?loadImage@ImageManager@@SA?AVSimpleImage@@V?$basic_string@DU?$char_traits@D@std@@V?$allocator@D@2@@std@@_N@Z 00400000     MyDemoA.obj
 0002:fff75000       __unwindtable$?loadImage@RawImageData@@QAE_NV?$basic_string@DU?$char_traits@D@std@@V?$allocator@D@2@@std@@HHHHH_N@Z 00400000     MyDemoA.obj
 0002:fff75000       __unwindtable$?setAllObjectsVisible@DisplayableObjectContainer@@QBEX_N@Z 00400000     MyDemoA.obj
 0000:00000000       _volmd                     00400000     MyDemoA.obj
 0000:00000000       _volmd                     00400000     MyDemoA.obj
 0000:00000000       _volmd                     00400000     MyDemoA.obj
 0000:00000000       _volmd                     00400000     MyDemoA.obj
 0000:00000000       _volmd                     00400000     MyDemoA.obj
 0000:00000000       _volmd                     00400000     MyDemoA.obj
 0000:00000000       _volmd                     00400000     MyDemoA.obj
 0000:00000000       _volmd                     00400000     MyDemoA.obj
 0000:00000000       _volmd                     00400000     MyDemoA.obj
 0000:00000000       _volmd                     00400000     MyDemoA.obj
 0000:00000000       _volmd                     00400000     MyDemoA.obj
 0000:00000000       _volmd                     00400000     MyDemoA.obj
 0000:00000000       _volmd                     00400000     MyDemoA.obj
 0000:00000000       _volmd                     00400000     MyDemoA.obj
 0000:00000000       _volmd                     00400000     MyDemoA.obj
 0000:00000000       _volmd                     00400000     MyDemoA.obj
 0000:00000000       _volmd                     00400000     MyDemoA.obj
 0000:00000000       _volmd                     00400000     MyDemoA.obj
 0000:00000000       _volmd                     00400000     MyDemoA.obj
 0000:00000000       _volmd                     00400000     MyDemoA.obj
 0000:00000000       _volmd                     00400000     MyDemoA.obj
 0000:00000000       _volmd                     00400000     MyDemoA.obj
 0000:00000000       _volmd                     00400000     MyDemoA.obj
 0000:00000000       _volmd                     00400000     MyDemoA.obj
 0000:00000000       _volmd                     00400000     MyDemoA.obj
 0000:00000000       _volmd                     00400000     MyDemoA.obj
 0000:00000000       _volmd                     00400000     MyDemoA.obj
 0000:00000000       _volmd                     00400000     MyDemoA.obj
 0000:00000000       _volmd                     00400000     MyDemoA.obj
 0000:00000000       _volmd                     00400000     MyDemoA.obj
 0000:00000000       _volmd                     00400000     MyDemoA.obj
 0000:00000000       _volmd                     00400000     MyDemoA.obj
 0000:00000000       _volmd                     00400000     MyDemoA.obj
 0000:00000000       _volmd                     00400000     MyDemoA.obj
 0000:00000000       _volmd                     00400000     MyDemoA.obj
 0000:00000000       _volmd                     00400000     MyDemoA.obj
 0000:00000000       _volmd                     00400000     MyDemoA.obj
 0002:fff75000       __ehfuncinfo$??$_Deallocate@$07@std@@YAXPAXI@Z 00400000     Psyeb10Bike.obj
 0002:fff75000       __ehfuncinfo$??$_Destroy_range@V?$allocator@VSimpleImage@@@std@@@std@@YAXPAVSimpleImage@@QAV1@AAV?$allocator@VSimpleImage@@@0@@Z 00400000     Psyeb10Bike.obj
 0001:fffff000       __ehhandler$??$_Deallocate@$07@std@@YAXPAXI@Z 00400000 f   Psyeb10Bike.obj
 0001:fffff000       __ehhandler$??$_Destroy_range@V?$allocator@VSimpleImage@@@std@@@std@@YAXPAVSimpleImage@@QAV1@AAV?$allocator@VSimpleImage@@@0@@Z 00400000 f   Psyeb10Bike.obj
 0000:00000000       _volmd                     00400000     Psyeb10Bike.obj
 0000:00000000       _volmd                     00400000     Psyeb10Bike.obj
 0000:00000000       _volmd                     00400000     Psyeb10Bike.obj
 0000:00000000       _volmd                     00400000     Psyeb10Bike.obj
 0002:fff75000       __catchsym$??$?6U?$char_traits@D@std@@@std@@YAAAV?$basic_ostream@DU?$char_traits@D@std@@@0@AAV10@PBD@Z$3 00400000     Psyeb10Enemy.obj
 0002:fff75000       __catchsym$??$_Insert_string@DU?$char_traits@D@std@@I@std@@YAAAV?$basic_ostream@DU?$char_traits@D@std@@@0@AAV10@QBDI@Z$3 00400000     Psyeb10Enemy.obj
 0002:fff75000       __ehfuncinfo$??$_Deallocate@$07@std@@YAXPAXI@Z 00400000     Psyeb10Enemy.obj
 0002:fff75000       __ehfuncinfo$??$_Destroy_range@V?$allocator@VSimpleImage@@@std@@@std@@YAXPAVSimpleImage@@QAV1@AAV?$allocator@VSimpleImage@@@0@@Z 00400000     Psyeb10Enemy.obj
 0002:fff75000       __ehfuncinfo$??$_Freenode@V?$allocator@U?$_Tree_node@U?$pair@$$CBV?$basic_string@DU?$char_traits@D@std@@V?$allocator@D@2@@std@@V?$weak_ptr@VRawImageData@@@2@@std@@PAX@std@@@std@@@?$_Tree_node@U?$pair@$$CBV?$basic_string@DU?$char_traits@D@std@@V?$allocator@D@2@@std@@V?$weak_ptr@VRawImageData@@@2@@std@@PAX@std@@SAXAAV?$allocator@U?$_Tree_node@U?$pair@$$CBV?$basic_string@DU?$char_traits@D@std@@V?$allocator@D@2@@std@@V?$weak_ptr@VRawImageData@@@2@@std@@PAX@std@@@1@PAU01@@Z 00400000     Psyeb10Enemy.obj
 0002:fff75000       __ehfuncinfo$??0?$basic_string@DU?$char_traits@D@std@@V?$allocator@D@2@@std@@QAE@$$QAV01@@Z 00400000     Psyeb10Enemy.obj
 0002:fff75000       __ehfuncinfo$??1?$_Tree_temp_node@V?$allocator@U?$_Tree_node@U?$pair@$$CBV?$basic_string@DU?$char_traits@D@std@@V?$allocator@D@2@@std@@V?$shared_ptr@VRawImageData@@@2@@std@@PAX@std@@@std@@@std@@QAE@XZ 00400000     Psyeb10Enemy.obj
 0002:fff75000       __ehfuncinfo$??1?$_Tree_temp_node@V?$allocator@U?$_Tree_node@U?$pair@$$CBV?$basic_string@DU?$char_traits@D@std@@V?$allocator@D@2@@std@@V?$weak_ptr@VRawImageData@@@2@@std@@PAX@std@@@std@@@std@@QAE@XZ 00400000     Psyeb10Enemy.obj
 0002:fff75000       __ehfuncinfo$??1RawImageData@@QAE@XZ 00400000     Psyeb10Enemy.obj
 0002:fff75000       __ehfuncinfo$??1_Sentry_base@?$basic_ostream@DU?$char_traits@D@std@@@std@@QAE@XZ 00400000     Psyeb10Enemy.obj
 0002:fff75000       __ehfuncinfo$?getImagePtrbyURL@ImageManager@@QAE?AV?$shared_ptr@VRawImageData@@@std@@V?$basic_string@DU?$char_traits@D@std@@V?$allocator@D@2@@3@_N1@Z 00400000     Psyeb10Enemy.obj
 0001:fffff000       __ehhandler$??$_Deallocate@$07@std@@YAXPAXI@Z 00400000 f   Psyeb10Enemy.obj
 0001:fffff000       __ehhandler$??$_Destroy_range@V?$allocator@VSimpleImage@@@std@@@std@@YAXPAVSimpleImage@@QAV1@AAV?$allocator@VSimpleImage@@@0@@Z 00400000 f   Psyeb10Enemy.obj
 0001:fffff000       __ehhandler$??$_Freenode@V?$allocator@U?$_Tree_node@U?$pair@$$CBV?$basic_string@DU?$char_traits@D@std@@V?$allocator@D@2@@std@@V?$weak_ptr@VRawImageData@@@2@@std@@PAX@std@@@std@@@?$_Tree_node@U?$pair@$$CBV?$basic_string@DU?$char_traits@D@std@@V?$allocator@D@2@@std@@V?$weak_ptr@VRawImageData@@@2@@std@@PAX@std@@SAXAAV?$allocator@U?$_Tree_node@U?$pair@$$CBV?$basic_string@DU?$char_traits@D@std@@V?$allocator@D@2@@std@@V?$weak_ptr@VRawImageData@@@2@@std@@PAX@std@@@1@PAU01@@Z 00400000 f   Psyeb10Enemy.obj
 0001:fffff000       __ehhandler$??0?$basic_string@DU?$char_traits@D@std@@V?$allocator@D@2@@std@@QAE@$$QAV01@@Z 00400000 f   Psyeb10Enemy.obj
 0001:fffff000       __ehhandler$??1?$_Tree_temp_node@V?$allocator@U?$_Tree_node@U?$pair@$$CBV?$basic_string@DU?$char_traits@D@std@@V?$allocator@D@2@@std@@V?$shared_ptr@VRawImageData@@@2@@std@@PAX@std@@@std@@@std@@QAE@XZ 00400000 f   Psyeb10Enemy.obj
 0001:fffff000       __ehhandler$??1?$_Tree_temp_node@V?$allocator@U?$_Tree_node@U?$pair@$$CBV?$basic_string@DU?$char_traits@D@std@@V?$allocator@D@2@@std@@V?$weak_ptr@VRawImageData@@@2@@std@@PAX@std@@@std@@@std@@QAE@XZ 00400000 f   Psyeb10Enemy.obj
 0001:fffff000       __ehhandler$??1RawImageData@@QAE@XZ 00400000 f   Psyeb10Enemy.obj
 0001:fffff000       __ehhandler$??1_Sentry_base@?$basic_ostream@DU?$char_traits@D@std@@@std@@QAE@XZ 00400000 f   Psyeb10Enemy.obj
 0001:fffff000       __unwindfunclet$??$?0PAD$0A@@?$basic_string@DU?$char_traits@D@std@@V?$allocator@D@2@@std@@QAE@PAD0ABV?$allocator@D@1@@Z$0 00400000 f   Psyeb10Enemy.obj
 0001:fffff000       __unwindfunclet$??$?0U?$pair@V?$basic_string@DU?$char_traits@D@std@@V?$allocator@D@2@@std@@V?$shared_ptr@VRawImageData@@@2@@std@@@?$_Tree_temp_node@V?$allocator@U?$_Tree_node@U?$pair@$$CBV?$basic_string@DU?$char_traits@D@std@@V?$allocator@D@2@@std@@V?$shared_ptr@VRawImageData@@@2@@std@@PAX@std@@@std@@@std@@QAE@AAV?$allocator@U?$_Tree_node@U?$pair@$$CBV?$basic_string@DU?$char_traits@D@std@@V?$allocator@D@2@@std@@V?$shared_ptr@VRawImageData@@@2@@std@@PAX@std@@@1@PAU?$_Tree_node@U?$pair@$$CBV?$basic_string@DU?$char_traits@D@std@@V?$allocator@D@2@@std@@V?$shared_ptr@VRawImageData@@@2@@std@@PAX@1@$$QAU?$pair@V?$basic_string@DU?$char_traits@D@std@@V?$allocator@D@2@@std@@V?$shared_ptr@VRawImageData@@@2@@1@@Z$0 00400000 f   Psyeb10Enemy.obj
 0001:fffff000       __unwindfunclet$??$?0U?$pair@V?$basic_string@DU?$char_traits@D@std@@V?$allocator@D@2@@std@@V?$weak_ptr@VRawImageData@@@2@@std@@@?$_Tree_temp_node@V?$allocator@U?$_Tree_node@U?$pair@$$CBV?$basic_string@DU?$char_traits@D@std@@V?$allocator@D@2@@std@@V?$weak_ptr@VRawImageData@@@2@@std@@PAX@std@@@std@@@std@@QAE@AAV?$allocator@U?$_Tree_node@U?$pair@$$CBV?$basic_string@DU?$char_traits@D@std@@V?$allocator@D@2@@std@@V?$weak_ptr@VRawImageData@@@2@@std@@PAX@std@@@1@PAU?$_Tree_node@U?$pair@$$CBV?$basic_string@DU?$char_traits@D@std@@V?$allocator@D@2@@std@@V?$weak_ptr@VRawImageData@@@2@@std@@PAX@1@$$QAU?$pair@V?$basic_string@DU?$char_traits@D@std@@V?$allocator@D@2@@std@@V?$weak_ptr@VRawImageData@@@2@@1@@Z$0 00400000 f   Psyeb10Enemy.obj
 0001:fffff000       __unwindfunclet$??$?0VRawImageData@@$0A@@?$shared_ptr@VRawImageData@@@std@@QAE@PAVRawImageData@@@Z$0 00400000 f   Psyeb10Enemy.obj
 0001:fffff000       __unwindfunclet$??$?6U?$char_traits@D@std@@@std@@YAAAV?$basic_ostream@DU?$char_traits@D@std@@@0@AAV10@PBD@Z$2 00400000 f   Psyeb10Enemy.obj
 0001:fffff000       __unwindfunclet$??$_Construct@$00PAD@?$basic_string@DU?$char_traits@D@std@@V?$allocator@D@2@@std@@AAEXQADI@Z$0 00400000 f   Psyeb10Enemy.obj
 0001:fffff000       __unwindfunclet$??$_Construct@$01PBD@?$basic_string@DU?$char_traits@D@std@@V?$allocator@D@2@@std@@AAEXQBDI@Z$0 00400000 f   Psyeb10Enemy.obj
 0001:fffff000       __unwindfunclet$??$_Emplace_reallocate@ABVSimpleImage@@@?$vector@VSimpleImage@@V?$allocator@VSimpleImage@@@std@@@std@@AAEPAVSimpleImage@@QAV2@ABV2@@Z$0 00400000 f   Psyeb10Enemy.obj
 0001:fffff000       __unwindfunclet$??$_Insert_string@DU?$char_traits@D@std@@I@std@@YAAAV?$basic_ostream@DU?$char_traits@D@std@@@0@AAV10@QBDI@Z$2 00400000 f   Psyeb10Enemy.obj
 0001:fffff000       __unwindfunclet$??$_Uninitialized_move@PAVSimpleImage@@V?$allocator@VSimpleImage@@@std@@@std@@YAPAVSimpleImage@@QAV1@0PAV1@AAV?$allocator@VSimpleImage@@@0@@Z$0 00400000 f   Psyeb10Enemy.obj
 0001:fffff000       __unwindfunclet$??0?$_Tree_temp_node_alloc@V?$allocator@U?$_Tree_node@U?$pair@$$CBV?$basic_string@DU?$char_traits@D@std@@V?$allocator@D@2@@std@@V?$shared_ptr@VRawImageData@@@2@@std@@PAX@std@@@std@@@std@@QAE@AAV?$allocator@U?$_Tree_node@U?$pair@$$CBV?$basic_string@DU?$char_traits@D@std@@V?$allocator@D@2@@std@@V?$shared_ptr@VRawImageData@@@2@@std@@PAX@std@@@1@@Z$0 00400000 f   Psyeb10Enemy.obj
 0001:fffff000       __unwindfunclet$??0?$_Tree_temp_node_alloc@V?$allocator@U?$_Tree_node@U?$pair@$$CBV?$basic_string@DU?$char_traits@D@std@@V?$allocator@D@2@@std@@V?$weak_ptr@VRawImageData@@@2@@std@@PAX@std@@@std@@@std@@QAE@AAV?$allocator@U?$_Tree_node@U?$pair@$$CBV?$basic_string@DU?$char_traits@D@std@@V?$allocator@D@2@@std@@V?$weak_ptr@VRawImageData@@@2@@std@@PAX@std@@@1@@Z$0 00400000 f   Psyeb10Enemy.obj
 0001:fffff000       __unwindfunclet$??0?$basic_string@DU?$char_traits@D@std@@V?$allocator@D@2@@std@@QAE@ABV01@@Z$0 00400000 f   Psyeb10Enemy.obj
 0001:fffff000       __unwindfunclet$??0ImageManager@@QAE@XZ$0 00400000 f   Psyeb10Enemy.obj
 0001:fffff000       __unwindfunclet$??0RawImageData@@QAE@V?$basic_string@DU?$char_traits@D@std@@V?$allocator@D@2@@std@@@Z$0 00400000 f   Psyeb10Enemy.obj
 0001:fffff000       __unwindfunclet$??0sentry@?$basic_ostream@DU?$char_traits@D@std@@@std@@QAE@AAV12@@Z$0 00400000 f   Psyeb10Enemy.obj
 0001:fffff000       __unwindfunclet$?_Alloc_sentinel_and_proxy@?$_Tree@V?$_Tmap_traits@V?$basic_string@DU?$char_traits@D@std@@V?$allocator@D@2@@std@@V?$shared_ptr@VRawImageData@@@2@U?$less@V?$basic_string@DU?$char_traits@D@std@@V?$allocator@D@2@@std@@@2@V?$allocator@U?$pair@$$CBV?$basic_string@DU?$char_traits@D@std@@V?$allocator@D@2@@std@@V?$shared_ptr@VRawImageData@@@2@@std@@@2@$0A@@std@@@std@@IAEXXZ$0 00400000 f   Psyeb10Enemy.obj
 0001:fffff000       __unwindfunclet$?_Alloc_sentinel_and_proxy@?$_Tree@V?$_Tmap_traits@V?$basic_string@DU?$char_traits@D@std@@V?$allocator@D@2@@std@@V?$weak_ptr@VRawImageData@@@2@U?$less@V?$basic_string@DU?$char_traits@D@std@@V?$allocator@D@2@@std@@@2@V?$allocator@U?$pair@$$CBV?$basic_string@DU?$char_traits@D@std@@V?$allocator@D@2@@std@@V?$weak_ptr@VRawImageData@@@2@@std@@@2@$0A@@std@@@std@@IAEXXZ$0 00400000 f   Psyeb10Enemy.obj
 0001:fffff000       __unwindfunclet$?_Orphan_range_locked@?$vector@VSimpleImage@@V?$allocator@VSimpleImage@@@std@@@std@@ABEXPAVSimpleImage@@0@Z$0 00400000 f   Psyeb10Enemy.obj
 0001:fffff000       __unwindfunclet$?get@ImageManager@@SAPAV1@XZ$0 00400000 f   Psyeb10Enemy.obj
